

Microchip MPLAB XC8 Assembler V2.20 build 20200408173844 
                                                                                               Tue May 26 14:13:09 2020

Microchip MPLAB XC8 C Compiler v2.20 (Free license) build 20200408173844 Og1 
     1                           	processor	16F1829
     2                           	pagewidth 120
     3                           	opt	flic
     4                           	psect	stringtext1,global,class=STRCODE,delta=2,noexec
     5                           	psect	stringtext2,global,class=STRCODE,delta=2,noexec
     6                           	psect	cinit,global,class=CODE,merge=1,delta=2
     7                           	psect	bssCOMMON,global,class=COMMON,space=1,delta=1,noexec
     8                           	psect	bssBANK0,global,class=BANK0,space=1,delta=1,noexec
     9                           	psect	bssBANK1,global,class=BANK1,space=1,delta=1,noexec
    10                           	psect	bssBANK2,global,class=BANK2,space=1,delta=1,noexec
    11                           	psect	bssBANK3,global,class=BANK3,space=1,delta=1,noexec
    12                           	psect	clrtext,global,class=CODE,delta=2
    13                           	psect	cstackCOMMON,global,class=COMMON,space=1,delta=1,noexec
    14                           	psect	cstackBANK0,global,class=BANK0,space=1,delta=1,noexec
    15                           	psect	maintext,global,class=CODE,merge=1,split=1,delta=2
    16                           	psect	text1,local,class=CODE,merge=1,delta=2
    17                           	psect	text2,local,class=CODE,merge=1,delta=2
    18                           	psect	text3,local,class=CODE,merge=1,delta=2
    19                           	psect	text4,local,class=CODE,merge=1,delta=2
    20                           	psect	text5,local,class=CODE,merge=1,delta=2
    21                           	psect	text6,local,class=CODE,merge=1,delta=2
    22                           	psect	text7,local,class=CODE,merge=1,delta=2
    23                           	psect	text8,local,class=CODE,merge=1,delta=2,group=1
    24                           	psect	text9,local,class=CODE,merge=1,delta=2
    25                           	psect	text10,local,class=CODE,merge=1,delta=2
    26                           	psect	text11,local,class=CODE,merge=1,delta=2
    27                           	psect	text12,local,class=CODE,merge=1,delta=2
    28                           	psect	text13,local,class=CODE,merge=1,delta=2
    29                           	psect	text14,local,class=CODE,merge=1,delta=2
    30                           	psect	text15,local,class=CODE,merge=1,delta=2
    31                           	psect	text16,local,class=CODE,merge=1,delta=2
    32                           	psect	text17,local,class=CODE,merge=1,delta=2
    33                           	psect	text18,local,class=CODE,merge=1,delta=2
    34                           	psect	text19,local,class=CODE,merge=1,delta=2
    35                           	psect	text20,local,class=CODE,merge=1,delta=2
    36                           	psect	text21,local,class=CODE,merge=1,delta=2
    37                           	psect	text22,local,class=CODE,merge=1,delta=2
    38                           	psect	text23,local,class=CODE,merge=1,delta=2
    39                           	psect	text24,local,class=CODE,merge=1,delta=2
    40                           	psect	text25,local,class=CODE,merge=1,delta=2
    41                           	psect	text26,local,class=CODE,merge=1,delta=2
    42                           	psect	text27,local,class=CODE,merge=1,delta=2
    43                           	psect	text28,local,class=CODE,merge=1,delta=2
    44                           	psect	text29,local,class=CODE,merge=1,delta=2
    45                           	psect	text30,local,class=CODE,merge=1,delta=2
    46                           	psect	text31,local,class=CODE,merge=1,delta=2
    47                           	psect	text32,local,class=CODE,merge=1,delta=2
    48                           	psect	text33,local,class=CODE,merge=1,delta=2
    49                           	psect	text34,local,class=CODE,merge=1,delta=2
    50                           	psect	text35,local,class=CODE,merge=1,delta=2
    51                           	psect	text36,local,class=CODE,merge=1,delta=2
    52                           	psect	text37,local,class=CODE,merge=1,delta=2
    53                           	psect	text38,local,class=CODE,merge=1,delta=2
    54                           	psect	text39,local,class=CODE,merge=1,delta=2
    55                           	psect	text40,local,class=CODE,merge=1,delta=2
    56                           	psect	text41,local,class=CODE,merge=1,delta=2
    57                           	psect	text42,local,class=CODE,merge=1,delta=2
    58                           	psect	text43,local,class=CODE,merge=1,delta=2
    59                           	psect	text44,local,class=CODE,merge=1,delta=2
    60                           	psect	text45,local,class=CODE,merge=1,delta=2
    61                           	psect	text46,local,class=CODE,merge=1,delta=2
    62                           	psect	text47,local,class=CODE,merge=1,delta=2
    63                           	psect	text48,local,class=CODE,merge=1,delta=2
    64                           	psect	text49,local,class=CODE,merge=1,delta=2
    65                           	psect	text50,local,class=CODE,merge=1,delta=2
    66                           	psect	text51,local,class=CODE,merge=1,delta=2
    67                           	psect	text52,local,class=CODE,merge=1,delta=2
    68                           	psect	text53,local,class=CODE,merge=1,delta=2
    69                           	psect	text54,local,class=CODE,merge=1,delta=2
    70                           	psect	text55,local,class=CODE,merge=1,delta=2
    71                           	psect	intentry,global,class=CODE,delta=2
    72                           	psect	text57,local,class=CODE,merge=1,delta=2
    73                           	psect	config,global,abs,ovrld,class=CONFIG,space=4,delta=2,noexec
    74                           	dabs	1,0x7E,2
    75  0000                     
    76                           ; Version 2.20
    77                           ; Generated 09/04/2020 GMT
    78                           ; 
    79                           ; Copyright © 2020, Microchip Technology Inc. and its subsidiaries ("Microchip")
    80                           ; All rights reserved.
    81                           ; 
    82                           ; This software is developed by Microchip Technology Inc. and its subsidiaries ("Microch
      +                          ip").
    83                           ; 
    84                           ; Redistribution and use in source and binary forms, with or without modification, are
    85                           ; permitted provided that the following conditions are met:
    86                           ; 
    87                           ;     1. Redistributions of source code must retain the above copyright notice, this lis
      +                          t of
    88                           ;        conditions and the following disclaimer.
    89                           ; 
    90                           ;     2. Redistributions in binary form must reproduce the above copyright notice, this 
      +                          list
    91                           ;        of conditions and the following disclaimer in the documentation and/or other
    92                           ;        materials provided with the distribution.
    93                           ; 
    94                           ;     3. Microchip's name may not be used to endorse or promote products derived from th
      +                          is
    95                           ;        software without specific prior written permission.
    96                           ; 
    97                           ; THIS SOFTWARE IS PROVIDED BY MICROCHIP "AS IS" AND ANY EXPRESS OR IMPLIED WARRANTIES,
    98                           ; INCLUDING, BUT NOT LIMITED TO, THE IMPLIED WARRANTIES OF MERCHANTABILITY AND FITNESS F
      +                          OR
    99                           ; PURPOSE ARE DISCLAIMED.  IN NO EVENT SHALL MICROCHIP BE LIABLE FOR ANY DIRECT, INDIREC
      +                          T,
   100                           ; INCIDENTAL, SPECIAL, EXEMPLARY, OR CONSEQUENTIAL DAMAGES (INCLUDING BUT NOT LIMITED TO
   101                           ; PROCUREMENT OF SUBSTITUTE GOODS OR SERVICES; LOSS OF USE, DATA OR PROFITS; OR BUSINESS
   102                           ; INTERRUPTION) HOWSOEVER CAUSED AND ON ANY THEORY OF LIABILITY, WHETHER IN CONTRACT, ST
      +                          RICT
   103                           ; LIABILITY, OR TORT (INCLUDING NEGLIGENCE OR OTHERWISE) ARISING IN ANY WAY OUT OF THE U
      +                          SE OF
   104                           ; THIS SOFTWARE, EVEN IF ADVISED OF THE POSSIBILITY OF SUCH DAMAGE.
   105                           ; 
   106                           ; 
   107                           ; Code-generator required, PIC16F1829 Definitions
   108                           ; 
   109                           ; SFR Addresses
   110  0000                     	;# 
   111  0001                     	;# 
   112  0002                     	;# 
   113  0003                     	;# 
   114  0004                     	;# 
   115  0005                     	;# 
   116  0006                     	;# 
   117  0007                     	;# 
   118  0008                     	;# 
   119  0009                     	;# 
   120  000A                     	;# 
   121  000B                     	;# 
   122  000C                     	;# 
   123  000D                     	;# 
   124  000E                     	;# 
   125  0011                     	;# 
   126  0012                     	;# 
   127  0013                     	;# 
   128  0014                     	;# 
   129  0015                     	;# 
   130  0016                     	;# 
   131  0016                     	;# 
   132  0017                     	;# 
   133  0018                     	;# 
   134  0019                     	;# 
   135  001A                     	;# 
   136  001B                     	;# 
   137  001C                     	;# 
   138  001E                     	;# 
   139  001F                     	;# 
   140  008C                     	;# 
   141  008D                     	;# 
   142  008E                     	;# 
   143  0091                     	;# 
   144  0092                     	;# 
   145  0093                     	;# 
   146  0094                     	;# 
   147  0095                     	;# 
   148  0096                     	;# 
   149  0097                     	;# 
   150  0098                     	;# 
   151  0099                     	;# 
   152  009A                     	;# 
   153  009B                     	;# 
   154  009B                     	;# 
   155  009C                     	;# 
   156  009D                     	;# 
   157  009E                     	;# 
   158  010C                     	;# 
   159  010D                     	;# 
   160  010E                     	;# 
   161  0111                     	;# 
   162  0112                     	;# 
   163  0113                     	;# 
   164  0114                     	;# 
   165  0115                     	;# 
   166  0116                     	;# 
   167  0117                     	;# 
   168  0118                     	;# 
   169  0119                     	;# 
   170  011A                     	;# 
   171  011B                     	;# 
   172  011D                     	;# 
   173  011E                     	;# 
   174  018C                     	;# 
   175  018D                     	;# 
   176  018E                     	;# 
   177  0191                     	;# 
   178  0191                     	;# 
   179  0192                     	;# 
   180  0193                     	;# 
   181  0193                     	;# 
   182  0193                     	;# 
   183  0194                     	;# 
   184  0195                     	;# 
   185  0196                     	;# 
   186  0199                     	;# 
   187  019A                     	;# 
   188  019B                     	;# 
   189  019B                     	;# 
   190  019C                     	;# 
   191  019D                     	;# 
   192  019E                     	;# 
   193  019F                     	;# 
   194  020C                     	;# 
   195  020D                     	;# 
   196  020E                     	;# 
   197  0211                     	;# 
   198  0211                     	;# 
   199  0212                     	;# 
   200  0212                     	;# 
   201  0213                     	;# 
   202  0213                     	;# 
   203  0214                     	;# 
   204  0214                     	;# 
   205  0215                     	;# 
   206  0215                     	;# 
   207  0215                     	;# 
   208  0216                     	;# 
   209  0216                     	;# 
   210  0217                     	;# 
   211  0217                     	;# 
   212  0219                     	;# 
   213  021A                     	;# 
   214  021B                     	;# 
   215  021C                     	;# 
   216  021D                     	;# 
   217  021E                     	;# 
   218  021F                     	;# 
   219  0291                     	;# 
   220  0291                     	;# 
   221  0292                     	;# 
   222  0293                     	;# 
   223  0294                     	;# 
   224  0295                     	;# 
   225  0295                     	;# 
   226  0296                     	;# 
   227  0298                     	;# 
   228  0298                     	;# 
   229  0299                     	;# 
   230  029A                     	;# 
   231  029B                     	;# 
   232  029C                     	;# 
   233  029D                     	;# 
   234  029E                     	;# 
   235  0311                     	;# 
   236  0311                     	;# 
   237  0312                     	;# 
   238  0313                     	;# 
   239  0318                     	;# 
   240  0318                     	;# 
   241  0319                     	;# 
   242  031A                     	;# 
   243  038C                     	;# 
   244  038D                     	;# 
   245  038E                     	;# 
   246  0391                     	;# 
   247  0392                     	;# 
   248  0393                     	;# 
   249  0394                     	;# 
   250  0395                     	;# 
   251  0396                     	;# 
   252  039A                     	;# 
   253  039C                     	;# 
   254  039D                     	;# 
   255  039E                     	;# 
   256  039F                     	;# 
   257  0415                     	;# 
   258  0416                     	;# 
   259  0417                     	;# 
   260  041C                     	;# 
   261  041D                     	;# 
   262  041E                     	;# 
   263  0FE4                     	;# 
   264  0FE5                     	;# 
   265  0FE6                     	;# 
   266  0FE7                     	;# 
   267  0FE8                     	;# 
   268  0FE9                     	;# 
   269  0FEA                     	;# 
   270  0FEB                     	;# 
   271  0FED                     	;# 
   272  0FEE                     	;# 
   273  0FEF                     	;# 
   274  0000                     	;# 
   275  0001                     	;# 
   276  0002                     	;# 
   277  0003                     	;# 
   278  0004                     	;# 
   279  0005                     	;# 
   280  0006                     	;# 
   281  0007                     	;# 
   282  0008                     	;# 
   283  0009                     	;# 
   284  000A                     	;# 
   285  000B                     	;# 
   286  000C                     	;# 
   287  000D                     	;# 
   288  000E                     	;# 
   289  0011                     	;# 
   290  0012                     	;# 
   291  0013                     	;# 
   292  0014                     	;# 
   293  0015                     	;# 
   294  0016                     	;# 
   295  0016                     	;# 
   296  0017                     	;# 
   297  0018                     	;# 
   298  0019                     	;# 
   299  001A                     	;# 
   300  001B                     	;# 
   301  001C                     	;# 
   302  001E                     	;# 
   303  001F                     	;# 
   304  008C                     	;# 
   305  008D                     	;# 
   306  008E                     	;# 
   307  0091                     	;# 
   308  0092                     	;# 
   309  0093                     	;# 
   310  0094                     	;# 
   311  0095                     	;# 
   312  0096                     	;# 
   313  0097                     	;# 
   314  0098                     	;# 
   315  0099                     	;# 
   316  009A                     	;# 
   317  009B                     	;# 
   318  009B                     	;# 
   319  009C                     	;# 
   320  009D                     	;# 
   321  009E                     	;# 
   322  010C                     	;# 
   323  010D                     	;# 
   324  010E                     	;# 
   325  0111                     	;# 
   326  0112                     	;# 
   327  0113                     	;# 
   328  0114                     	;# 
   329  0115                     	;# 
   330  0116                     	;# 
   331  0117                     	;# 
   332  0118                     	;# 
   333  0119                     	;# 
   334  011A                     	;# 
   335  011B                     	;# 
   336  011D                     	;# 
   337  011E                     	;# 
   338  018C                     	;# 
   339  018D                     	;# 
   340  018E                     	;# 
   341  0191                     	;# 
   342  0191                     	;# 
   343  0192                     	;# 
   344  0193                     	;# 
   345  0193                     	;# 
   346  0193                     	;# 
   347  0194                     	;# 
   348  0195                     	;# 
   349  0196                     	;# 
   350  0199                     	;# 
   351  019A                     	;# 
   352  019B                     	;# 
   353  019B                     	;# 
   354  019C                     	;# 
   355  019D                     	;# 
   356  019E                     	;# 
   357  019F                     	;# 
   358  020C                     	;# 
   359  020D                     	;# 
   360  020E                     	;# 
   361  0211                     	;# 
   362  0211                     	;# 
   363  0212                     	;# 
   364  0212                     	;# 
   365  0213                     	;# 
   366  0213                     	;# 
   367  0214                     	;# 
   368  0214                     	;# 
   369  0215                     	;# 
   370  0215                     	;# 
   371  0215                     	;# 
   372  0216                     	;# 
   373  0216                     	;# 
   374  0217                     	;# 
   375  0217                     	;# 
   376  0219                     	;# 
   377  021A                     	;# 
   378  021B                     	;# 
   379  021C                     	;# 
   380  021D                     	;# 
   381  021E                     	;# 
   382  021F                     	;# 
   383  0291                     	;# 
   384  0291                     	;# 
   385  0292                     	;# 
   386  0293                     	;# 
   387  0294                     	;# 
   388  0295                     	;# 
   389  0295                     	;# 
   390  0296                     	;# 
   391  0298                     	;# 
   392  0298                     	;# 
   393  0299                     	;# 
   394  029A                     	;# 
   395  029B                     	;# 
   396  029C                     	;# 
   397  029D                     	;# 
   398  029E                     	;# 
   399  0311                     	;# 
   400  0311                     	;# 
   401  0312                     	;# 
   402  0313                     	;# 
   403  0318                     	;# 
   404  0318                     	;# 
   405  0319                     	;# 
   406  031A                     	;# 
   407  038C                     	;# 
   408  038D                     	;# 
   409  038E                     	;# 
   410  0391                     	;# 
   411  0392                     	;# 
   412  0393                     	;# 
   413  0394                     	;# 
   414  0395                     	;# 
   415  0396                     	;# 
   416  039A                     	;# 
   417  039C                     	;# 
   418  039D                     	;# 
   419  039E                     	;# 
   420  039F                     	;# 
   421  0415                     	;# 
   422  0416                     	;# 
   423  0417                     	;# 
   424  041C                     	;# 
   425  041D                     	;# 
   426  041E                     	;# 
   427  0FE4                     	;# 
   428  0FE5                     	;# 
   429  0FE6                     	;# 
   430  0FE7                     	;# 
   431  0FE8                     	;# 
   432  0FE9                     	;# 
   433  0FEA                     	;# 
   434  0FEB                     	;# 
   435  0FED                     	;# 
   436  0FEE                     	;# 
   437  0FEF                     	;# 
   438  0000                     	;# 
   439  0001                     	;# 
   440  0002                     	;# 
   441  0003                     	;# 
   442  0004                     	;# 
   443  0005                     	;# 
   444  0006                     	;# 
   445  0007                     	;# 
   446  0008                     	;# 
   447  0009                     	;# 
   448  000A                     	;# 
   449  000B                     	;# 
   450  000C                     	;# 
   451  000D                     	;# 
   452  000E                     	;# 
   453  0011                     	;# 
   454  0012                     	;# 
   455  0013                     	;# 
   456  0014                     	;# 
   457  0015                     	;# 
   458  0016                     	;# 
   459  0016                     	;# 
   460  0017                     	;# 
   461  0018                     	;# 
   462  0019                     	;# 
   463  001A                     	;# 
   464  001B                     	;# 
   465  001C                     	;# 
   466  001E                     	;# 
   467  001F                     	;# 
   468  008C                     	;# 
   469  008D                     	;# 
   470  008E                     	;# 
   471  0091                     	;# 
   472  0092                     	;# 
   473  0093                     	;# 
   474  0094                     	;# 
   475  0095                     	;# 
   476  0096                     	;# 
   477  0097                     	;# 
   478  0098                     	;# 
   479  0099                     	;# 
   480  009A                     	;# 
   481  009B                     	;# 
   482  009B                     	;# 
   483  009C                     	;# 
   484  009D                     	;# 
   485  009E                     	;# 
   486  010C                     	;# 
   487  010D                     	;# 
   488  010E                     	;# 
   489  0111                     	;# 
   490  0112                     	;# 
   491  0113                     	;# 
   492  0114                     	;# 
   493  0115                     	;# 
   494  0116                     	;# 
   495  0117                     	;# 
   496  0118                     	;# 
   497  0119                     	;# 
   498  011A                     	;# 
   499  011B                     	;# 
   500  011D                     	;# 
   501  011E                     	;# 
   502  018C                     	;# 
   503  018D                     	;# 
   504  018E                     	;# 
   505  0191                     	;# 
   506  0191                     	;# 
   507  0192                     	;# 
   508  0193                     	;# 
   509  0193                     	;# 
   510  0193                     	;# 
   511  0194                     	;# 
   512  0195                     	;# 
   513  0196                     	;# 
   514  0199                     	;# 
   515  019A                     	;# 
   516  019B                     	;# 
   517  019B                     	;# 
   518  019C                     	;# 
   519  019D                     	;# 
   520  019E                     	;# 
   521  019F                     	;# 
   522  020C                     	;# 
   523  020D                     	;# 
   524  020E                     	;# 
   525  0211                     	;# 
   526  0211                     	;# 
   527  0212                     	;# 
   528  0212                     	;# 
   529  0213                     	;# 
   530  0213                     	;# 
   531  0214                     	;# 
   532  0214                     	;# 
   533  0215                     	;# 
   534  0215                     	;# 
   535  0215                     	;# 
   536  0216                     	;# 
   537  0216                     	;# 
   538  0217                     	;# 
   539  0217                     	;# 
   540  0219                     	;# 
   541  021A                     	;# 
   542  021B                     	;# 
   543  021C                     	;# 
   544  021D                     	;# 
   545  021E                     	;# 
   546  021F                     	;# 
   547  0291                     	;# 
   548  0291                     	;# 
   549  0292                     	;# 
   550  0293                     	;# 
   551  0294                     	;# 
   552  0295                     	;# 
   553  0295                     	;# 
   554  0296                     	;# 
   555  0298                     	;# 
   556  0298                     	;# 
   557  0299                     	;# 
   558  029A                     	;# 
   559  029B                     	;# 
   560  029C                     	;# 
   561  029D                     	;# 
   562  029E                     	;# 
   563  0311                     	;# 
   564  0311                     	;# 
   565  0312                     	;# 
   566  0313                     	;# 
   567  0318                     	;# 
   568  0318                     	;# 
   569  0319                     	;# 
   570  031A                     	;# 
   571  038C                     	;# 
   572  038D                     	;# 
   573  038E                     	;# 
   574  0391                     	;# 
   575  0392                     	;# 
   576  0393                     	;# 
   577  0394                     	;# 
   578  0395                     	;# 
   579  0396                     	;# 
   580  039A                     	;# 
   581  039C                     	;# 
   582  039D                     	;# 
   583  039E                     	;# 
   584  039F                     	;# 
   585  0415                     	;# 
   586  0416                     	;# 
   587  0417                     	;# 
   588  041C                     	;# 
   589  041D                     	;# 
   590  041E                     	;# 
   591  0FE4                     	;# 
   592  0FE5                     	;# 
   593  0FE6                     	;# 
   594  0FE7                     	;# 
   595  0FE8                     	;# 
   596  0FE9                     	;# 
   597  0FEA                     	;# 
   598  0FEB                     	;# 
   599  0FED                     	;# 
   600  0FEE                     	;# 
   601  0FEF                     	;# 
   602  0000                     	;# 
   603  0001                     	;# 
   604  0002                     	;# 
   605  0003                     	;# 
   606  0004                     	;# 
   607  0005                     	;# 
   608  0006                     	;# 
   609  0007                     	;# 
   610  0008                     	;# 
   611  0009                     	;# 
   612  000A                     	;# 
   613  000B                     	;# 
   614  000C                     	;# 
   615  000D                     	;# 
   616  000E                     	;# 
   617  0011                     	;# 
   618  0012                     	;# 
   619  0013                     	;# 
   620  0014                     	;# 
   621  0015                     	;# 
   622  0016                     	;# 
   623  0016                     	;# 
   624  0017                     	;# 
   625  0018                     	;# 
   626  0019                     	;# 
   627  001A                     	;# 
   628  001B                     	;# 
   629  001C                     	;# 
   630  001E                     	;# 
   631  001F                     	;# 
   632  008C                     	;# 
   633  008D                     	;# 
   634  008E                     	;# 
   635  0091                     	;# 
   636  0092                     	;# 
   637  0093                     	;# 
   638  0094                     	;# 
   639  0095                     	;# 
   640  0096                     	;# 
   641  0097                     	;# 
   642  0098                     	;# 
   643  0099                     	;# 
   644  009A                     	;# 
   645  009B                     	;# 
   646  009B                     	;# 
   647  009C                     	;# 
   648  009D                     	;# 
   649  009E                     	;# 
   650  010C                     	;# 
   651  010D                     	;# 
   652  010E                     	;# 
   653  0111                     	;# 
   654  0112                     	;# 
   655  0113                     	;# 
   656  0114                     	;# 
   657  0115                     	;# 
   658  0116                     	;# 
   659  0117                     	;# 
   660  0118                     	;# 
   661  0119                     	;# 
   662  011A                     	;# 
   663  011B                     	;# 
   664  011D                     	;# 
   665  011E                     	;# 
   666  018C                     	;# 
   667  018D                     	;# 
   668  018E                     	;# 
   669  0191                     	;# 
   670  0191                     	;# 
   671  0192                     	;# 
   672  0193                     	;# 
   673  0193                     	;# 
   674  0193                     	;# 
   675  0194                     	;# 
   676  0195                     	;# 
   677  0196                     	;# 
   678  0199                     	;# 
   679  019A                     	;# 
   680  019B                     	;# 
   681  019B                     	;# 
   682  019C                     	;# 
   683  019D                     	;# 
   684  019E                     	;# 
   685  019F                     	;# 
   686  020C                     	;# 
   687  020D                     	;# 
   688  020E                     	;# 
   689  0211                     	;# 
   690  0211                     	;# 
   691  0212                     	;# 
   692  0212                     	;# 
   693  0213                     	;# 
   694  0213                     	;# 
   695  0214                     	;# 
   696  0214                     	;# 
   697  0215                     	;# 
   698  0215                     	;# 
   699  0215                     	;# 
   700  0216                     	;# 
   701  0216                     	;# 
   702  0217                     	;# 
   703  0217                     	;# 
   704  0219                     	;# 
   705  021A                     	;# 
   706  021B                     	;# 
   707  021C                     	;# 
   708  021D                     	;# 
   709  021E                     	;# 
   710  021F                     	;# 
   711  0291                     	;# 
   712  0291                     	;# 
   713  0292                     	;# 
   714  0293                     	;# 
   715  0294                     	;# 
   716  0295                     	;# 
   717  0295                     	;# 
   718  0296                     	;# 
   719  0298                     	;# 
   720  0298                     	;# 
   721  0299                     	;# 
   722  029A                     	;# 
   723  029B                     	;# 
   724  029C                     	;# 
   725  029D                     	;# 
   726  029E                     	;# 
   727  0311                     	;# 
   728  0311                     	;# 
   729  0312                     	;# 
   730  0313                     	;# 
   731  0318                     	;# 
   732  0318                     	;# 
   733  0319                     	;# 
   734  031A                     	;# 
   735  038C                     	;# 
   736  038D                     	;# 
   737  038E                     	;# 
   738  0391                     	;# 
   739  0392                     	;# 
   740  0393                     	;# 
   741  0394                     	;# 
   742  0395                     	;# 
   743  0396                     	;# 
   744  039A                     	;# 
   745  039C                     	;# 
   746  039D                     	;# 
   747  039E                     	;# 
   748  039F                     	;# 
   749  0415                     	;# 
   750  0416                     	;# 
   751  0417                     	;# 
   752  041C                     	;# 
   753  041D                     	;# 
   754  041E                     	;# 
   755  0FE4                     	;# 
   756  0FE5                     	;# 
   757  0FE6                     	;# 
   758  0FE7                     	;# 
   759  0FE8                     	;# 
   760  0FE9                     	;# 
   761  0FEA                     	;# 
   762  0FEB                     	;# 
   763  0FED                     	;# 
   764  0FEE                     	;# 
   765  0FEF                     	;# 
   766  0000                     	;# 
   767  0001                     	;# 
   768  0002                     	;# 
   769  0003                     	;# 
   770  0004                     	;# 
   771  0005                     	;# 
   772  0006                     	;# 
   773  0007                     	;# 
   774  0008                     	;# 
   775  0009                     	;# 
   776  000A                     	;# 
   777  000B                     	;# 
   778  000C                     	;# 
   779  000D                     	;# 
   780  000E                     	;# 
   781  0011                     	;# 
   782  0012                     	;# 
   783  0013                     	;# 
   784  0014                     	;# 
   785  0015                     	;# 
   786  0016                     	;# 
   787  0016                     	;# 
   788  0017                     	;# 
   789  0018                     	;# 
   790  0019                     	;# 
   791  001A                     	;# 
   792  001B                     	;# 
   793  001C                     	;# 
   794  001E                     	;# 
   795  001F                     	;# 
   796  008C                     	;# 
   797  008D                     	;# 
   798  008E                     	;# 
   799  0091                     	;# 
   800  0092                     	;# 
   801  0093                     	;# 
   802  0094                     	;# 
   803  0095                     	;# 
   804  0096                     	;# 
   805  0097                     	;# 
   806  0098                     	;# 
   807  0099                     	;# 
   808  009A                     	;# 
   809  009B                     	;# 
   810  009B                     	;# 
   811  009C                     	;# 
   812  009D                     	;# 
   813  009E                     	;# 
   814  010C                     	;# 
   815  010D                     	;# 
   816  010E                     	;# 
   817  0111                     	;# 
   818  0112                     	;# 
   819  0113                     	;# 
   820  0114                     	;# 
   821  0115                     	;# 
   822  0116                     	;# 
   823  0117                     	;# 
   824  0118                     	;# 
   825  0119                     	;# 
   826  011A                     	;# 
   827  011B                     	;# 
   828  011D                     	;# 
   829  011E                     	;# 
   830  018C                     	;# 
   831  018D                     	;# 
   832  018E                     	;# 
   833  0191                     	;# 
   834  0191                     	;# 
   835  0192                     	;# 
   836  0193                     	;# 
   837  0193                     	;# 
   838  0193                     	;# 
   839  0194                     	;# 
   840  0195                     	;# 
   841  0196                     	;# 
   842  0199                     	;# 
   843  019A                     	;# 
   844  019B                     	;# 
   845  019B                     	;# 
   846  019C                     	;# 
   847  019D                     	;# 
   848  019E                     	;# 
   849  019F                     	;# 
   850  020C                     	;# 
   851  020D                     	;# 
   852  020E                     	;# 
   853  0211                     	;# 
   854  0211                     	;# 
   855  0212                     	;# 
   856  0212                     	;# 
   857  0213                     	;# 
   858  0213                     	;# 
   859  0214                     	;# 
   860  0214                     	;# 
   861  0215                     	;# 
   862  0215                     	;# 
   863  0215                     	;# 
   864  0216                     	;# 
   865  0216                     	;# 
   866  0217                     	;# 
   867  0217                     	;# 
   868  0219                     	;# 
   869  021A                     	;# 
   870  021B                     	;# 
   871  021C                     	;# 
   872  021D                     	;# 
   873  021E                     	;# 
   874  021F                     	;# 
   875  0291                     	;# 
   876  0291                     	;# 
   877  0292                     	;# 
   878  0293                     	;# 
   879  0294                     	;# 
   880  0295                     	;# 
   881  0295                     	;# 
   882  0296                     	;# 
   883  0298                     	;# 
   884  0298                     	;# 
   885  0299                     	;# 
   886  029A                     	;# 
   887  029B                     	;# 
   888  029C                     	;# 
   889  029D                     	;# 
   890  029E                     	;# 
   891  0311                     	;# 
   892  0311                     	;# 
   893  0312                     	;# 
   894  0313                     	;# 
   895  0318                     	;# 
   896  0318                     	;# 
   897  0319                     	;# 
   898  031A                     	;# 
   899  038C                     	;# 
   900  038D                     	;# 
   901  038E                     	;# 
   902  0391                     	;# 
   903  0392                     	;# 
   904  0393                     	;# 
   905  0394                     	;# 
   906  0395                     	;# 
   907  0396                     	;# 
   908  039A                     	;# 
   909  039C                     	;# 
   910  039D                     	;# 
   911  039E                     	;# 
   912  039F                     	;# 
   913  0415                     	;# 
   914  0416                     	;# 
   915  0417                     	;# 
   916  041C                     	;# 
   917  041D                     	;# 
   918  041E                     	;# 
   919  0FE4                     	;# 
   920  0FE5                     	;# 
   921  0FE6                     	;# 
   922  0FE7                     	;# 
   923  0FE8                     	;# 
   924  0FE9                     	;# 
   925  0FEA                     	;# 
   926  0FEB                     	;# 
   927  0FED                     	;# 
   928  0FEE                     	;# 
   929  0FEF                     	;# 
   930  0000                     	;# 
   931  0001                     	;# 
   932  0002                     	;# 
   933  0003                     	;# 
   934  0004                     	;# 
   935  0005                     	;# 
   936  0006                     	;# 
   937  0007                     	;# 
   938  0008                     	;# 
   939  0009                     	;# 
   940  000A                     	;# 
   941  000B                     	;# 
   942  000C                     	;# 
   943  000D                     	;# 
   944  000E                     	;# 
   945  0011                     	;# 
   946  0012                     	;# 
   947  0013                     	;# 
   948  0014                     	;# 
   949  0015                     	;# 
   950  0016                     	;# 
   951  0016                     	;# 
   952  0017                     	;# 
   953  0018                     	;# 
   954  0019                     	;# 
   955  001A                     	;# 
   956  001B                     	;# 
   957  001C                     	;# 
   958  001E                     	;# 
   959  001F                     	;# 
   960  008C                     	;# 
   961  008D                     	;# 
   962  008E                     	;# 
   963  0091                     	;# 
   964  0092                     	;# 
   965  0093                     	;# 
   966  0094                     	;# 
   967  0095                     	;# 
   968  0096                     	;# 
   969  0097                     	;# 
   970  0098                     	;# 
   971  0099                     	;# 
   972  009A                     	;# 
   973  009B                     	;# 
   974  009B                     	;# 
   975  009C                     	;# 
   976  009D                     	;# 
   977  009E                     	;# 
   978  010C                     	;# 
   979  010D                     	;# 
   980  010E                     	;# 
   981  0111                     	;# 
   982  0112                     	;# 
   983  0113                     	;# 
   984  0114                     	;# 
   985  0115                     	;# 
   986  0116                     	;# 
   987  0117                     	;# 
   988  0118                     	;# 
   989  0119                     	;# 
   990  011A                     	;# 
   991  011B                     	;# 
   992  011D                     	;# 
   993  011E                     	;# 
   994  018C                     	;# 
   995  018D                     	;# 
   996  018E                     	;# 
   997  0191                     	;# 
   998  0191                     	;# 
   999  0192                     	;# 
  1000  0193                     	;# 
  1001  0193                     	;# 
  1002  0193                     	;# 
  1003  0194                     	;# 
  1004  0195                     	;# 
  1005  0196                     	;# 
  1006  0199                     	;# 
  1007  019A                     	;# 
  1008  019B                     	;# 
  1009  019B                     	;# 
  1010  019C                     	;# 
  1011  019D                     	;# 
  1012  019E                     	;# 
  1013  019F                     	;# 
  1014  020C                     	;# 
  1015  020D                     	;# 
  1016  020E                     	;# 
  1017  0211                     	;# 
  1018  0211                     	;# 
  1019  0212                     	;# 
  1020  0212                     	;# 
  1021  0213                     	;# 
  1022  0213                     	;# 
  1023  0214                     	;# 
  1024  0214                     	;# 
  1025  0215                     	;# 
  1026  0215                     	;# 
  1027  0215                     	;# 
  1028  0216                     	;# 
  1029  0216                     	;# 
  1030  0217                     	;# 
  1031  0217                     	;# 
  1032  0219                     	;# 
  1033  021A                     	;# 
  1034  021B                     	;# 
  1035  021C                     	;# 
  1036  021D                     	;# 
  1037  021E                     	;# 
  1038  021F                     	;# 
  1039  0291                     	;# 
  1040  0291                     	;# 
  1041  0292                     	;# 
  1042  0293                     	;# 
  1043  0294                     	;# 
  1044  0295                     	;# 
  1045  0295                     	;# 
  1046  0296                     	;# 
  1047  0298                     	;# 
  1048  0298                     	;# 
  1049  0299                     	;# 
  1050  029A                     	;# 
  1051  029B                     	;# 
  1052  029C                     	;# 
  1053  029D                     	;# 
  1054  029E                     	;# 
  1055  0311                     	;# 
  1056  0311                     	;# 
  1057  0312                     	;# 
  1058  0313                     	;# 
  1059  0318                     	;# 
  1060  0318                     	;# 
  1061  0319                     	;# 
  1062  031A                     	;# 
  1063  038C                     	;# 
  1064  038D                     	;# 
  1065  038E                     	;# 
  1066  0391                     	;# 
  1067  0392                     	;# 
  1068  0393                     	;# 
  1069  0394                     	;# 
  1070  0395                     	;# 
  1071  0396                     	;# 
  1072  039A                     	;# 
  1073  039C                     	;# 
  1074  039D                     	;# 
  1075  039E                     	;# 
  1076  039F                     	;# 
  1077  0415                     	;# 
  1078  0416                     	;# 
  1079  0417                     	;# 
  1080  041C                     	;# 
  1081  041D                     	;# 
  1082  041E                     	;# 
  1083  0FE4                     	;# 
  1084  0FE5                     	;# 
  1085  0FE6                     	;# 
  1086  0FE7                     	;# 
  1087  0FE8                     	;# 
  1088  0FE9                     	;# 
  1089  0FEA                     	;# 
  1090  0FEB                     	;# 
  1091  0FED                     	;# 
  1092  0FEE                     	;# 
  1093  0FEF                     	;# 
  1094  0000                     	;# 
  1095  0001                     	;# 
  1096  0002                     	;# 
  1097  0003                     	;# 
  1098  0004                     	;# 
  1099  0005                     	;# 
  1100  0006                     	;# 
  1101  0007                     	;# 
  1102  0008                     	;# 
  1103  0009                     	;# 
  1104  000A                     	;# 
  1105  000B                     	;# 
  1106  000C                     	;# 
  1107  000D                     	;# 
  1108  000E                     	;# 
  1109  0011                     	;# 
  1110  0012                     	;# 
  1111  0013                     	;# 
  1112  0014                     	;# 
  1113  0015                     	;# 
  1114  0016                     	;# 
  1115  0016                     	;# 
  1116  0017                     	;# 
  1117  0018                     	;# 
  1118  0019                     	;# 
  1119  001A                     	;# 
  1120  001B                     	;# 
  1121  001C                     	;# 
  1122  001E                     	;# 
  1123  001F                     	;# 
  1124  008C                     	;# 
  1125  008D                     	;# 
  1126  008E                     	;# 
  1127  0091                     	;# 
  1128  0092                     	;# 
  1129  0093                     	;# 
  1130  0094                     	;# 
  1131  0095                     	;# 
  1132  0096                     	;# 
  1133  0097                     	;# 
  1134  0098                     	;# 
  1135  0099                     	;# 
  1136  009A                     	;# 
  1137  009B                     	;# 
  1138  009B                     	;# 
  1139  009C                     	;# 
  1140  009D                     	;# 
  1141  009E                     	;# 
  1142  010C                     	;# 
  1143  010D                     	;# 
  1144  010E                     	;# 
  1145  0111                     	;# 
  1146  0112                     	;# 
  1147  0113                     	;# 
  1148  0114                     	;# 
  1149  0115                     	;# 
  1150  0116                     	;# 
  1151  0117                     	;# 
  1152  0118                     	;# 
  1153  0119                     	;# 
  1154  011A                     	;# 
  1155  011B                     	;# 
  1156  011D                     	;# 
  1157  011E                     	;# 
  1158  018C                     	;# 
  1159  018D                     	;# 
  1160  018E                     	;# 
  1161  0191                     	;# 
  1162  0191                     	;# 
  1163  0192                     	;# 
  1164  0193                     	;# 
  1165  0193                     	;# 
  1166  0193                     	;# 
  1167  0194                     	;# 
  1168  0195                     	;# 
  1169  0196                     	;# 
  1170  0199                     	;# 
  1171  019A                     	;# 
  1172  019B                     	;# 
  1173  019B                     	;# 
  1174  019C                     	;# 
  1175  019D                     	;# 
  1176  019E                     	;# 
  1177  019F                     	;# 
  1178  020C                     	;# 
  1179  020D                     	;# 
  1180  020E                     	;# 
  1181  0211                     	;# 
  1182  0211                     	;# 
  1183  0212                     	;# 
  1184  0212                     	;# 
  1185  0213                     	;# 
  1186  0213                     	;# 
  1187  0214                     	;# 
  1188  0214                     	;# 
  1189  0215                     	;# 
  1190  0215                     	;# 
  1191  0215                     	;# 
  1192  0216                     	;# 
  1193  0216                     	;# 
  1194  0217                     	;# 
  1195  0217                     	;# 
  1196  0219                     	;# 
  1197  021A                     	;# 
  1198  021B                     	;# 
  1199  021C                     	;# 
  1200  021D                     	;# 
  1201  021E                     	;# 
  1202  021F                     	;# 
  1203  0291                     	;# 
  1204  0291                     	;# 
  1205  0292                     	;# 
  1206  0293                     	;# 
  1207  0294                     	;# 
  1208  0295                     	;# 
  1209  0295                     	;# 
  1210  0296                     	;# 
  1211  0298                     	;# 
  1212  0298                     	;# 
  1213  0299                     	;# 
  1214  029A                     	;# 
  1215  029B                     	;# 
  1216  029C                     	;# 
  1217  029D                     	;# 
  1218  029E                     	;# 
  1219  0311                     	;# 
  1220  0311                     	;# 
  1221  0312                     	;# 
  1222  0313                     	;# 
  1223  0318                     	;# 
  1224  0318                     	;# 
  1225  0319                     	;# 
  1226  031A                     	;# 
  1227  038C                     	;# 
  1228  038D                     	;# 
  1229  038E                     	;# 
  1230  0391                     	;# 
  1231  0392                     	;# 
  1232  0393                     	;# 
  1233  0394                     	;# 
  1234  0395                     	;# 
  1235  0396                     	;# 
  1236  039A                     	;# 
  1237  039C                     	;# 
  1238  039D                     	;# 
  1239  039E                     	;# 
  1240  039F                     	;# 
  1241  0415                     	;# 
  1242  0416                     	;# 
  1243  0417                     	;# 
  1244  041C                     	;# 
  1245  041D                     	;# 
  1246  041E                     	;# 
  1247  0FE4                     	;# 
  1248  0FE5                     	;# 
  1249  0FE6                     	;# 
  1250  0FE7                     	;# 
  1251  0FE8                     	;# 
  1252  0FE9                     	;# 
  1253  0FEA                     	;# 
  1254  0FEB                     	;# 
  1255  0FED                     	;# 
  1256  0FEE                     	;# 
  1257  0FEF                     	;# 
  1258  0000                     	;# 
  1259  0001                     	;# 
  1260  0002                     	;# 
  1261  0003                     	;# 
  1262  0004                     	;# 
  1263  0005                     	;# 
  1264  0006                     	;# 
  1265  0007                     	;# 
  1266  0008                     	;# 
  1267  0009                     	;# 
  1268  000A                     	;# 
  1269  000B                     	;# 
  1270  000C                     	;# 
  1271  000D                     	;# 
  1272  000E                     	;# 
  1273  0011                     	;# 
  1274  0012                     	;# 
  1275  0013                     	;# 
  1276  0014                     	;# 
  1277  0015                     	;# 
  1278  0016                     	;# 
  1279  0016                     	;# 
  1280  0017                     	;# 
  1281  0018                     	;# 
  1282  0019                     	;# 
  1283  001A                     	;# 
  1284  001B                     	;# 
  1285  001C                     	;# 
  1286  001E                     	;# 
  1287  001F                     	;# 
  1288  008C                     	;# 
  1289  008D                     	;# 
  1290  008E                     	;# 
  1291  0091                     	;# 
  1292  0092                     	;# 
  1293  0093                     	;# 
  1294  0094                     	;# 
  1295  0095                     	;# 
  1296  0096                     	;# 
  1297  0097                     	;# 
  1298  0098                     	;# 
  1299  0099                     	;# 
  1300  009A                     	;# 
  1301  009B                     	;# 
  1302  009B                     	;# 
  1303  009C                     	;# 
  1304  009D                     	;# 
  1305  009E                     	;# 
  1306  010C                     	;# 
  1307  010D                     	;# 
  1308  010E                     	;# 
  1309  0111                     	;# 
  1310  0112                     	;# 
  1311  0113                     	;# 
  1312  0114                     	;# 
  1313  0115                     	;# 
  1314  0116                     	;# 
  1315  0117                     	;# 
  1316  0118                     	;# 
  1317  0119                     	;# 
  1318  011A                     	;# 
  1319  011B                     	;# 
  1320  011D                     	;# 
  1321  011E                     	;# 
  1322  018C                     	;# 
  1323  018D                     	;# 
  1324  018E                     	;# 
  1325  0191                     	;# 
  1326  0191                     	;# 
  1327  0192                     	;# 
  1328  0193                     	;# 
  1329  0193                     	;# 
  1330  0193                     	;# 
  1331  0194                     	;# 
  1332  0195                     	;# 
  1333  0196                     	;# 
  1334  0199                     	;# 
  1335  019A                     	;# 
  1336  019B                     	;# 
  1337  019B                     	;# 
  1338  019C                     	;# 
  1339  019D                     	;# 
  1340  019E                     	;# 
  1341  019F                     	;# 
  1342  020C                     	;# 
  1343  020D                     	;# 
  1344  020E                     	;# 
  1345  0211                     	;# 
  1346  0211                     	;# 
  1347  0212                     	;# 
  1348  0212                     	;# 
  1349  0213                     	;# 
  1350  0213                     	;# 
  1351  0214                     	;# 
  1352  0214                     	;# 
  1353  0215                     	;# 
  1354  0215                     	;# 
  1355  0215                     	;# 
  1356  0216                     	;# 
  1357  0216                     	;# 
  1358  0217                     	;# 
  1359  0217                     	;# 
  1360  0219                     	;# 
  1361  021A                     	;# 
  1362  021B                     	;# 
  1363  021C                     	;# 
  1364  021D                     	;# 
  1365  021E                     	;# 
  1366  021F                     	;# 
  1367  0291                     	;# 
  1368  0291                     	;# 
  1369  0292                     	;# 
  1370  0293                     	;# 
  1371  0294                     	;# 
  1372  0295                     	;# 
  1373  0295                     	;# 
  1374  0296                     	;# 
  1375  0298                     	;# 
  1376  0298                     	;# 
  1377  0299                     	;# 
  1378  029A                     	;# 
  1379  029B                     	;# 
  1380  029C                     	;# 
  1381  029D                     	;# 
  1382  029E                     	;# 
  1383  0311                     	;# 
  1384  0311                     	;# 
  1385  0312                     	;# 
  1386  0313                     	;# 
  1387  0318                     	;# 
  1388  0318                     	;# 
  1389  0319                     	;# 
  1390  031A                     	;# 
  1391  038C                     	;# 
  1392  038D                     	;# 
  1393  038E                     	;# 
  1394  0391                     	;# 
  1395  0392                     	;# 
  1396  0393                     	;# 
  1397  0394                     	;# 
  1398  0395                     	;# 
  1399  0396                     	;# 
  1400  039A                     	;# 
  1401  039C                     	;# 
  1402  039D                     	;# 
  1403  039E                     	;# 
  1404  039F                     	;# 
  1405  0415                     	;# 
  1406  0416                     	;# 
  1407  0417                     	;# 
  1408  041C                     	;# 
  1409  041D                     	;# 
  1410  041E                     	;# 
  1411  0FE4                     	;# 
  1412  0FE5                     	;# 
  1413  0FE6                     	;# 
  1414  0FE7                     	;# 
  1415  0FE8                     	;# 
  1416  0FE9                     	;# 
  1417  0FEA                     	;# 
  1418  0FEB                     	;# 
  1419  0FED                     	;# 
  1420  0FEE                     	;# 
  1421  0FEF                     	;# 
  1422  0000                     	;# 
  1423  0001                     	;# 
  1424  0002                     	;# 
  1425  0003                     	;# 
  1426  0004                     	;# 
  1427  0005                     	;# 
  1428  0006                     	;# 
  1429  0007                     	;# 
  1430  0008                     	;# 
  1431  0009                     	;# 
  1432  000A                     	;# 
  1433  000B                     	;# 
  1434  000C                     	;# 
  1435  000D                     	;# 
  1436  000E                     	;# 
  1437  0011                     	;# 
  1438  0012                     	;# 
  1439  0013                     	;# 
  1440  0014                     	;# 
  1441  0015                     	;# 
  1442  0016                     	;# 
  1443  0016                     	;# 
  1444  0017                     	;# 
  1445  0018                     	;# 
  1446  0019                     	;# 
  1447  001A                     	;# 
  1448  001B                     	;# 
  1449  001C                     	;# 
  1450  001E                     	;# 
  1451  001F                     	;# 
  1452  008C                     	;# 
  1453  008D                     	;# 
  1454  008E                     	;# 
  1455  0091                     	;# 
  1456  0092                     	;# 
  1457  0093                     	;# 
  1458  0094                     	;# 
  1459  0095                     	;# 
  1460  0096                     	;# 
  1461  0097                     	;# 
  1462  0098                     	;# 
  1463  0099                     	;# 
  1464  009A                     	;# 
  1465  009B                     	;# 
  1466  009B                     	;# 
  1467  009C                     	;# 
  1468  009D                     	;# 
  1469  009E                     	;# 
  1470  010C                     	;# 
  1471  010D                     	;# 
  1472  010E                     	;# 
  1473  0111                     	;# 
  1474  0112                     	;# 
  1475  0113                     	;# 
  1476  0114                     	;# 
  1477  0115                     	;# 
  1478  0116                     	;# 
  1479  0117                     	;# 
  1480  0118                     	;# 
  1481  0119                     	;# 
  1482  011A                     	;# 
  1483  011B                     	;# 
  1484  011D                     	;# 
  1485  011E                     	;# 
  1486  018C                     	;# 
  1487  018D                     	;# 
  1488  018E                     	;# 
  1489  0191                     	;# 
  1490  0191                     	;# 
  1491  0192                     	;# 
  1492  0193                     	;# 
  1493  0193                     	;# 
  1494  0193                     	;# 
  1495  0194                     	;# 
  1496  0195                     	;# 
  1497  0196                     	;# 
  1498  0199                     	;# 
  1499  019A                     	;# 
  1500  019B                     	;# 
  1501  019B                     	;# 
  1502  019C                     	;# 
  1503  019D                     	;# 
  1504  019E                     	;# 
  1505  019F                     	;# 
  1506  020C                     	;# 
  1507  020D                     	;# 
  1508  020E                     	;# 
  1509  0211                     	;# 
  1510  0211                     	;# 
  1511  0212                     	;# 
  1512  0212                     	;# 
  1513  0213                     	;# 
  1514  0213                     	;# 
  1515  0214                     	;# 
  1516  0214                     	;# 
  1517  0215                     	;# 
  1518  0215                     	;# 
  1519  0215                     	;# 
  1520  0216                     	;# 
  1521  0216                     	;# 
  1522  0217                     	;# 
  1523  0217                     	;# 
  1524  0219                     	;# 
  1525  021A                     	;# 
  1526  021B                     	;# 
  1527  021C                     	;# 
  1528  021D                     	;# 
  1529  021E                     	;# 
  1530  021F                     	;# 
  1531  0291                     	;# 
  1532  0291                     	;# 
  1533  0292                     	;# 
  1534  0293                     	;# 
  1535  0294                     	;# 
  1536  0295                     	;# 
  1537  0295                     	;# 
  1538  0296                     	;# 
  1539  0298                     	;# 
  1540  0298                     	;# 
  1541  0299                     	;# 
  1542  029A                     	;# 
  1543  029B                     	;# 
  1544  029C                     	;# 
  1545  029D                     	;# 
  1546  029E                     	;# 
  1547  0311                     	;# 
  1548  0311                     	;# 
  1549  0312                     	;# 
  1550  0313                     	;# 
  1551  0318                     	;# 
  1552  0318                     	;# 
  1553  0319                     	;# 
  1554  031A                     	;# 
  1555  038C                     	;# 
  1556  038D                     	;# 
  1557  038E                     	;# 
  1558  0391                     	;# 
  1559  0392                     	;# 
  1560  0393                     	;# 
  1561  0394                     	;# 
  1562  0395                     	;# 
  1563  0396                     	;# 
  1564  039A                     	;# 
  1565  039C                     	;# 
  1566  039D                     	;# 
  1567  039E                     	;# 
  1568  039F                     	;# 
  1569  0415                     	;# 
  1570  0416                     	;# 
  1571  0417                     	;# 
  1572  041C                     	;# 
  1573  041D                     	;# 
  1574  041E                     	;# 
  1575  0FE4                     	;# 
  1576  0FE5                     	;# 
  1577  0FE6                     	;# 
  1578  0FE7                     	;# 
  1579  0FE8                     	;# 
  1580  0FE9                     	;# 
  1581  0FEA                     	;# 
  1582  0FEB                     	;# 
  1583  0FED                     	;# 
  1584  0FEE                     	;# 
  1585  0FEF                     	;# 
  1586  0000                     	;# 
  1587  0001                     	;# 
  1588  0002                     	;# 
  1589  0003                     	;# 
  1590  0004                     	;# 
  1591  0005                     	;# 
  1592  0006                     	;# 
  1593  0007                     	;# 
  1594  0008                     	;# 
  1595  0009                     	;# 
  1596  000A                     	;# 
  1597  000B                     	;# 
  1598  000C                     	;# 
  1599  000D                     	;# 
  1600  000E                     	;# 
  1601  0011                     	;# 
  1602  0012                     	;# 
  1603  0013                     	;# 
  1604  0014                     	;# 
  1605  0015                     	;# 
  1606  0016                     	;# 
  1607  0016                     	;# 
  1608  0017                     	;# 
  1609  0018                     	;# 
  1610  0019                     	;# 
  1611  001A                     	;# 
  1612  001B                     	;# 
  1613  001C                     	;# 
  1614  001E                     	;# 
  1615  001F                     	;# 
  1616  008C                     	;# 
  1617  008D                     	;# 
  1618  008E                     	;# 
  1619  0091                     	;# 
  1620  0092                     	;# 
  1621  0093                     	;# 
  1622  0094                     	;# 
  1623  0095                     	;# 
  1624  0096                     	;# 
  1625  0097                     	;# 
  1626  0098                     	;# 
  1627  0099                     	;# 
  1628  009A                     	;# 
  1629  009B                     	;# 
  1630  009B                     	;# 
  1631  009C                     	;# 
  1632  009D                     	;# 
  1633  009E                     	;# 
  1634  010C                     	;# 
  1635  010D                     	;# 
  1636  010E                     	;# 
  1637  0111                     	;# 
  1638  0112                     	;# 
  1639  0113                     	;# 
  1640  0114                     	;# 
  1641  0115                     	;# 
  1642  0116                     	;# 
  1643  0117                     	;# 
  1644  0118                     	;# 
  1645  0119                     	;# 
  1646  011A                     	;# 
  1647  011B                     	;# 
  1648  011D                     	;# 
  1649  011E                     	;# 
  1650  018C                     	;# 
  1651  018D                     	;# 
  1652  018E                     	;# 
  1653  0191                     	;# 
  1654  0191                     	;# 
  1655  0192                     	;# 
  1656  0193                     	;# 
  1657  0193                     	;# 
  1658  0193                     	;# 
  1659  0194                     	;# 
  1660  0195                     	;# 
  1661  0196                     	;# 
  1662  0199                     	;# 
  1663  019A                     	;# 
  1664  019B                     	;# 
  1665  019B                     	;# 
  1666  019C                     	;# 
  1667  019D                     	;# 
  1668  019E                     	;# 
  1669  019F                     	;# 
  1670  020C                     	;# 
  1671  020D                     	;# 
  1672  020E                     	;# 
  1673  0211                     	;# 
  1674  0211                     	;# 
  1675  0212                     	;# 
  1676  0212                     	;# 
  1677  0213                     	;# 
  1678  0213                     	;# 
  1679  0214                     	;# 
  1680  0214                     	;# 
  1681  0215                     	;# 
  1682  0215                     	;# 
  1683  0215                     	;# 
  1684  0216                     	;# 
  1685  0216                     	;# 
  1686  0217                     	;# 
  1687  0217                     	;# 
  1688  0219                     	;# 
  1689  021A                     	;# 
  1690  021B                     	;# 
  1691  021C                     	;# 
  1692  021D                     	;# 
  1693  021E                     	;# 
  1694  021F                     	;# 
  1695  0291                     	;# 
  1696  0291                     	;# 
  1697  0292                     	;# 
  1698  0293                     	;# 
  1699  0294                     	;# 
  1700  0295                     	;# 
  1701  0295                     	;# 
  1702  0296                     	;# 
  1703  0298                     	;# 
  1704  0298                     	;# 
  1705  0299                     	;# 
  1706  029A                     	;# 
  1707  029B                     	;# 
  1708  029C                     	;# 
  1709  029D                     	;# 
  1710  029E                     	;# 
  1711  0311                     	;# 
  1712  0311                     	;# 
  1713  0312                     	;# 
  1714  0313                     	;# 
  1715  0318                     	;# 
  1716  0318                     	;# 
  1717  0319                     	;# 
  1718  031A                     	;# 
  1719  038C                     	;# 
  1720  038D                     	;# 
  1721  038E                     	;# 
  1722  0391                     	;# 
  1723  0392                     	;# 
  1724  0393                     	;# 
  1725  0394                     	;# 
  1726  0395                     	;# 
  1727  0396                     	;# 
  1728  039A                     	;# 
  1729  039C                     	;# 
  1730  039D                     	;# 
  1731  039E                     	;# 
  1732  039F                     	;# 
  1733  0415                     	;# 
  1734  0416                     	;# 
  1735  0417                     	;# 
  1736  041C                     	;# 
  1737  041D                     	;# 
  1738  041E                     	;# 
  1739  0FE4                     	;# 
  1740  0FE5                     	;# 
  1741  0FE6                     	;# 
  1742  0FE7                     	;# 
  1743  0FE8                     	;# 
  1744  0FE9                     	;# 
  1745  0FEA                     	;# 
  1746  0FEB                     	;# 
  1747  0FED                     	;# 
  1748  0FEE                     	;# 
  1749  0FEF                     	;# 
  1750  0000                     	;# 
  1751  0001                     	;# 
  1752  0002                     	;# 
  1753  0003                     	;# 
  1754  0004                     	;# 
  1755  0005                     	;# 
  1756  0006                     	;# 
  1757  0007                     	;# 
  1758  0008                     	;# 
  1759  0009                     	;# 
  1760  000A                     	;# 
  1761  000B                     	;# 
  1762  000C                     	;# 
  1763  000D                     	;# 
  1764  000E                     	;# 
  1765  0011                     	;# 
  1766  0012                     	;# 
  1767  0013                     	;# 
  1768  0014                     	;# 
  1769  0015                     	;# 
  1770  0016                     	;# 
  1771  0016                     	;# 
  1772  0017                     	;# 
  1773  0018                     	;# 
  1774  0019                     	;# 
  1775  001A                     	;# 
  1776  001B                     	;# 
  1777  001C                     	;# 
  1778  001E                     	;# 
  1779  001F                     	;# 
  1780  008C                     	;# 
  1781  008D                     	;# 
  1782  008E                     	;# 
  1783  0091                     	;# 
  1784  0092                     	;# 
  1785  0093                     	;# 
  1786  0094                     	;# 
  1787  0095                     	;# 
  1788  0096                     	;# 
  1789  0097                     	;# 
  1790  0098                     	;# 
  1791  0099                     	;# 
  1792  009A                     	;# 
  1793  009B                     	;# 
  1794  009B                     	;# 
  1795  009C                     	;# 
  1796  009D                     	;# 
  1797  009E                     	;# 
  1798  010C                     	;# 
  1799  010D                     	;# 
  1800  010E                     	;# 
  1801  0111                     	;# 
  1802  0112                     	;# 
  1803  0113                     	;# 
  1804  0114                     	;# 
  1805  0115                     	;# 
  1806  0116                     	;# 
  1807  0117                     	;# 
  1808  0118                     	;# 
  1809  0119                     	;# 
  1810  011A                     	;# 
  1811  011B                     	;# 
  1812  011D                     	;# 
  1813  011E                     	;# 
  1814  018C                     	;# 
  1815  018D                     	;# 
  1816  018E                     	;# 
  1817  0191                     	;# 
  1818  0191                     	;# 
  1819  0192                     	;# 
  1820  0193                     	;# 
  1821  0193                     	;# 
  1822  0193                     	;# 
  1823  0194                     	;# 
  1824  0195                     	;# 
  1825  0196                     	;# 
  1826  0199                     	;# 
  1827  019A                     	;# 
  1828  019B                     	;# 
  1829  019B                     	;# 
  1830  019C                     	;# 
  1831  019D                     	;# 
  1832  019E                     	;# 
  1833  019F                     	;# 
  1834  020C                     	;# 
  1835  020D                     	;# 
  1836  020E                     	;# 
  1837  0211                     	;# 
  1838  0211                     	;# 
  1839  0212                     	;# 
  1840  0212                     	;# 
  1841  0213                     	;# 
  1842  0213                     	;# 
  1843  0214                     	;# 
  1844  0214                     	;# 
  1845  0215                     	;# 
  1846  0215                     	;# 
  1847  0215                     	;# 
  1848  0216                     	;# 
  1849  0216                     	;# 
  1850  0217                     	;# 
  1851  0217                     	;# 
  1852  0219                     	;# 
  1853  021A                     	;# 
  1854  021B                     	;# 
  1855  021C                     	;# 
  1856  021D                     	;# 
  1857  021E                     	;# 
  1858  021F                     	;# 
  1859  0291                     	;# 
  1860  0291                     	;# 
  1861  0292                     	;# 
  1862  0293                     	;# 
  1863  0294                     	;# 
  1864  0295                     	;# 
  1865  0295                     	;# 
  1866  0296                     	;# 
  1867  0298                     	;# 
  1868  0298                     	;# 
  1869  0299                     	;# 
  1870  029A                     	;# 
  1871  029B                     	;# 
  1872  029C                     	;# 
  1873  029D                     	;# 
  1874  029E                     	;# 
  1875  0311                     	;# 
  1876  0311                     	;# 
  1877  0312                     	;# 
  1878  0313                     	;# 
  1879  0318                     	;# 
  1880  0318                     	;# 
  1881  0319                     	;# 
  1882  031A                     	;# 
  1883  038C                     	;# 
  1884  038D                     	;# 
  1885  038E                     	;# 
  1886  0391                     	;# 
  1887  0392                     	;# 
  1888  0393                     	;# 
  1889  0394                     	;# 
  1890  0395                     	;# 
  1891  0396                     	;# 
  1892  039A                     	;# 
  1893  039C                     	;# 
  1894  039D                     	;# 
  1895  039E                     	;# 
  1896  039F                     	;# 
  1897  0415                     	;# 
  1898  0416                     	;# 
  1899  0417                     	;# 
  1900  041C                     	;# 
  1901  041D                     	;# 
  1902  041E                     	;# 
  1903  0FE4                     	;# 
  1904  0FE5                     	;# 
  1905  0FE6                     	;# 
  1906  0FE7                     	;# 
  1907  0FE8                     	;# 
  1908  0FE9                     	;# 
  1909  0FEA                     	;# 
  1910  0FEB                     	;# 
  1911  0FED                     	;# 
  1912  0FEE                     	;# 
  1913  0FEF                     	;# 
  1914                           
  1915                           	psect	stringtext1
  1916  1000                     __pstringtext1:
  1917  1000                     _ct_KeyDataTable:
  1918  1000  34FB               	retlw	251
  1919  1001  34BF               	retlw	191
  1920  1002  34DF               	retlw	223
  1921  1003  34EF               	retlw	239
  1922  1004  34F7               	retlw	247
  1923  1005  349F               	retlw	159
  1924  1006  34AF               	retlw	175
  1925  1007  34B7               	retlw	183
  1926  1008  34BB               	retlw	187
  1927  1009  34CF               	retlw	207
  1928  100A  34DB               	retlw	219
  1929  100B  34EB               	retlw	235
  1930  100C  34E7               	retlw	231
  1931  100D  34F3               	retlw	243
  1932  100E  34FD               	retlw	253
  1933  100F  34FE               	retlw	254
  1934  1010  34FF               	retlw	255
  1935  1011                     __end_of_ct_KeyDataTable:
  1936                           
  1937                           	psect	stringtext2
  1938  1011                     __pstringtext2:
  1939  1011                     _Default_adf7012_value:
  1940  1011  3400               	retlw	0
  1941  1012  3440               	retlw	64
  1942  1013  3488               	retlw	136
  1943  1014  3400               	retlw	0
  1944  1015  34C1               	retlw	193
  1945  1016  344D               	retlw	77
  1946  1017  3415               	retlw	21
  1947  1018  3400               	retlw	0
  1948  1019  34A6               	retlw	166
  1949  101A  3459               	retlw	89
  1950  101B  3440               	retlw	64
  1951  101C  3400               	retlw	0
  1952  101D  344F               	retlw	79
  1953  101E  34D0               	retlw	208
  1954  101F  3421               	retlw	33
  1955  1020  3400               	retlw	0
  1956  1021                     __end_of_Default_adf7012_value:
  1957  000B                     _INTCONbits	set	11
  1958  001C                     _T2CON	set	28
  1959  001B                     _PR2	set	27
  1960  001A                     _TMR2	set	26
  1961  0058                     _IOCIF	set	88
  1962  005F                     _GIE	set	95
  1963  005E                     _PEIE	set	94
  1964  0073                     _RC3	set	115
  1965  0062                     _RA2	set	98
  1966  0075                     _RC5	set	117
  1967  0063                     _RA3	set	99
  1968  0064                     _RA4	set	100
  1969  0074                     _RC4	set	116
  1970  006C                     _RB4	set	108
  1971  006F                     _RB7	set	111
  1972  0077                     _RC7	set	119
  1973  006E                     _RB6	set	110
  1974  0076                     _RC6	set	118
  1975  0089                     _TMR2IF	set	137
  1976  0065                     _RA5	set	101
  1977  0072                     _RC2	set	114
  1978  006D                     _RB5	set	109
  1979  0070                     _RC0	set	112
  1980  005B                     _IOCIE	set	91
  1981  008E                     _TRISC	set	142
  1982  008D                     _TRISB	set	141
  1983  008C                     _TRISA	set	140
  1984  0099                     _OSCCON	set	153
  1985  04AF                     _nWPUEN	set	1199
  1986  04D4                     _HFIOFR	set	1236
  1987  0489                     _TMR2IE	set	1161
  1988  08BE                     _FVRRDY	set	2238
  1989  018E                     _ANSELC	set	398
  1990  018D                     _ANSELB	set	397
  1991  018C                     _ANSELA	set	396
  1992  020E                     _WPUC	set	526
  1993  020D                     _WPUB	set	525
  1994  020C                     _WPUA	set	524
  1995  0393                     _IOCAF	set	915
  1996  0392                     _IOCAN	set	914
  1997  0391                     _IOCAP	set	913
  1998                           
  1999                           	psect	cinit
  2000  001E                     start_initialization:	
  2001                           ; #config settings
  2002                           
  2003  001E                     __initialization:
  2004                           
  2005                           ; Clear objects allocated to COMMON
  2006  001E  01FA               	clrf	__pbssCOMMON& (0+127)
  2007                           
  2008                           ; Clear objects allocated to BANK0
  2009  001F  3020               	movlw	low __pbssBANK0
  2010  0020  0084               	movwf	4
  2011  0021  3000               	movlw	high __pbssBANK0
  2012  0022  0085               	movwf	5
  2013  0023  3031               	movlw	49
  2014  0024  3189  2121  3180   	fcall	clear_ram0
  2015                           
  2016                           ; Clear objects allocated to BANK1
  2017  0027  30A0               	movlw	low __pbssBANK1
  2018  0028  0084               	movwf	4
  2019  0029  3000               	movlw	high __pbssBANK1
  2020  002A  0085               	movwf	5
  2021  002B  304D               	movlw	77
  2022  002C  3189  2121  3180   	fcall	clear_ram0
  2023                           
  2024                           ; Clear objects allocated to BANK2
  2025  002F  3020               	movlw	low __pbssBANK2
  2026  0030  0084               	movwf	4
  2027  0031  3001               	movlw	high __pbssBANK2
  2028  0032  0085               	movwf	5
  2029  0033  3029               	movlw	41
  2030  0034  3189  2121  3180   	fcall	clear_ram0
  2031                           
  2032                           ; Clear objects allocated to BANK3
  2033  0037  30A0               	movlw	low __pbssBANK3
  2034  0038  0084               	movwf	4
  2035  0039  3001               	movlw	high __pbssBANK3
  2036  003A  0085               	movwf	5
  2037  003B  3028               	movlw	40
  2038  003C  3189  2121  3180   	fcall	clear_ram0
  2039  003F                     end_of_initialization:	
  2040                           ;End of C runtime variable initialization code
  2041                           
  2042  003F                     __end_of__initialization:
  2043  003F  107E               	bcf	int$flags,0	;clear compiler interrupt flag (level 1)
  2044  0040  0020               	movlb	0
  2045  0041  318E  2E98         	ljmp	_main	;jump to C main() function
  2046                           
  2047                           	psect	bssCOMMON
  2048  007A                     __pbssCOMMON:
  2049  007A                     _rom_KeyOpt:
  2050  007A                     	ds	1
  2051                           
  2052                           	psect	bssBANK0
  2053  0020                     __pbssBANK0:
  2054  0020                     _m_KeyDupli1stTimer:
  2055  0020                     	ds	2
  2056  0022                     _m_KeyDupliSetTimeout:
  2057  0022                     	ds	2
  2058  0024                     _m_TimerKey:
  2059  0024                     	ds	2
  2060  0026                     _SIO_cnt:
  2061  0026                     	ds	1
  2062  0027                     _FG_test_mode:
  2063  0027                     	ds	1
  2064  0028                     _FG_KEY_OPEN:
  2065  0028                     	ds	1
  2066  0029                     _m_RegDigit:
  2067  0029                     	ds	1
  2068  002A                     _TB_sum_5s:
  2069  002A                     	ds	1
  2070  002B                     _m_KeyOptSetOpenStop:
  2071  002B                     	ds	1
  2072  002C                     _mb_CloseSw:
  2073  002C                     	ds	1
  2074  002D                     _mb_StopSw:
  2075  002D                     	ds	1
  2076  002E                     _mb_OpenSw:
  2077  002E                     	ds	1
  2078  002F                     _m_KeyCount:
  2079  002F                     	ds	1
  2080  0030                     _mb_RegSw:
  2081  0030                     	ds	1
  2082  0031                     _FG_Complex_Single_shot:
  2083  0031                     	ds	1
  2084  0032                     _mb_RegStopSw:
  2085  0032                     	ds	1
  2086  0033                     _mb_RegVentSw:
  2087  0033                     	ds	1
  2088  0034                     _mb_RegCloseSw:
  2089  0034                     	ds	1
  2090  0035                     _mb_RegOpenSw:
  2091  0035                     	ds	1
  2092  0036                     _m_KeyNo:
  2093  0036                     	ds	1
  2094  0037                     _TIME_BEEP_freq:
  2095  0037                     	ds	1
  2096  0038                     _BASE_TIME_BEEP_off:
  2097  0038                     	ds	1
  2098  0039                     _FG_BAT:
  2099  0039                     	ds	1
  2100  003A                     _m_KeyOptSetMode:
  2101  003A                     	ds	1
  2102  003B                     _FG_PWRON:
  2103  003B                     	ds	1
  2104  003C                     _TIME_2s_RestTX:
  2105  003C                     	ds	1
  2106  003D                     _FG_10s:
  2107  003D                     	ds	1
  2108  003E                     _FG_d_StopKey:
  2109  003E                     	ds	1
  2110  003F                     _FG_100ms:
  2111  003F                     	ds	1
  2112  0040                     _mb_NoPushWait:
  2113  0040                     	ds	1
  2114  0041                     _mb_NoPush:
  2115  0041                     	ds	1
  2116  0042                     _m_KindOfKey:
  2117  0042                     	ds	1
  2118  0043                     _m_KeyOld:
  2119  0043                     	ds	1
  2120  0044                     _m_KeyNew:
  2121  0044                     	ds	1
  2122  0045                     _TB_5s:
  2123  0045                     	ds	1
  2124  0046                     _TB_51s:
  2125  0046                     	ds	1
  2126  0047                     _TB_100ms:
  2127  0047                     	ds	1
  2128  0048                     _BAT_out:
  2129  0048                     	ds	1
  2130  0049                     _RAM_BAT_CNT:
  2131  0049                     	ds	1
  2132  004A                     _FG_1ms:
  2133  004A                     	ds	1
  2134  004B                     _Control_code:
  2135  004B                     	ds	1
  2136  004C                     _m_RegMode:
  2137  004C                     	ds	1
  2138  004D                     _txphase_Repeat:
  2139  004D                     	ds	1
  2140  004E                     _ID_INT_CODE:
  2141  004E                     	ds	1
  2142  004F                     _FLAG_APP_TX:
  2143  004F                     	ds	1
  2144  0050                     _FLAG_ADF7021_DATA_tx:
  2145  0050                     	ds	1
  2146                           
  2147                           	psect	bssBANK1
  2148  00A0                     __pbssBANK1:
  2149  00A0                     _BAT_Voltage_value:
  2150  00A0                     	ds	4
  2151  00A4                     _RAM_BAT_SUM:
  2152  00A4                     	ds	4
  2153  00A8                     _ID_data_add:
  2154  00A8                     	ds	4
  2155  00AC                     _ID_data:
  2156  00AC                     	ds	4
  2157  00B0                     _key_Value:
  2158  00B0                     	ds	2
  2159  00B2                     _TIME_BEEP_on:
  2160  00B2                     	ds	2
  2161  00B4                     _BASE_TIME_BEEP_on:
  2162  00B4                     	ds	2
  2163  00B6                     _m_ChatterCount:
  2164  00B6                     	ds	2
  2165  00B8                     _TIME_10s:
  2166  00B8                     	ds	2
  2167  00BA                     _TIME_Once_twice_switch:
  2168  00BA                     	ds	2
  2169  00BC                     _time_led:
  2170  00BC                     	ds	2
  2171  00BE                     _m_TimerRegMode:
  2172  00BE                     	ds	2
  2173  00C0                     _m_TimerKeyMonitor:
  2174  00C0                     	ds	2
  2175  00C2                     _TIME_power_on_AD:
  2176  00C2                     	ds	2
  2177  00C4                     _AD_DATA_BUFF:
  2178  00C4                     	ds	2
  2179  00C6                     _txphase_end:
  2180  00C6                     	ds	2
  2181  00C8                     _txphase:
  2182  00C8                     	ds	2
  2183  00CA                     _BIT_SIO:
  2184  00CA                     	ds	1
  2185  00CB                     _FLAG_KEY_COUNT:
  2186  00CB                     	ds	1
  2187  00CC                     _mb_AutoTxInhibit:
  2188  00CC                     	ds	1
  2189  00CD                     _mb_AutoTxOnOff:
  2190  00CD                     	ds	1
  2191  00CE                     _FG_beep_off:
  2192  00CE                     	ds	1
  2193  00CF                     _FG_beep_on:
  2194  00CF                     	ds	1
  2195  00D0                     _FLAG_beep:
  2196  00D0                     	ds	1
  2197  00D1                     _FG_KEY_LOGIN:
  2198  00D1                     	ds	1
  2199  00D2                     _TEST_No:
  2200  00D2                     	ds	1
  2201  00D3                     _TB_976us:
  2202  00D3                     	ds	1
  2203  00D4                     _FG_test1:
  2204  00D4                     	ds	1
  2205  00D5                     _FG_KEY_CLOSE:
  2206  00D5                     	ds	1
  2207  00D6                     _FG_KEY_STOP:
  2208  00D6                     	ds	1
  2209  00D7                     _m_KeyCloseCount:
  2210  00D7                     	ds	1
  2211  00D8                     _m_KeyOpenCount:
  2212  00D8                     	ds	1
  2213  00D9                     _FG_LED_on:
  2214  00D9                     	ds	1
  2215  00DA                     _TIME_BEEP_off:
  2216  00DA                     	ds	1
  2217  00DB                     _ROM_adf7012_value:
  2218  00DB                     	ds	16
  2219  00EB                     _RAM_BAT_AVG:
  2220  00EB                     	ds	2
  2221                           
  2222                           	psect	bssBANK2
  2223  0120                     __pbssBANK2:
  2224  0120                     _SIO_DATA:
  2225  0120                     	ds	16
  2226  0130                     _SIO_buff:
  2227  0130                     	ds	16
  2228  0140                     _m_RegID:
  2229  0140                     	ds	9
  2230                           
  2231                           	psect	bssBANK3
  2232  01A0                     __pbssBANK3:
  2233  01A0                     _m_RFNormalBuf:
  2234  01A0                     	ds	40
  2235                           
  2236                           	psect	clrtext
  2237  0921                     clear_ram0:	
  2238                           ;	Called with FSR0 containing the base address, and
  2239                           ;	WREG with the size to clear
  2240                           
  2241  0921  0064               	clrwdt	;clear the watchdog before getting into this loop
  2242  0922                     clrloop0:
  2243  0922  0180               	clrf	0	;clear RAM location pointed to by FSR
  2244  0923  3101               	addfsr 0,1
  2245  0924  0B89               	decfsz	9,f	;Have we reached the end of clearing yet?
  2246  0925  2922               	goto	clrloop0	;have we reached the end yet?
  2247  0926  3400               	retlw	0	;all done for this memory range, return
  2248                           
  2249                           	psect	cstackCOMMON
  2250  0070                     __pcstackCOMMON:
  2251  0070                     ?_Delayus:
  2252  0070                     ?__SetKeyChatterCount:	
  2253                           ; 1 bytes @ 0x0
  2254                           
  2255  0070                     ?__ClearSpecialMultiKeyState:	
  2256                           ; 1 bytes @ 0x0
  2257                           
  2258  0070                     ?__KeyInTx:	
  2259                           ; 1 bytes @ 0x0
  2260                           
  2261  0070                     ?__RegistrationMode:	
  2262                           ; 1 bytes @ 0x0
  2263                           
  2264  0070                     ?__DupliFuncSetMode:	
  2265                           ; 1 bytes @ 0x0
  2266                           
  2267  0070                     ?__SwIn:	
  2268                           ; 1 bytes @ 0x0
  2269                           
  2270  0070                     ?__DupliFuncClear:	
  2271                           ; 1 bytes @ 0x0
  2272                           
  2273  0070                     ?__FuncReg:	
  2274                           ; 1 bytes @ 0x0
  2275                           
  2276  0070                     ?__FuncStop:	
  2277                           ; 1 bytes @ 0x0
  2278                           
  2279  0070                     ?__FuncOpenStop:	
  2280                           ; 1 bytes @ 0x0
  2281                           
  2282  0070                     ?__FuncOpenReg:	
  2283                           ; 1 bytes @ 0x0
  2284                           
  2285  0070                     ?__FuncStopReg:	
  2286                           ; 1 bytes @ 0x0
  2287                           
  2288  0070                     ?__FuncCloseReg:	
  2289                           ; 1 bytes @ 0x0
  2290                           
  2291  0070                     ?__FuncVentReg:	
  2292                           ; 1 bytes @ 0x0
  2293                           
  2294  0070                     ?__FuncAutoTxStart:	
  2295                           ; 1 bytes @ 0x0
  2296                           
  2297  0070                     ?__FuncAutoTxStop:	
  2298                           ; 1 bytes @ 0x0
  2299                           
  2300  0070                     ?__FuncNoPush:	
  2301                           ; 1 bytes @ 0x0
  2302                           
  2303  0070                     ?__Pass3secKey:	
  2304                           ; 1 bytes @ 0x0
  2305                           
  2306  0070                     ?__SetRegistrationMode:	
  2307                           ; 1 bytes @ 0x0
  2308                           
  2309  0070                     ?__GetNoPushState:	
  2310                           ; 1 bytes @ 0x0
  2311                           
  2312  0070                     ?__GetRegMode:	
  2313                           ; 1 bytes @ 0x0
  2314                           
  2315  0070                     ?__IdClear:	
  2316                           ; 1 bytes @ 0x0
  2317                           
  2318  0070                     ?_UART1_end:	
  2319                           ; 1 bytes @ 0x0
  2320                           
  2321  0070                     ?_UART1_INIT:	
  2322                           ; 1 bytes @ 0x0
  2323                           
  2324  0070                     ?_EXIT_init:	
  2325                           ; 1 bytes @ 0x0
  2326                           
  2327  0070                     ?_EXTI_PORTA1:	
  2328                           ; 1 bytes @ 0x0
  2329                           
  2330  0070                     ??_EXTI_PORTA1:	
  2331                           ; 1 bytes @ 0x0
  2332                           
  2333  0070                     ?_SendTxData:	
  2334                           ; 1 bytes @ 0x0
  2335                           
  2336  0070                     ?_TIM4_Init:	
  2337                           ; 1 bytes @ 0x0
  2338                           
  2339  0070                     ?_START_AD_SAMPLER:	
  2340                           ; 1 bytes @ 0x0
  2341                           
  2342  0070                     ?_AD_control:	
  2343                           ; 1 bytes @ 0x0
  2344                           
  2345  0070                     ?_dd_set_ADF7021_Power_on_Init:	
  2346                           ; 1 bytes @ 0x0
  2347                           
  2348  0070                     ?_dd_set_ADF7021_Power_on:	
  2349                           ; 1 bytes @ 0x0
  2350                           
  2351  0070                     ?_dd_set_ADF7021_Power_on_test:	
  2352                           ; 1 bytes @ 0x0
  2353                           
  2354  0070                     ?_dd_set_TX_mode:	
  2355                           ; 1 bytes @ 0x0
  2356                           
  2357  0070                     ?_InitialFlashReg:	
  2358                           ; 1 bytes @ 0x0
  2359                           
  2360  0070                     ?_UnlockFlash:	
  2361                           ; 1 bytes @ 0x0
  2362                           
  2363  0070                     ?_LockFlash:	
  2364                           ; 1 bytes @ 0x0
  2365                           
  2366  0070                     ?_eeprom_sys_load:	
  2367                           ; 1 bytes @ 0x0
  2368                           
  2369  0070                     ?_KeyOpt_EEPROM_write:	
  2370                           ; 1 bytes @ 0x0
  2371                           
  2372  0070                     ?_WDT_init:	
  2373                           ; 1 bytes @ 0x0
  2374                           
  2375  0070                     ?_ClearWDT:	
  2376                           ; 1 bytes @ 0x0
  2377                           
  2378  0070                     ?_SysClock_Init:	
  2379                           ; 1 bytes @ 0x0
  2380                           
  2381  0070                     ?_VHF_GPIO_INIT:	
  2382                           ; 1 bytes @ 0x0
  2383                           
  2384  0070                     ?__Init_RAM:	
  2385                           ; 1 bytes @ 0x0
  2386                           
  2387  0070                     ?_key_check:	
  2388                           ; 1 bytes @ 0x0
  2389                           
  2390  0070                     ?_time_control:	
  2391                           ; 1 bytes @ 0x0
  2392                           
  2393  0070                     ?_test_mode_control:	
  2394                           ; 1 bytes @ 0x0
  2395                           
  2396  0070                     ?_main:	
  2397                           ; 1 bytes @ 0x0
  2398                           
  2399  0070                     ?_ISR:	
  2400                           ; 1 bytes @ 0x0
  2401                           
  2402  0070                     UnlockFlash@Type:	
  2403                           ; 1 bytes @ 0x0
  2404                           
  2405  0070                     LockFlash@Type:	
  2406                           ; 1 bytes @ 0x0
  2407                           
  2408                           
  2409                           ; 1 bytes @ 0x0
  2410  0070                     	ds	1
  2411  0071                     ?_dd_write_7021_reg:
  2412                           
  2413                           ; 1 bytes @ 0x1
  2414  0071                     	ds	2
  2415  0073                     ??_Delayus:
  2416  0073                     ??__SetKeyChatterCount:	
  2417                           ; 1 bytes @ 0x3
  2418                           
  2419  0073                     ??__ClearSpecialMultiKeyState:	
  2420                           ; 1 bytes @ 0x3
  2421                           
  2422  0073                     ??__SwIn:	
  2423                           ; 1 bytes @ 0x3
  2424                           
  2425  0073                     ??__DupliFuncClear:	
  2426                           ; 1 bytes @ 0x3
  2427                           
  2428  0073                     ??__FuncAutoTxStart:	
  2429                           ; 1 bytes @ 0x3
  2430                           
  2431  0073                     ??__FuncAutoTxStop:	
  2432                           ; 1 bytes @ 0x3
  2433                           
  2434  0073                     ??__FuncNoPush:	
  2435                           ; 1 bytes @ 0x3
  2436                           
  2437  0073                     ??__GetNoPushState:	
  2438                           ; 1 bytes @ 0x3
  2439                           
  2440  0073                     ?__ReqBuzzer:	
  2441                           ; 1 bytes @ 0x3
  2442                           
  2443  0073                     ??__GetRegMode:	
  2444                           ; 1 bytes @ 0x3
  2445                           
  2446  0073                     ??__IdClear:	
  2447                           ; 1 bytes @ 0x3
  2448                           
  2449  0073                     ??_UART1_end:	
  2450                           ; 1 bytes @ 0x3
  2451                           
  2452  0073                     ??_UART1_INIT:	
  2453                           ; 1 bytes @ 0x3
  2454                           
  2455  0073                     ??_EXIT_init:	
  2456                           ; 1 bytes @ 0x3
  2457                           
  2458  0073                     ??_TIM4_Init:	
  2459                           ; 1 bytes @ 0x3
  2460                           
  2461  0073                     ??_START_AD_SAMPLER:	
  2462                           ; 1 bytes @ 0x3
  2463                           
  2464  0073                     ??_AD_control:	
  2465                           ; 1 bytes @ 0x3
  2466                           
  2467  0073                     ??_dd_write_7021_reg:	
  2468                           ; 1 bytes @ 0x3
  2469                           
  2470  0073                     ??_dd_set_ADF7021_Power_on:	
  2471                           ; 1 bytes @ 0x3
  2472                           
  2473  0073                     ??_InitialFlashReg:	
  2474                           ; 1 bytes @ 0x3
  2475                           
  2476  0073                     ??_UnlockFlash:	
  2477                           ; 1 bytes @ 0x3
  2478                           
  2479  0073                     ??_LockFlash:	
  2480                           ; 1 bytes @ 0x3
  2481                           
  2482  0073                     ?_WriteByteToFLASH:	
  2483                           ; 1 bytes @ 0x3
  2484                           
  2485  0073                     ??_eeprom_sys_load:	
  2486                           ; 1 bytes @ 0x3
  2487                           
  2488  0073                     ??_WDT_init:	
  2489                           ; 1 bytes @ 0x3
  2490                           
  2491  0073                     ??_ClearWDT:	
  2492                           ; 1 bytes @ 0x3
  2493                           
  2494  0073                     ??_SysClock_Init:	
  2495                           ; 1 bytes @ 0x3
  2496                           
  2497  0073                     ??_VHF_GPIO_INIT:	
  2498                           ; 1 bytes @ 0x3
  2499                           
  2500  0073                     ??__Init_RAM:	
  2501                           ; 1 bytes @ 0x3
  2502                           
  2503  0073                     ??_time_control:	
  2504                           ; 1 bytes @ 0x3
  2505                           
  2506  0073                     ??_ISR:	
  2507                           ; 1 bytes @ 0x3
  2508                           
  2509  0073                     ??___lmul:	
  2510                           ; 1 bytes @ 0x3
  2511                           
  2512  0073                     ?_SetFixedLengthCode:	
  2513                           ; 1 bytes @ 0x3
  2514                           
  2515  0073                     __SwIn@sw:	
  2516                           ; 2 bytes @ 0x3
  2517                           
  2518  0073                     __ReqBuzzer@BEEP_on_SET:	
  2519                           ; 1 bytes @ 0x3
  2520                           
  2521  0073                     WriteByteToFLASH@Addr:	
  2522                           ; 2 bytes @ 0x3
  2523                           
  2524  0073                     ___lmul@product:	
  2525                           ; 4 bytes @ 0x3
  2526                           
  2527                           
  2528                           ; 4 bytes @ 0x3
  2529  0073                     	ds	1
  2530  0074                     Delayus@timer:
  2531  0074                     __IdClear@i:	
  2532                           ; 1 bytes @ 0x4
  2533                           
  2534                           
  2535                           ; 1 bytes @ 0x4
  2536  0074                     	ds	1
  2537  0075                     ??_SetFixedLengthCode:
  2538  0075                     dd_write_7021_reg@j:	
  2539                           ; 1 bytes @ 0x5
  2540                           
  2541  0075                     Delayus@x:	
  2542                           ; 1 bytes @ 0x5
  2543                           
  2544  0075                     __ReqBuzzer@BEEP_off_SET:	
  2545                           ; 1 bytes @ 0x5
  2546                           
  2547                           
  2548                           ; 1 bytes @ 0x5
  2549  0075                     	ds	1
  2550  0076                     ??_dd_set_ADF7021_Power_on_test:
  2551  0076                     SetFixedLengthCode@data:	
  2552                           ; 1 bytes @ 0x6
  2553                           
  2554  0076                     dd_write_7021_reg@byte:	
  2555                           ; 1 bytes @ 0x6
  2556                           
  2557  0076                     __ReqBuzzer@BEEP_freq_SET:	
  2558                           ; 1 bytes @ 0x6
  2559                           
  2560                           
  2561                           ; 1 bytes @ 0x6
  2562  0076                     	ds	1
  2563  0077                     ??__ReqBuzzer:
  2564  0077                     dd_write_7021_reg@i:	
  2565                           ; 1 bytes @ 0x7
  2566                           
  2567  0077                     WriteByteToFLASH@Dat:	
  2568                           ; 1 bytes @ 0x7
  2569                           
  2570  0077                     SetFixedLengthCode@code:	
  2571                           ; 1 bytes @ 0x7
  2572                           
  2573                           
  2574                           ; 2 bytes @ 0x7
  2575  0077                     	ds	1
  2576  0078                     ??__SetRegistrationMode:
  2577  0078                     ??_WriteByteToFLASH:	
  2578                           ; 1 bytes @ 0x8
  2579                           
  2580  0078                     ??_KeyOpt_EEPROM_write:	
  2581                           ; 1 bytes @ 0x8
  2582                           
  2583  0078                     dd_write_7021_reg@reg_bytes:	
  2584                           ; 1 bytes @ 0x8
  2585                           
  2586                           
  2587                           ; 1 bytes @ 0x8
  2588  0078                     	ds	1
  2589  0079                     ??_dd_set_ADF7021_Power_on_Init:
  2590  0079                     ??_dd_set_TX_mode:	
  2591                           ; 1 bytes @ 0x9
  2592                           
  2593  0079                     ??_test_mode_control:	
  2594                           ; 1 bytes @ 0x9
  2595                           
  2596  0079                     SetFixedLengthCode@i:	
  2597                           ; 1 bytes @ 0x9
  2598                           
  2599  0079                     __DupliFuncSetMode@m_KeyOpt:	
  2600                           ; 1 bytes @ 0x9
  2601                           
  2602  0079                     __SetRegistrationMode@mode:	
  2603                           ; 1 bytes @ 0x9
  2604                           
  2605                           
  2606                           ; 1 bytes @ 0x9
  2607  0079                     	ds	1
  2608  007A                     ??__Pass3secKey:
  2609  007A                     ??_main:	
  2610                           ; 1 bytes @ 0xA
  2611                           
  2612                           
  2613                           	psect	cstackBANK0
  2614  0051                     __pcstackBANK0:	
  2615                           ; 1 bytes @ 0xA
  2616                           
  2617  0051                     ?_SetTxData:
  2618  0051                     ??__DupliFuncSetMode:	
  2619                           ; 1 bytes @ 0x0
  2620                           
  2621  0051                     ??__FuncReg:	
  2622                           ; 1 bytes @ 0x0
  2623                           
  2624  0051                     ?___lmul:	
  2625                           ; 1 bytes @ 0x0
  2626                           
  2627  0051                     eeprom_sys_load@i:	
  2628                           ; 4 bytes @ 0x0
  2629                           
  2630  0051                     SetTxData@ID_data_set:	
  2631                           ; 1 bytes @ 0x0
  2632                           
  2633  0051                     dd_set_ADF7021_Power_on_Init@register_value:	
  2634                           ; 4 bytes @ 0x0
  2635                           
  2636  0051                     dd_set_TX_mode@register_value:	
  2637                           ; 4 bytes @ 0x0
  2638                           
  2639  0051                     ___lmul@multiplier:	
  2640                           ; 4 bytes @ 0x0
  2641                           
  2642                           
  2643                           ; 4 bytes @ 0x0
  2644  0051                     	ds	4
  2645  0055                     SetTxData@Control_code_set:
  2646  0055                     ___lmul@multiplicand:	
  2647                           ; 1 bytes @ 0x4
  2648                           
  2649                           
  2650                           ; 4 bytes @ 0x4
  2651  0055                     	ds	1
  2652  0056                     ??_SetTxData:
  2653                           
  2654                           ; 1 bytes @ 0x5
  2655  0056                     	ds	1
  2656  0057                     SetTxData@unik:
  2657                           
  2658                           ; 2 bytes @ 0x6
  2659  0057                     	ds	2
  2660  0059                     ?_atol_de:
  2661  0059                     SetTxData@unij:	
  2662                           ; 4 bytes @ 0x8
  2663                           
  2664                           
  2665                           ; 2 bytes @ 0x8
  2666  0059                     	ds	2
  2667  005B                     SetTxData@count_set:
  2668                           
  2669                           ; 1 bytes @ 0xA
  2670  005B                     	ds	1
  2671  005C                     SetTxData@unii:
  2672                           
  2673                           ; 2 bytes @ 0xB
  2674  005C                     	ds	1
  2675  005D                     ??_atol_de:
  2676                           
  2677                           ; 1 bytes @ 0xC
  2678  005D                     	ds	1
  2679  005E                     ??_SendTxData:
  2680                           
  2681                           ; 1 bytes @ 0xD
  2682  005E                     	ds	2
  2683  0060                     SendTxData@i:
  2684                           
  2685                           ; 1 bytes @ 0xF
  2686  0060                     	ds	1
  2687  0061                     SendTxData@def_preamble:
  2688  0061                     atol_de@j:	
  2689                           ; 1 bytes @ 0x10
  2690                           
  2691                           
  2692                           ; 1 bytes @ 0x10
  2693  0061                     	ds	1
  2694  0062                     ?__ReqTxdEdit:
  2695  0062                     __ReqTxdEdit@buzreq:	
  2696                           ; 1 bytes @ 0x11
  2697                           
  2698  0062                     atol_de@m_RegID_x:	
  2699                           ; 1 bytes @ 0x11
  2700                           
  2701                           
  2702                           ; 1 bytes @ 0x11
  2703  0062                     	ds	1
  2704  0063                     ??__ReqTxdEdit:
  2705  0063                     atol_de@m_ID:	
  2706                           ; 1 bytes @ 0x12
  2707                           
  2708                           
  2709                           ; 4 bytes @ 0x12
  2710  0063                     	ds	3
  2711  0066                     __ReqTxdEdit@txreq:
  2712                           
  2713                           ; 1 bytes @ 0x15
  2714  0066                     	ds	1
  2715  0067                     __ReqTxdEdit@time_key:
  2716  0067                     atol_de@i:	
  2717                           ; 1 bytes @ 0x16
  2718                           
  2719                           
  2720                           ; 1 bytes @ 0x16
  2721  0067                     	ds	1
  2722  0068                     ??__RegistrationMode:
  2723  0068                     ??__FuncStop:	
  2724                           ; 1 bytes @ 0x17
  2725                           
  2726  0068                     ??__FuncOpenStop:	
  2727                           ; 1 bytes @ 0x17
  2728                           
  2729  0068                     __Pass3secKey@req:	
  2730                           ; 1 bytes @ 0x17
  2731                           
  2732                           
  2733                           ; 1 bytes @ 0x17
  2734  0068                     	ds	1
  2735  0069                     ??__FuncOpenReg:
  2736  0069                     ??__FuncStopReg:	
  2737                           ; 1 bytes @ 0x18
  2738                           
  2739  0069                     ??__FuncCloseReg:	
  2740                           ; 1 bytes @ 0x18
  2741                           
  2742  0069                     ??__FuncVentReg:	
  2743                           ; 1 bytes @ 0x18
  2744                           
  2745                           
  2746                           ; 1 bytes @ 0x18
  2747  0069                     	ds	1
  2748  006A                     ??__KeyInTx:
  2749                           
  2750                           ; 1 bytes @ 0x19
  2751  006A                     	ds	2
  2752  006C                     __KeyInTx@i:
  2753                           
  2754                           ; 1 bytes @ 0x1B
  2755  006C                     	ds	1
  2756  006D                     ??_key_check:
  2757                           
  2758                           ; 1 bytes @ 0x1C
  2759  006D                     	ds	1
  2760  006E                     main@aaa:
  2761                           
  2762                           ; 2 bytes @ 0x1D
  2763  006E                     	ds	2
  2764                           
  2765                           	psect	maintext
  2766  0E98                     __pmaintext:	
  2767 ;;
  2768 ;;Main: autosize = 0, tempsize = 0, incstack = 0, save=0
  2769 ;;
  2770 ;; *************** function _main *****************
  2771 ;; Defined at:
  2772 ;;		line 62 in file "../Projects/src/main.c"
  2773 ;; Parameters:    Size  Location     Type
  2774 ;;		None
  2775 ;; Auto vars:     Size  Location     Type
  2776 ;;  aaa             2   29[BANK0 ] unsigned int 
  2777 ;; Return value:  Size  Location     Type
  2778 ;;                  1    wreg      void 
  2779 ;; Registers used:
  2780 ;;		wreg, fsr0l, fsr0h, fsr1l, fsr1h, status,2, status,0, pclath, cstack
  2781 ;; Tracked objects:
  2782 ;;		On entry : B1F/0
  2783 ;;		On exit  : 0/0
  2784 ;;		Unchanged: 0/0
  2785 ;; Data sizes:     COMMON   BANK0   BANK1   BANK2   BANK3   BANK4   BANK5   BANK6   BANK7   BANK8   BANK9  BANK10  BANK1
      +1  BANK12
  2786 ;;      Params:         0       0       0       0       0       0       0       0       0       0       0       0       
      +0       0
  2787 ;;      Locals:         0       2       0       0       0       0       0       0       0       0       0       0       
      +0       0
  2788 ;;      Temps:          0       0       0       0       0       0       0       0       0       0       0       0       
      +0       0
  2789 ;;      Totals:         0       2       0       0       0       0       0       0       0       0       0       0       
      +0       0
  2790 ;;Total ram usage:        2 bytes
  2791 ;; Hardware stack levels required when called:   10
  2792 ;; This function calls:
  2793 ;;		_AD_control
  2794 ;;		_ClearWDT
  2795 ;;		_Delayus
  2796 ;;		_EXIT_init
  2797 ;;		_InitialFlashReg
  2798 ;;		_START_AD_SAMPLER
  2799 ;;		_SysClock_Init
  2800 ;;		_TIM4_Init
  2801 ;;		_UART1_INIT
  2802 ;;		_VHF_GPIO_INIT
  2803 ;;		_WDT_init
  2804 ;;		__Init_RAM
  2805 ;;		_eeprom_sys_load
  2806 ;;		_key_check
  2807 ;;		_test_mode_control
  2808 ;;		_time_control
  2809 ;; This function is called by:
  2810 ;;		Startup code after reset
  2811 ;; This function uses a non-reentrant model
  2812 ;;
  2813                           
  2814                           
  2815                           ;psect for function _main
  2816  0E98                     _main:
  2817  0E98                     l6306:	
  2818                           ;incstack = 0
  2819                           ; Regs used in _main: [wreg-fsr1h+status,2+status,0+pclath+cstack]
  2820                           
  2821  0E98                     l6308:
  2822                           
  2823                           ;../Projects/src/main.c: 66: 
  2824  0E98  318A  228D  318E   	fcall	_VHF_GPIO_INIT
  2825  0E9B                     l6310:
  2826                           
  2827                           ;../Projects/src/main.c: 67:   if(TMR2IF==1)
  2828  0E9B  3189  2119  318E   	fcall	_WDT_init
  2829  0E9E                     l6312:
  2830                           
  2831                           ;../Projects/src/main.c: 68:  {
  2832  0E9E  3189  213C  318E   	fcall	_SysClock_Init
  2833  0EA1                     l6314:
  2834                           
  2835                           ;../Projects/src/main.c: 69:      FG_1ms = 1;
  2836  0EA1  3189  214D  318E   	fcall	_EXIT_init
  2837  0EA4                     l6316:
  2838                           
  2839                           ;../Projects/src/main.c: 70:      TMR2IF=0;
  2840  0EA4  3189  2116  318E   	fcall	_InitialFlashReg
  2841  0EA7                     l6318:
  2842                           
  2843                           ;../Projects/src/main.c: 71:  }
  2844  0EA7  318C  2444  318E   	fcall	_eeprom_sys_load
  2845  0EAA                     l6320:
  2846                           
  2847                           ;../Projects/src/main.c: 72:  (INTCONbits.GIE = 1);
  2848  0EAA  318B  2376  318E   	fcall	__Init_RAM
  2849  0EAD                     l6322:
  2850                           
  2851                           ;../Projects/src/main.c: 73: }
  2852  0EAD  3189  2158  318E   	fcall	_TIM4_Init
  2853  0EB0                     l6324:
  2854  0EB0  3189  2117  318E   	fcall	_START_AD_SAMPLER
  2855  0EB3                     l6326:
  2856  0EB3  170B               	bsf	11,6	;volatile
  2857  0EB4                     l6328:
  2858  0EB4  178B               	bsf	11,7	;volatile
  2859  0EB5                     l6330:
  2860  0EB5  0020               	movlb	0	; select bank0
  2861  0EB6  01EE               	clrf	main@aaa
  2862  0EB7  01EF               	clrf	main@aaa+1
  2863  0EB8                     l6336:
  2864  0EB8  3082               	movlw	130
  2865  0EB9  3189  216E  318E   	fcall	_Delayus
  2866  0EBC                     l6338:
  2867  0EBC  3001               	movlw	1
  2868  0EBD  0020               	movlb	0	; select bank0
  2869  0EBE  07EE               	addwf	main@aaa,f
  2870  0EBF  3000               	movlw	0
  2871  0EC0  3DEF               	addwfc	main@aaa+1,f
  2872  0EC1                     l6340:
  2873  0EC1  3003               	movlw	3
  2874  0EC2  026F               	subwf	main@aaa+1,w
  2875  0EC3  30E8               	movlw	232
  2876  0EC4  1903               	skipnz
  2877  0EC5  026E               	subwf	main@aaa,w
  2878  0EC6  1C03               	skipc
  2879  0EC7  2EC9               	goto	u4471
  2880  0EC8  2ECA               	goto	u4470
  2881  0EC9                     u4471:
  2882  0EC9  2EB8               	goto	l6336
  2883  0ECA                     u4470:
  2884  0ECA  2ED3               	goto	l6346
  2885  0ECB                     l912:
  2886  0ECB  178D               	bsf	13,7	;volatile
  2887  0ECC  168D               	bsf	13,5	;volatile
  2888  0ECD                     l6342:
  2889  0ECD  3189  2118  318E   	fcall	_UART1_INIT
  2890  0ED0                     l6344:
  2891  0ED0  318D  2591  318E   	fcall	_test_mode_control
  2892  0ED3                     l6346:
  2893  0ED3  0020               	movlb	0	; select bank0
  2894  0ED4  1D8E               	btfss	14,3	;volatile
  2895  0ED5  2ED7               	goto	u4481
  2896  0ED6  2ED8               	goto	u4480
  2897  0ED7                     u4481:
  2898  0ED7  2ECB               	goto	l912
  2899  0ED8                     u4480:
  2900  0ED8                     l6348:
  2901  0ED8  0021               	movlb	1	; select bank1
  2902  0ED9  01C2               	clrf	_TIME_power_on_AD^(0+128)
  2903  0EDA  01C3               	clrf	(_TIME_power_on_AD+1)^(0+128)
  2904  0EDB                     l6350:
  2905  0EDB  318E  260E  318E   	fcall	_key_check
  2906  0EDE                     l6352:
  2907  0EDE  318A  226D  318E   	fcall	_time_control
  2908  0EE1                     l6354:
  2909  0EE1  318C  2406  318E   	fcall	_AD_control
  2910  0EE4                     l6356:
  2911  0EE4  0020               	movlb	0	; select bank0
  2912  0EE5  0845               	movf	_TB_5s,w
  2913  0EE6  1D03               	btfss	3,2
  2914  0EE7  2EE9               	goto	u4491
  2915  0EE8  2EEA               	goto	u4490
  2916  0EE9                     u4491:
  2917  0EE9  2EDB               	goto	l6350
  2918  0EEA                     u4490:
  2919  0EEA                     l6358:
  2920  0EEA  083A               	movf	_m_KeyOptSetMode,w
  2921  0EEB  1D03               	btfss	3,2
  2922  0EEC  2EEE               	goto	u4501
  2923  0EED  2EEF               	goto	u4500
  2924  0EEE                     u4501:
  2925  0EEE  2EDB               	goto	l6350
  2926  0EEF                     u4500:
  2927  0EEF                     l6360:
  2928  0EEF  033B               	decf	_FG_PWRON,w
  2929  0EF0  1D03               	btfss	3,2
  2930  0EF1  2EF3               	goto	u4511
  2931  0EF2  2EF4               	goto	u4510
  2932  0EF3                     u4511:
  2933  0EF3  2EDB               	goto	l6350
  2934  0EF4                     u4510:
  2935  0EF4                     l6362:
  2936  0EF4  3002               	movlw	2
  2937  0EF5  0021               	movlb	1	; select bank1
  2938  0EF6  0630               	xorwf	_key_Value^(0+128),w
  2939  0EF7  0431               	iorwf	(_key_Value+1)^(0+128),w
  2940  0EF8  1903               	btfsc	3,2
  2941  0EF9  2EFB               	goto	u4521
  2942  0EFA  2EFC               	goto	u4520
  2943  0EFB                     u4521:
  2944  0EFB  2EDB               	goto	l6350
  2945  0EFC                     u4520:
  2946  0EFC                     l6364:
  2947  0EFC  0020               	movlb	0	; select bank0
  2948  0EFD  084F               	movf	_FLAG_APP_TX,w
  2949  0EFE  1D03               	btfss	3,2
  2950  0EFF  2F01               	goto	u4531
  2951  0F00  2F02               	goto	u4530
  2952  0F01                     u4531:
  2953  0F01  2EDB               	goto	l6350
  2954  0F02                     u4530:
  2955  0F02                     l6366:
  2956  0F02  01BB               	clrf	_FG_PWRON
  2957  0F03                     l6368:
  2958  0F03  138D               	bcf	13,7	;volatile
  2959  0F04                     l6370:
  2960  0F04  01BD               	clrf	_FG_10s
  2961  0F05  0ABD               	incf	_FG_10s,f
  2962  0F06                     l6372:
  2963  0F06  0020               	movlb	0	; select bank0
  2964  0F07  0331               	decf	_FG_Complex_Single_shot,w
  2965  0F08  1D03               	btfss	3,2
  2966  0F09  2F0B               	goto	u4541
  2967  0F0A  2F0C               	goto	u4540
  2968  0F0B                     u4541:
  2969  0F0B  2F10               	goto	l6376
  2970  0F0C                     u4540:
  2971  0F0C                     l6374:
  2972  0F0C  3189  211A  318E   	fcall	_ClearWDT
  2973  0F0F  2F06               	goto	l6372
  2974  0F10                     l6376:
  2975  0F10  0831               	movf	_FG_Complex_Single_shot,w
  2976  0F11  1D03               	btfss	3,2
  2977  0F12  2F14               	goto	u4551
  2978  0F13  2F15               	goto	u4550
  2979  0F14                     u4551:
  2980  0F14  2F06               	goto	l6372
  2981  0F15                     u4550:
  2982  0F15                     l6378:
  2983  0F15  0836               	movf	_m_KeyNo,w
  2984  0F16  1903               	btfsc	3,2
  2985  0F17  2F19               	goto	u4561
  2986  0F18  2F1A               	goto	u4560
  2987  0F19                     u4561:
  2988  0F19  2F06               	goto	l6372
  2989  0F1A                     u4560:
  2990  0F1A                     l6380:
  2991  0F1A  3005               	movlw	5
  2992  0F1B  0236               	subwf	_m_KeyNo,w
  2993  0F1C  1803               	skipnc
  2994  0F1D  2F1F               	goto	u4571
  2995  0F1E  2F20               	goto	u4570
  2996  0F1F                     u4571:
  2997  0F1F  2F06               	goto	l6372
  2998  0F20                     u4570:
  2999  0F20                     l6382:
  3000  0F20  318E  260E  318E   	fcall	_key_check
  3001  0F23  2F0C               	goto	l6374
  3002  0F24  3180  281C         	ljmp	start
  3003  0F26                     __end_of_main:
  3004                           
  3005                           	psect	text1
  3006  0A6D                     __ptext1:	
  3007 ;; *************** function _time_control *****************
  3008 ;; Defined at:
  3009 ;;		line 79 in file "../Projects/src/key_and_Other.c"
  3010 ;; Parameters:    Size  Location     Type
  3011 ;;		None
  3012 ;; Auto vars:     Size  Location     Type
  3013 ;;		None
  3014 ;; Return value:  Size  Location     Type
  3015 ;;                  1    wreg      void 
  3016 ;; Registers used:
  3017 ;;		wreg, status,2, status,0
  3018 ;; Tracked objects:
  3019 ;;		On entry : 0/0
  3020 ;;		On exit  : 0/0
  3021 ;;		Unchanged: 0/0
  3022 ;; Data sizes:     COMMON   BANK0   BANK1   BANK2   BANK3   BANK4   BANK5   BANK6   BANK7   BANK8   BANK9  BANK10  BANK1
      +1  BANK12
  3023 ;;      Params:         0       0       0       0       0       0       0       0       0       0       0       0       
      +0       0
  3024 ;;      Locals:         0       0       0       0       0       0       0       0       0       0       0       0       
      +0       0
  3025 ;;      Temps:          0       0       0       0       0       0       0       0       0       0       0       0       
      +0       0
  3026 ;;      Totals:         0       0       0       0       0       0       0       0       0       0       0       0       
      +0       0
  3027 ;;Total ram usage:        0 bytes
  3028 ;; Hardware stack levels used:    1
  3029 ;; Hardware stack levels required when called:    2
  3030 ;; This function calls:
  3031 ;;		Nothing
  3032 ;; This function is called by:
  3033 ;;		_main
  3034 ;; This function uses a non-reentrant model
  3035 ;;
  3036                           
  3037                           
  3038                           ;psect for function _time_control
  3039  0A6D                     _time_control:
  3040  0A6D                     l4540:	
  3041                           ;incstack = 0
  3042                           ; Regs used in _time_control: [wreg+status,2+status,0]
  3043                           
  3044                           
  3045                           ;../Projects/src/key_and_Other.c: 81:   if(FG_100ms){
  3046  0A6D  0020               	movlb	0	; select bank0
  3047  0A6E  083F               	movf	_FG_100ms,w
  3048  0A6F  1903               	btfsc	3,2
  3049  0A70  2A72               	goto	u2271
  3050  0A71  2A73               	goto	u2270
  3051  0A72                     u2271:
  3052  0A72  2A8C               	goto	l532
  3053  0A73                     u2270:
  3054  0A73                     l4542:
  3055                           
  3056                           ;../Projects/src/key_and_Other.c: 82:     FG_100ms=0;
  3057  0A73  01BF               	clrf	_FG_100ms
  3058  0A74                     l4544:
  3059                           
  3060                           ;../Projects/src/key_and_Other.c: 83:     if(TIME_2s_RestTX)--TIME_2s_RestTX;
  3061  0A74  083C               	movf	_TIME_2s_RestTX,w
  3062  0A75  1903               	btfsc	3,2
  3063  0A76  2A78               	goto	u2281
  3064  0A77  2A79               	goto	u2280
  3065  0A78                     u2281:
  3066  0A78  2A7B               	goto	l529
  3067  0A79                     u2280:
  3068  0A79                     l4546:
  3069  0A79  3001               	movlw	1
  3070  0A7A  02BC               	subwf	_TIME_2s_RestTX,f
  3071  0A7B                     l529:
  3072                           
  3073                           ;../Projects/src/key_and_Other.c: 84:     if(FG_PWRON==1){
  3074  0A7B  033B               	decf	_FG_PWRON,w
  3075  0A7C  1D03               	btfss	3,2
  3076  0A7D  2A7F               	goto	u2291
  3077  0A7E  2A80               	goto	u2290
  3078  0A7F                     u2291:
  3079  0A7F  2A8C               	goto	l532
  3080  0A80                     u2290:
  3081  0A80                     l4548:
  3082                           
  3083                           ;../Projects/src/key_and_Other.c: 85:     if ((TB_5s)&&(m_KeyOptSetMode==0)) --TB_5s;
  3084  0A80  0845               	movf	_TB_5s,w
  3085  0A81  1903               	btfsc	3,2
  3086  0A82  2A84               	goto	u2301
  3087  0A83  2A85               	goto	u2300
  3088  0A84                     u2301:
  3089  0A84  2A8C               	goto	l532
  3090  0A85                     u2300:
  3091  0A85                     l4550:
  3092  0A85  083A               	movf	_m_KeyOptSetMode,w
  3093  0A86  1D03               	btfss	3,2
  3094  0A87  2A89               	goto	u2311
  3095  0A88  2A8A               	goto	u2310
  3096  0A89                     u2311:
  3097  0A89  2A8C               	goto	l532
  3098  0A8A                     u2310:
  3099  0A8A                     l4552:
  3100  0A8A  3001               	movlw	1
  3101  0A8B  02C5               	subwf	_TB_5s,f
  3102  0A8C                     l532:
  3103  0A8C  0008               	return
  3104  0A8D                     __end_of_time_control:
  3105                           
  3106                           	psect	text2
  3107  0D91                     __ptext2:	
  3108 ;; *************** function _test_mode_control *****************
  3109 ;; Defined at:
  3110 ;;		line 1328 in file "../Projects/src/key_and_Other.c"
  3111 ;; Parameters:    Size  Location     Type
  3112 ;;		None
  3113 ;; Auto vars:     Size  Location     Type
  3114 ;;		None
  3115 ;; Return value:  Size  Location     Type
  3116 ;;                  1    wreg      void 
  3117 ;; Registers used:
  3118 ;;		wreg, fsr1l, fsr1h, status,2, status,0, pclath, cstack
  3119 ;; Tracked objects:
  3120 ;;		On entry : 0/0
  3121 ;;		On exit  : 0/0
  3122 ;;		Unchanged: 0/0
  3123 ;; Data sizes:     COMMON   BANK0   BANK1   BANK2   BANK3   BANK4   BANK5   BANK6   BANK7   BANK8   BANK9  BANK10  BANK1
      +1  BANK12
  3124 ;;      Params:         0       0       0       0       0       0       0       0       0       0       0       0       
      +0       0
  3125 ;;      Locals:         0       0       0       0       0       0       0       0       0       0       0       0       
      +0       0
  3126 ;;      Temps:          0       0       0       0       0       0       0       0       0       0       0       0       
      +0       0
  3127 ;;      Totals:         0       0       0       0       0       0       0       0       0       0       0       0       
      +0       0
  3128 ;;Total ram usage:        0 bytes
  3129 ;; Hardware stack levels used:    1
  3130 ;; Hardware stack levels required when called:    4
  3131 ;; This function calls:
  3132 ;;		_ClearWDT
  3133 ;;		_UART1_end
  3134 ;;		_dd_set_ADF7021_Power_on_test
  3135 ;;		_dd_set_TX_mode
  3136 ;; This function is called by:
  3137 ;;		_main
  3138 ;; This function uses a non-reentrant model
  3139 ;;
  3140                           
  3141                           
  3142                           ;psect for function _test_mode_control
  3143  0D91                     _test_mode_control:
  3144  0D91                     l6212:	
  3145                           ;incstack = 0
  3146                           ; Regs used in _test_mode_control: [wreg+fsr1l+fsr1h+status,2+status,0+pclath+cstack]
  3147                           
  3148                           
  3149                           ;../Projects/src/key_and_Other.c: 1331:  while(RC3==0){
  3150  0D91  2DFE               	goto	l6276
  3151  0D92                     l6214:
  3152                           
  3153                           ;../Projects/src/key_and_Other.c: 1332:   ClearWDT();
  3154  0D92  3189  211A  318D   	fcall	_ClearWDT
  3155  0D95                     l6216:
  3156                           
  3157                           ;../Projects/src/key_and_Other.c: 1336:   if((RB4==0)&&(FG_KEY_OPEN==0)){
  3158  0D95  0020               	movlb	0	; select bank0
  3159  0D96  1A0D               	btfsc	13,4	;volatile
  3160  0D97  2D99               	goto	u4321
  3161  0D98  2D9A               	goto	u4320
  3162  0D99                     u4321:
  3163  0D99  2DA8               	goto	l6228
  3164  0D9A                     u4320:
  3165  0D9A                     l6218:
  3166  0D9A  0828               	movf	_FG_KEY_OPEN,w
  3167  0D9B  1D03               	btfss	3,2
  3168  0D9C  2D9E               	goto	u4331
  3169  0D9D  2D9F               	goto	u4330
  3170  0D9E                     u4331:
  3171  0D9E  2DA8               	goto	l6228
  3172  0D9F                     u4330:
  3173  0D9F                     l6220:
  3174                           
  3175                           ;../Projects/src/key_and_Other.c: 1337:     FG_KEY_OPEN=1;
  3176  0D9F  01A8               	clrf	_FG_KEY_OPEN
  3177  0DA0  0AA8               	incf	_FG_KEY_OPEN,f
  3178                           
  3179                           ;../Projects/src/key_and_Other.c: 1339:     RC2 =1;
  3180  0DA1  150E               	bsf	14,2	;volatile
  3181  0DA2                     l6222:
  3182                           
  3183                           ;../Projects/src/key_and_Other.c: 1340:     dd_set_TX_mode();
  3184  0DA2  3187  27A8  318D   	fcall	_dd_set_TX_mode
  3185  0DA5                     l6224:
  3186                           
  3187                           ;../Projects/src/key_and_Other.c: 1341:     FG_test_mode=0;
  3188  0DA5  0020               	movlb	0	; select bank0
  3189  0DA6  01A7               	clrf	_FG_test_mode
  3190  0DA7                     l6226:
  3191                           
  3192                           ;../Projects/src/key_and_Other.c: 1342:     RC0=0;
  3193  0DA7  100E               	bcf	14,0	;volatile
  3194  0DA8                     l6228:
  3195                           
  3196                           ;../Projects/src/key_and_Other.c: 1344:   if(RB4==1)FG_KEY_OPEN=0;
  3197  0DA8  1E0D               	btfss	13,4	;volatile
  3198  0DA9  2DAB               	goto	u4341
  3199  0DAA  2DAC               	goto	u4340
  3200  0DAB                     u4341:
  3201  0DAB  2DAD               	goto	l6232
  3202  0DAC                     u4340:
  3203  0DAC                     l6230:
  3204  0DAC  01A8               	clrf	_FG_KEY_OPEN
  3205  0DAD                     l6232:
  3206                           
  3207                           ;../Projects/src/key_and_Other.c: 1346:    if((RC4==0)&&(FG_KEY_STOP==0)){
  3208  0DAD  1A0E               	btfsc	14,4	;volatile
  3209  0DAE  2DB0               	goto	u4351
  3210  0DAF  2DB1               	goto	u4350
  3211  0DB0                     u4351:
  3212  0DB0  2DBD               	goto	l6242
  3213  0DB1                     u4350:
  3214  0DB1                     l6234:
  3215  0DB1  0021               	movlb	1	; select bank1
  3216  0DB2  0856               	movf	_FG_KEY_STOP^(0+128),w
  3217  0DB3  1D03               	btfss	3,2
  3218  0DB4  2DB6               	goto	u4361
  3219  0DB5  2DB7               	goto	u4360
  3220  0DB6                     u4361:
  3221  0DB6  2DBD               	goto	l6242
  3222  0DB7                     u4360:
  3223  0DB7                     l6236:
  3224                           
  3225                           ;../Projects/src/key_and_Other.c: 1347:     FG_KEY_STOP=1;
  3226  0DB7  01D6               	clrf	_FG_KEY_STOP^(0+128)
  3227  0DB8  0AD6               	incf	_FG_KEY_STOP^(0+128),f
  3228                           
  3229                           ;../Projects/src/key_and_Other.c: 1349:     RC2=0;
  3230  0DB9  0020               	movlb	0	; select bank0
  3231  0DBA  110E               	bcf	14,2	;volatile
  3232  0DBB                     l6238:
  3233                           
  3234                           ;../Projects/src/key_and_Other.c: 1350:     FG_test_mode=0;
  3235  0DBB  01A7               	clrf	_FG_test_mode
  3236  0DBC                     l6240:
  3237                           
  3238                           ;../Projects/src/key_and_Other.c: 1351:     RC0=0;
  3239  0DBC  100E               	bcf	14,0	;volatile
  3240  0DBD                     l6242:
  3241                           
  3242                           ;../Projects/src/key_and_Other.c: 1353:   if(RC4==1)FG_KEY_STOP=0;
  3243  0DBD  0020               	movlb	0	; select bank0
  3244  0DBE  1E0E               	btfss	14,4	;volatile
  3245  0DBF  2DC1               	goto	u4371
  3246  0DC0  2DC2               	goto	u4370
  3247  0DC1                     u4371:
  3248  0DC1  2DC4               	goto	l6246
  3249  0DC2                     u4370:
  3250  0DC2                     l6244:
  3251  0DC2  0021               	movlb	1	; select bank1
  3252  0DC3  01D6               	clrf	_FG_KEY_STOP^(0+128)
  3253  0DC4                     l6246:
  3254                           
  3255                           ;../Projects/src/key_and_Other.c: 1355:   if((RA4==0)&&(FG_KEY_CLOSE==0)){
  3256  0DC4  0020               	movlb	0	; select bank0
  3257  0DC5  1A0C               	btfsc	12,4	;volatile
  3258  0DC6  2DC8               	goto	u4381
  3259  0DC7  2DC9               	goto	u4380
  3260  0DC8                     u4381:
  3261  0DC8  2DDA               	goto	l6258
  3262  0DC9                     u4380:
  3263  0DC9                     l6248:
  3264  0DC9  0021               	movlb	1	; select bank1
  3265  0DCA  0855               	movf	_FG_KEY_CLOSE^(0+128),w
  3266  0DCB  1D03               	btfss	3,2
  3267  0DCC  2DCE               	goto	u4391
  3268  0DCD  2DCF               	goto	u4390
  3269  0DCE                     u4391:
  3270  0DCE  2DDA               	goto	l6258
  3271  0DCF                     u4390:
  3272  0DCF                     l6250:
  3273                           
  3274                           ;../Projects/src/key_and_Other.c: 1356:     FG_KEY_CLOSE=1;
  3275  0DCF  01D5               	clrf	_FG_KEY_CLOSE^(0+128)
  3276  0DD0  0AD5               	incf	_FG_KEY_CLOSE^(0+128),f
  3277  0DD1                     l6252:
  3278                           
  3279                           ;../Projects/src/key_and_Other.c: 1357:     dd_set_ADF7021_Power_on_test();
  3280  0DD1  318A  2214  318D   	fcall	_dd_set_ADF7021_Power_on_test
  3281  0DD4                     l6254:
  3282                           
  3283                           ;../Projects/src/key_and_Other.c: 1358:     dd_set_TX_mode();
  3284  0DD4  3187  27A8  318D   	fcall	_dd_set_TX_mode
  3285  0DD7                     l6256:
  3286                           
  3287                           ;../Projects/src/key_and_Other.c: 1359:     FG_test_mode=1;
  3288  0DD7  0020               	movlb	0	; select bank0
  3289  0DD8  01A7               	clrf	_FG_test_mode
  3290  0DD9  0AA7               	incf	_FG_test_mode,f
  3291  0DDA                     l6258:
  3292                           
  3293                           ;../Projects/src/key_and_Other.c: 1361:   if(RA4==1)FG_KEY_CLOSE=0;
  3294  0DDA  0020               	movlb	0	; select bank0
  3295  0DDB  1E0C               	btfss	12,4	;volatile
  3296  0DDC  2DDE               	goto	u4401
  3297  0DDD  2DDF               	goto	u4400
  3298  0DDE                     u4401:
  3299  0DDE  2DE1               	goto	l6262
  3300  0DDF                     u4400:
  3301  0DDF                     l6260:
  3302  0DDF  0021               	movlb	1	; select bank1
  3303  0DE0  01D5               	clrf	_FG_KEY_CLOSE^(0+128)
  3304  0DE1                     l6262:
  3305                           
  3306                           ;../Projects/src/key_and_Other.c: 1364:   if((RA2==1)&&(FG_test_mode==1)&&(FG_test1==0))
      +                          {
  3307  0DE1  0020               	movlb	0	; select bank0
  3308  0DE2  1D0C               	btfss	12,2	;volatile
  3309  0DE3  2DE5               	goto	u4411
  3310  0DE4  2DE6               	goto	u4410
  3311  0DE5                     u4411:
  3312  0DE5  2DF7               	goto	l6272
  3313  0DE6                     u4410:
  3314  0DE6                     l6264:
  3315  0DE6  0327               	decf	_FG_test_mode,w
  3316  0DE7  1D03               	btfss	3,2
  3317  0DE8  2DEA               	goto	u4421
  3318  0DE9  2DEB               	goto	u4420
  3319  0DEA                     u4421:
  3320  0DEA  2DF7               	goto	l6272
  3321  0DEB                     u4420:
  3322  0DEB                     l6266:
  3323  0DEB  0021               	movlb	1	; select bank1
  3324  0DEC  0854               	movf	_FG_test1^(0+128),w
  3325  0DED  1D03               	btfss	3,2
  3326  0DEE  2DF0               	goto	u4431
  3327  0DEF  2DF1               	goto	u4430
  3328  0DF0                     u4431:
  3329  0DF0  2DF7               	goto	l6272
  3330  0DF1                     u4430:
  3331  0DF1                     l6268:
  3332                           
  3333                           ;../Projects/src/key_and_Other.c: 1365:      RC0=!RC0;
  3334  0DF1  3001               	movlw	1
  3335  0DF2  0020               	movlb	0	; select bank0
  3336  0DF3  068E               	xorwf	14,f
  3337  0DF4                     l6270:
  3338                           
  3339                           ;../Projects/src/key_and_Other.c: 1366:      FG_test1=1;
  3340  0DF4  0021               	movlb	1	; select bank1
  3341  0DF5  01D4               	clrf	_FG_test1^(0+128)
  3342  0DF6  0AD4               	incf	_FG_test1^(0+128),f
  3343  0DF7                     l6272:
  3344                           
  3345                           ;../Projects/src/key_and_Other.c: 1368:   if(RA2==0)FG_test1=0;
  3346  0DF7  0020               	movlb	0	; select bank0
  3347  0DF8  190C               	btfsc	12,2	;volatile
  3348  0DF9  2DFB               	goto	u4441
  3349  0DFA  2DFC               	goto	u4440
  3350  0DFB                     u4441:
  3351  0DFB  2DFE               	goto	l6276
  3352  0DFC                     u4440:
  3353  0DFC                     l6274:
  3354  0DFC  0021               	movlb	1	; select bank1
  3355  0DFD  01D4               	clrf	_FG_test1^(0+128)
  3356  0DFE                     l6276:
  3357                           
  3358                           ;../Projects/src/key_and_Other.c: 1331:  while(RC3==0){
  3359  0DFE  0020               	movlb	0	; select bank0
  3360  0DFF  1D8E               	btfss	14,3	;volatile
  3361  0E00  2E02               	goto	u4451
  3362  0E01  2E03               	goto	u4450
  3363  0E02                     u4451:
  3364  0E02  2D92               	goto	l6214
  3365  0E03                     u4450:
  3366  0E03                     l6278:
  3367                           
  3368                           ;../Projects/src/key_and_Other.c: 1373:   UART1_end();
  3369  0E03  3180  2003  318D   	fcall	_UART1_end
  3370  0E06                     l6280:
  3371                           
  3372                           ;../Projects/src/key_and_Other.c: 1374:   RB7=0;
  3373  0E06  0020               	movlb	0	; select bank0
  3374  0E07  138D               	bcf	13,7	;volatile
  3375  0E08                     l6282:
  3376                           
  3377                           ;../Projects/src/key_and_Other.c: 1375:   RB5=0;
  3378  0E08  128D               	bcf	13,5	;volatile
  3379  0E09                     l6284:
  3380                           
  3381                           ;../Projects/src/key_and_Other.c: 1376:   FG_KEY_OPEN=0;
  3382  0E09  01A8               	clrf	_FG_KEY_OPEN
  3383  0E0A                     l6286:
  3384                           
  3385                           ;../Projects/src/key_and_Other.c: 1377:   FG_KEY_STOP=0;
  3386  0E0A  0021               	movlb	1	; select bank1
  3387  0E0B  01D6               	clrf	_FG_KEY_STOP^(0+128)
  3388  0E0C                     l6288:
  3389                           
  3390                           ;../Projects/src/key_and_Other.c: 1378:   FG_KEY_CLOSE=0;
  3391  0E0C  01D5               	clrf	_FG_KEY_CLOSE^(0+128)
  3392  0E0D                     l832:
  3393  0E0D  0008               	return
  3394  0E0E                     __end_of_test_mode_control:
  3395                           
  3396                           	psect	text3
  3397  0A14                     __ptext3:	
  3398 ;; *************** function _dd_set_ADF7021_Power_on_test *****************
  3399 ;; Defined at:
  3400 ;;		line 98 in file "../Projects/src/adf7012.c"
  3401 ;; Parameters:    Size  Location     Type
  3402 ;;		None
  3403 ;; Auto vars:     Size  Location     Type
  3404 ;;		None
  3405 ;; Return value:  Size  Location     Type
  3406 ;;                  1    wreg      void 
  3407 ;; Registers used:
  3408 ;;		wreg, status,2, status,0, pclath, cstack
  3409 ;; Tracked objects:
  3410 ;;		On entry : 0/0
  3411 ;;		On exit  : 0/0
  3412 ;;		Unchanged: 0/0
  3413 ;; Data sizes:     COMMON   BANK0   BANK1   BANK2   BANK3   BANK4   BANK5   BANK6   BANK7   BANK8   BANK9  BANK10  BANK1
      +1  BANK12
  3414 ;;      Params:         0       0       0       0       0       0       0       0       0       0       0       0       
      +0       0
  3415 ;;      Locals:         0       0       0       0       0       0       0       0       0       0       0       0       
      +0       0
  3416 ;;      Temps:          0       0       0       0       0       0       0       0       0       0       0       0       
      +0       0
  3417 ;;      Totals:         0       0       0       0       0       0       0       0       0       0       0       0       
      +0       0
  3418 ;;Total ram usage:        0 bytes
  3419 ;; Hardware stack levels used:    1
  3420 ;; Hardware stack levels required when called:    3
  3421 ;; This function calls:
  3422 ;;		_Delayus
  3423 ;; This function is called by:
  3424 ;;		_test_mode_control
  3425 ;; This function uses a non-reentrant model
  3426 ;;
  3427                           
  3428                           
  3429                           ;psect for function _dd_set_ADF7021_Power_on_test
  3430  0A14                     _dd_set_ADF7021_Power_on_test:
  3431  0A14                     l5688:	
  3432                           ;incstack = 0
  3433                           ; Regs used in _dd_set_ADF7021_Power_on_test: [wreg+status,2+status,0+pclath+cstack]
  3434                           
  3435                           
  3436                           ;../Projects/src/adf7012.c: 103:  if (RC2 == 0)
  3437  0A14  0020               	movlb	0	; select bank0
  3438  0A15  190E               	btfsc	14,2	;volatile
  3439  0A16  2A18               	goto	u3481
  3440  0A17  2A19               	goto	u3480
  3441  0A18                     u3481:
  3442  0A18  2A2E               	goto	l163
  3443  0A19                     u3480:
  3444  0A19                     l5690:
  3445                           
  3446                           ;../Projects/src/adf7012.c: 104:  {;../Projects/src/adf7012.c: 105:   RC2 = 1;
  3447  0A19  150E               	bsf	14,2	;volatile
  3448  0A1A                     l5692:
  3449                           
  3450                           ;../Projects/src/adf7012.c: 108:                  Delayus(130);
  3451  0A1A  3082               	movlw	130
  3452  0A1B  3189  216E  318A   	fcall	_Delayus
  3453                           
  3454                           ;../Projects/src/adf7012.c: 109:    Delayus(130);
  3455  0A1E  3082               	movlw	130
  3456  0A1F  3189  216E  318A   	fcall	_Delayus
  3457                           
  3458                           ;../Projects/src/adf7012.c: 110:    Delayus(130);
  3459  0A22  3082               	movlw	130
  3460  0A23  3189  216E  318A   	fcall	_Delayus
  3461                           
  3462                           ;../Projects/src/adf7012.c: 111:    Delayus(130);
  3463  0A26  3082               	movlw	130
  3464  0A27  3189  216E  318A   	fcall	_Delayus
  3465                           
  3466                           ;../Projects/src/adf7012.c: 112:    Delayus(130);
  3467  0A2A  3082               	movlw	130
  3468  0A2B  3189  216E  318A   	fcall	_Delayus
  3469  0A2E                     l163:
  3470  0A2E  0008               	return
  3471  0A2F                     __end_of_dd_set_ADF7021_Power_on_test:
  3472                           
  3473                           	psect	text4
  3474  0003                     __ptext4:	
  3475 ;; *************** function _UART1_end *****************
  3476 ;; Defined at:
  3477 ;;		line 25 in file "../Projects/src/uart.c"
  3478 ;; Parameters:    Size  Location     Type
  3479 ;;		None
  3480 ;; Auto vars:     Size  Location     Type
  3481 ;;		None
  3482 ;; Return value:  Size  Location     Type
  3483 ;;                  1    wreg      void 
  3484 ;; Registers used:
  3485 ;;		None
  3486 ;; Tracked objects:
  3487 ;;		On entry : 0/0
  3488 ;;		On exit  : 0/0
  3489 ;;		Unchanged: 0/0
  3490 ;; Data sizes:     COMMON   BANK0   BANK1   BANK2   BANK3   BANK4   BANK5   BANK6   BANK7   BANK8   BANK9  BANK10  BANK1
      +1  BANK12
  3491 ;;      Params:         0       0       0       0       0       0       0       0       0       0       0       0       
      +0       0
  3492 ;;      Locals:         0       0       0       0       0       0       0       0       0       0       0       0       
      +0       0
  3493 ;;      Temps:          0       0       0       0       0       0       0       0       0       0       0       0       
      +0       0
  3494 ;;      Totals:         0       0       0       0       0       0       0       0       0       0       0       0       
      +0       0
  3495 ;;Total ram usage:        0 bytes
  3496 ;; Hardware stack levels used:    1
  3497 ;; Hardware stack levels required when called:    2
  3498 ;; This function calls:
  3499 ;;		Nothing
  3500 ;; This function is called by:
  3501 ;;		_test_mode_control
  3502 ;; This function uses a non-reentrant model
  3503 ;;
  3504                           
  3505                           
  3506                           ;psect for function _UART1_end
  3507  0003                     _UART1_end:
  3508  0003                     l1141:	
  3509                           ;incstack = 0
  3510                           ; Regs used in _UART1_end: []
  3511                           
  3512  0003  0008               	return
  3513  0004                     __end_of_UART1_end:
  3514                           
  3515                           	psect	text5
  3516  0E0E                     __ptext5:	
  3517 ;; *************** function _key_check *****************
  3518 ;; Defined at:
  3519 ;;		line 22 in file "../Projects/src/key_and_Other.c"
  3520 ;; Parameters:    Size  Location     Type
  3521 ;;		None
  3522 ;; Auto vars:     Size  Location     Type
  3523 ;;		None
  3524 ;; Return value:  Size  Location     Type
  3525 ;;                  1    wreg      void 
  3526 ;; Registers used:
  3527 ;;		wreg, fsr0l, fsr0h, fsr1l, fsr1h, status,2, status,0, pclath, cstack
  3528 ;; Tracked objects:
  3529 ;;		On entry : 0/0
  3530 ;;		On exit  : 0/0
  3531 ;;		Unchanged: 0/0
  3532 ;; Data sizes:     COMMON   BANK0   BANK1   BANK2   BANK3   BANK4   BANK5   BANK6   BANK7   BANK8   BANK9  BANK10  BANK1
      +1  BANK12
  3533 ;;      Params:         0       0       0       0       0       0       0       0       0       0       0       0       
      +0       0
  3534 ;;      Locals:         0       0       0       0       0       0       0       0       0       0       0       0       
      +0       0
  3535 ;;      Temps:          0       1       0       0       0       0       0       0       0       0       0       0       
      +0       0
  3536 ;;      Totals:         0       1       0       0       0       0       0       0       0       0       0       0       
      +0       0
  3537 ;;Total ram usage:        1 bytes
  3538 ;; Hardware stack levels used:    1
  3539 ;; Hardware stack levels required when called:    9
  3540 ;; This function calls:
  3541 ;;		_ClearWDT
  3542 ;;		__DupliFuncSetMode
  3543 ;;		__KeyInTx
  3544 ;;		__RegistrationMode
  3545 ;; This function is called by:
  3546 ;;		_main
  3547 ;; This function uses a non-reentrant model
  3548 ;;
  3549                           
  3550                           
  3551                           ;psect for function _key_check
  3552  0E0E                     _key_check:
  3553  0E0E                     l6154:	
  3554                           ;incstack = 0
  3555                           ; Regs used in _key_check: [wreg-fsr1h+status,2+status,0+pclath+cstack]
  3556                           
  3557                           
  3558                           ;../Projects/src/key_and_Other.c: 24:    if(FG_1ms){
  3559  0E0E  0020               	movlb	0	; select bank0
  3560  0E0F  084A               	movf	_FG_1ms,w
  3561  0E10  1903               	btfsc	3,2
  3562  0E11  2E13               	goto	u4201
  3563  0E12  2E14               	goto	u4200
  3564  0E13                     u4201:
  3565  0E13  2E97               	goto	l525
  3566  0E14                     u4200:
  3567  0E14                     l6156:
  3568                           
  3569                           ;../Projects/src/key_and_Other.c: 25:     FG_1ms=0;
  3570  0E14  01CA               	clrf	_FG_1ms
  3571  0E15                     l6158:
  3572                           
  3573                           ;../Projects/src/key_and_Other.c: 27:   if (TB_100ms) --TB_100ms;
  3574  0E15  0847               	movf	_TB_100ms,w
  3575  0E16  1903               	btfsc	3,2
  3576  0E17  2E19               	goto	u4211
  3577  0E18  2E1A               	goto	u4210
  3578  0E19                     u4211:
  3579  0E19  2E1D               	goto	l6162
  3580  0E1A                     u4210:
  3581  0E1A                     l6160:
  3582  0E1A  3001               	movlw	1
  3583  0E1B  02C7               	subwf	_TB_100ms,f
  3584  0E1C  2E23               	goto	l6166
  3585  0E1D                     l6162:
  3586                           
  3587                           ;../Projects/src/key_and_Other.c: 29:    TB_100ms = 100;
  3588  0E1D  3064               	movlw	100
  3589  0E1E  00ED               	movwf	??_key_check
  3590  0E1F  086D               	movf	??_key_check,w
  3591  0E20  00C7               	movwf	_TB_100ms
  3592  0E21                     l6164:
  3593                           
  3594                           ;../Projects/src/key_and_Other.c: 30:    FG_100ms = 1;
  3595  0E21  01BF               	clrf	_FG_100ms
  3596  0E22  0ABF               	incf	_FG_100ms,f
  3597  0E23                     l6166:
  3598                           
  3599                           ;../Projects/src/key_and_Other.c: 33:     if(TIME_power_on_AD)TIME_power_on_AD--;
  3600  0E23  0021               	movlb	1	; select bank1
  3601  0E24  0842               	movf	_TIME_power_on_AD^(0+128),w
  3602  0E25  0443               	iorwf	(_TIME_power_on_AD+1)^(0+128),w
  3603  0E26  1903               	btfsc	3,2
  3604  0E27  2E29               	goto	u4221
  3605  0E28  2E2A               	goto	u4220
  3606  0E29                     u4221:
  3607  0E29  2E2E               	goto	l6170
  3608  0E2A                     u4220:
  3609  0E2A                     l6168:
  3610  0E2A  3001               	movlw	1
  3611  0E2B  02C2               	subwf	_TIME_power_on_AD^(0+128),f
  3612  0E2C  3000               	movlw	0
  3613  0E2D  3BC3               	subwfb	(_TIME_power_on_AD+1)^(0+128),f
  3614  0E2E                     l6170:
  3615                           
  3616                           ;../Projects/src/key_and_Other.c: 34:     if(m_TimerRegMode)--m_TimerRegMode;
  3617  0E2E  083E               	movf	_m_TimerRegMode^(0+128),w
  3618  0E2F  043F               	iorwf	(_m_TimerRegMode+1)^(0+128),w
  3619  0E30  1903               	btfsc	3,2
  3620  0E31  2E33               	goto	u4231
  3621  0E32  2E34               	goto	u4230
  3622  0E33                     u4231:
  3623  0E33  2E38               	goto	l6174
  3624  0E34                     u4230:
  3625  0E34                     l6172:
  3626  0E34  3001               	movlw	1
  3627  0E35  02BE               	subwf	_m_TimerRegMode^(0+128),f
  3628  0E36  3000               	movlw	0
  3629  0E37  3BBF               	subwfb	(_m_TimerRegMode+1)^(0+128),f
  3630  0E38                     l6174:
  3631                           
  3632                           ;../Projects/src/key_and_Other.c: 35:     if(m_KeyDupliSetTimeout)--m_KeyDupliSetTimeout
      +                          ;
  3633  0E38  0020               	movlb	0	; select bank0
  3634  0E39  0822               	movf	_m_KeyDupliSetTimeout,w
  3635  0E3A  0423               	iorwf	_m_KeyDupliSetTimeout+1,w
  3636  0E3B  1903               	btfsc	3,2
  3637  0E3C  2E3E               	goto	u4241
  3638  0E3D  2E3F               	goto	u4240
  3639  0E3E                     u4241:
  3640  0E3E  2E43               	goto	l6178
  3641  0E3F                     u4240:
  3642  0E3F                     l6176:
  3643  0E3F  3001               	movlw	1
  3644  0E40  02A2               	subwf	_m_KeyDupliSetTimeout,f
  3645  0E41  3000               	movlw	0
  3646  0E42  3BA3               	subwfb	_m_KeyDupliSetTimeout+1,f
  3647  0E43                     l6178:
  3648                           
  3649                           ;../Projects/src/key_and_Other.c: 36:     if(m_TimerKeyMonitor)--m_TimerKeyMonitor;
  3650  0E43  0021               	movlb	1	; select bank1
  3651  0E44  0840               	movf	_m_TimerKeyMonitor^(0+128),w
  3652  0E45  0441               	iorwf	(_m_TimerKeyMonitor+1)^(0+128),w
  3653  0E46  1903               	btfsc	3,2
  3654  0E47  2E49               	goto	u4251
  3655  0E48  2E4A               	goto	u4250
  3656  0E49                     u4251:
  3657  0E49  2E4E               	goto	l6182
  3658  0E4A                     u4250:
  3659  0E4A                     l6180:
  3660  0E4A  3001               	movlw	1
  3661  0E4B  02C0               	subwf	_m_TimerKeyMonitor^(0+128),f
  3662  0E4C  3000               	movlw	0
  3663  0E4D  3BC1               	subwfb	(_m_TimerKeyMonitor+1)^(0+128),f
  3664  0E4E                     l6182:
  3665                           
  3666                           ;../Projects/src/key_and_Other.c: 37:     if(m_KeyDupli1stTimer)--m_KeyDupli1stTimer;
  3667  0E4E  0020               	movlb	0	; select bank0
  3668  0E4F  0820               	movf	_m_KeyDupli1stTimer,w
  3669  0E50  0421               	iorwf	_m_KeyDupli1stTimer+1,w
  3670  0E51  1903               	btfsc	3,2
  3671  0E52  2E54               	goto	u4261
  3672  0E53  2E55               	goto	u4260
  3673  0E54                     u4261:
  3674  0E54  2E5A               	goto	l6186
  3675  0E55                     u4260:
  3676  0E55                     l6184:
  3677  0E55  3001               	movlw	1
  3678  0E56  02A0               	subwf	_m_KeyDupli1stTimer,f
  3679  0E57  3000               	movlw	0
  3680  0E58  3BA1               	subwfb	_m_KeyDupli1stTimer+1,f
  3681  0E59  2E5B               	goto	l6188
  3682  0E5A                     l6186:
  3683  0E5A  01BE               	clrf	_FG_d_StopKey
  3684  0E5B                     l6188:
  3685                           
  3686                           ;../Projects/src/key_and_Other.c: 39:     if ( FG_d_StopKey &&m_KeyDupli1stTimer){
  3687  0E5B  083E               	movf	_FG_d_StopKey,w
  3688  0E5C  1903               	btfsc	3,2
  3689  0E5D  2E5F               	goto	u4271
  3690  0E5E  2E60               	goto	u4270
  3691  0E5F                     u4271:
  3692  0E5F  2E79               	goto	l6198
  3693  0E60                     u4270:
  3694  0E60                     l6190:
  3695  0E60  0820               	movf	_m_KeyDupli1stTimer,w
  3696  0E61  0421               	iorwf	_m_KeyDupli1stTimer+1,w
  3697  0E62  1903               	btfsc	3,2
  3698  0E63  2E65               	goto	u4281
  3699  0E64  2E66               	goto	u4280
  3700  0E65                     u4281:
  3701  0E65  2E79               	goto	l6198
  3702  0E66                     u4280:
  3703  0E66                     l6192:
  3704                           
  3705                           ;../Projects/src/key_and_Other.c: 40:       time_led++;
  3706  0E66  3001               	movlw	1
  3707  0E67  0021               	movlb	1	; select bank1
  3708  0E68  07BC               	addwf	_time_led^(0+128),f
  3709  0E69  3000               	movlw	0
  3710  0E6A  3DBD               	addwfc	(_time_led+1)^(0+128),f
  3711                           
  3712                           ;../Projects/src/key_and_Other.c: 41:       if(time_led>=100){time_led=0;RB5=!RB5;}
  3713  0E6B  3000               	movlw	0
  3714  0E6C  023D               	subwf	(_time_led+1)^(0+128),w
  3715  0E6D  3064               	movlw	100
  3716  0E6E  1903               	skipnz
  3717  0E6F  023C               	subwf	_time_led^(0+128),w
  3718  0E70  1C03               	skipc
  3719  0E71  2E73               	goto	u4291
  3720  0E72  2E74               	goto	u4290
  3721  0E73                     u4291:
  3722  0E73  2E79               	goto	l6198
  3723  0E74                     u4290:
  3724  0E74                     l6194:
  3725  0E74  01BC               	clrf	_time_led^(0+128)
  3726  0E75  01BD               	clrf	(_time_led+1)^(0+128)
  3727  0E76                     l6196:
  3728  0E76  3020               	movlw	32
  3729  0E77  0020               	movlb	0	; select bank0
  3730  0E78  068D               	xorwf	13,f
  3731  0E79                     l6198:
  3732                           
  3733                           ;../Projects/src/key_and_Other.c: 43:     if(m_TimerKey)--m_TimerKey;
  3734  0E79  0020               	movlb	0	; select bank0
  3735  0E7A  0824               	movf	_m_TimerKey,w
  3736  0E7B  0425               	iorwf	_m_TimerKey+1,w
  3737  0E7C  1903               	btfsc	3,2
  3738  0E7D  2E7F               	goto	u4301
  3739  0E7E  2E80               	goto	u4300
  3740  0E7F                     u4301:
  3741  0E7F  2E84               	goto	l6202
  3742  0E80                     u4300:
  3743  0E80                     l6200:
  3744  0E80  3001               	movlw	1
  3745  0E81  02A4               	subwf	_m_TimerKey,f
  3746  0E82  3000               	movlw	0
  3747  0E83  3BA5               	subwfb	_m_TimerKey+1,f
  3748  0E84                     l6202:
  3749                           
  3750                           ;../Projects/src/key_and_Other.c: 69:     _KeyInTx();
  3751  0E84  3181  21F9  318E   	fcall	__KeyInTx
  3752  0E87                     l6204:
  3753                           
  3754                           ;../Projects/src/key_and_Other.c: 70:     if(FG_10s==1)return;
  3755  0E87  0020               	movlb	0	; select bank0
  3756  0E88  033D               	decf	_FG_10s,w
  3757  0E89  1D03               	btfss	3,2
  3758  0E8A  2E8C               	goto	u4311
  3759  0E8B  2E8D               	goto	u4310
  3760  0E8C                     u4311:
  3761  0E8C  2E8E               	goto	l6208
  3762  0E8D                     u4310:
  3763  0E8D  2E97               	goto	l525
  3764  0E8E                     l6208:
  3765                           
  3766                           ;../Projects/src/key_and_Other.c: 71:     _RegistrationMode();
  3767  0E8E  3185  25C5  318E   	fcall	__RegistrationMode
  3768                           
  3769                           ;../Projects/src/key_and_Other.c: 72:     _DupliFuncSetMode();
  3770  0E91  3180  2043  318E   	fcall	__DupliFuncSetMode
  3771  0E94                     l6210:
  3772                           
  3773                           ;../Projects/src/key_and_Other.c: 74:     ClearWDT();
  3774  0E94  3189  211A  318E   	fcall	_ClearWDT
  3775  0E97                     l525:
  3776  0E97  0008               	return
  3777  0E98                     __end_of_key_check:
  3778                           
  3779                           	psect	text6
  3780  05C5                     __ptext6:	
  3781 ;; *************** function __RegistrationMode *****************
  3782 ;; Defined at:
  3783 ;;		line 1099 in file "../Projects/src/key_and_Other.c"
  3784 ;; Parameters:    Size  Location     Type
  3785 ;;		None
  3786 ;; Auto vars:     Size  Location     Type
  3787 ;;		None
  3788 ;; Return value:  Size  Location     Type
  3789 ;;                  1    wreg      void 
  3790 ;; Registers used:
  3791 ;;		wreg, fsr0l, fsr0h, fsr1l, fsr1h, status,2, status,0, pclath, cstack
  3792 ;; Tracked objects:
  3793 ;;		On entry : 0/0
  3794 ;;		On exit  : 0/0
  3795 ;;		Unchanged: 0/0
  3796 ;; Data sizes:     COMMON   BANK0   BANK1   BANK2   BANK3   BANK4   BANK5   BANK6   BANK7   BANK8   BANK9  BANK10  BANK1
      +1  BANK12
  3797 ;;      Params:         0       0       0       0       0       0       0       0       0       0       0       0       
      +0       0
  3798 ;;      Locals:         0       0       0       0       0       0       0       0       0       0       0       0       
      +0       0
  3799 ;;      Temps:          0       2       0       0       0       0       0       0       0       0       0       0       
      +0       0
  3800 ;;      Totals:         0       2       0       0       0       0       0       0       0       0       0       0       
      +0       0
  3801 ;;Total ram usage:        2 bytes
  3802 ;; Hardware stack levels used:    1
  3803 ;; Hardware stack levels required when called:    6
  3804 ;; This function calls:
  3805 ;;		__GetRegMode
  3806 ;;		__IdClear
  3807 ;;		__ReqBuzzer
  3808 ;;		__ReqTxdEdit
  3809 ;;		_atol_de
  3810 ;; This function is called by:
  3811 ;;		_key_check
  3812 ;; This function uses a non-reentrant model
  3813 ;;
  3814                           
  3815                           
  3816                           ;psect for function __RegistrationMode
  3817  05C5                     __RegistrationMode:
  3818  05C5                     l5836:	
  3819                           ;incstack = 0
  3820                           ; Regs used in __RegistrationMode: [wreg-fsr1h+status,2+status,0+pclath+cstack]
  3821                           
  3822                           
  3823                           ;../Projects/src/key_and_Other.c: 1101:  if ( !_GetRegMode() )
  3824  05C5  3189  211E  3185   	fcall	__GetRegMode
  3825  05C8  3A00               	xorlw	0
  3826  05C9  1D03               	skipz
  3827  05CA  2DCC               	goto	u3741
  3828  05CB  2DCD               	goto	u3740
  3829  05CC                     u3741:
  3830  05CC  2DCE               	goto	l5840
  3831  05CD                     u3740:
  3832  05CD  2EBC               	goto	l777
  3833  05CE                     l5840:
  3834                           
  3835                           ;../Projects/src/key_and_Other.c: 1106:         if(FG_PWRON==0){
  3836  05CE  0020               	movlb	0	; select bank0
  3837  05CF  083B               	movf	_FG_PWRON,w
  3838  05D0  1D03               	btfss	3,2
  3839  05D1  2DD3               	goto	u3751
  3840  05D2  2DD4               	goto	u3750
  3841  05D3                     u3751:
  3842  05D3  2DD7               	goto	l5844
  3843  05D4                     u3750:
  3844  05D4                     l5842:
  3845                           
  3846                           ;../Projects/src/key_and_Other.c: 1107:  FG_PWRON=1;
  3847  05D4  01BB               	clrf	_FG_PWRON
  3848  05D5  0ABB               	incf	_FG_PWRON,f
  3849                           
  3850                           ;../Projects/src/key_and_Other.c: 1108:  RB7=1;
  3851  05D6  178D               	bsf	13,7	;volatile
  3852  05D7                     l5844:
  3853                           
  3854                           ;../Projects/src/key_and_Other.c: 1110:  if(m_TimerRegMode){
  3855  05D7  0021               	movlb	1	; select bank1
  3856  05D8  083E               	movf	_m_TimerRegMode^(0+128),w
  3857  05D9  043F               	iorwf	(_m_TimerRegMode+1)^(0+128),w
  3858  05DA  1903               	btfsc	3,2
  3859  05DB  2DDD               	goto	u3761
  3860  05DC  2DDE               	goto	u3760
  3861  05DD                     u3761:
  3862  05DD  2DF7               	goto	l5852
  3863  05DE                     u3760:
  3864  05DE                     l5846:
  3865                           
  3866                           ;../Projects/src/key_and_Other.c: 1111:    TB_5s=51;
  3867  05DE  3033               	movlw	51
  3868  05DF  0020               	movlb	0	; select bank0
  3869  05E0  00E8               	movwf	??__RegistrationMode
  3870  05E1  0868               	movf	??__RegistrationMode,w
  3871  05E2  00C5               	movwf	_TB_5s
  3872                           
  3873                           ;../Projects/src/key_and_Other.c: 1112:           time_led++;
  3874  05E3  3001               	movlw	1
  3875  05E4  0021               	movlb	1	; select bank1
  3876  05E5  07BC               	addwf	_time_led^(0+128),f
  3877  05E6  3000               	movlw	0
  3878  05E7  3DBD               	addwfc	(_time_led+1)^(0+128),f
  3879                           
  3880                           ;../Projects/src/key_and_Other.c: 1113:           if(time_led>=500){time_led=0;RB5=!RB5;
      +                          }
  3881  05E8  3001               	movlw	1
  3882  05E9  023D               	subwf	(_time_led+1)^(0+128),w
  3883  05EA  30F4               	movlw	244
  3884  05EB  1903               	skipnz
  3885  05EC  023C               	subwf	_time_led^(0+128),w
  3886  05ED  1C03               	skipc
  3887  05EE  2DF0               	goto	u3771
  3888  05EF  2DF1               	goto	u3770
  3889  05F0                     u3771:
  3890  05F0  2EA5               	goto	l5896
  3891  05F1                     u3770:
  3892  05F1                     l5848:
  3893  05F1  01BC               	clrf	_time_led^(0+128)
  3894  05F2  01BD               	clrf	(_time_led+1)^(0+128)
  3895  05F3                     l5850:
  3896  05F3  3020               	movlw	32
  3897  05F4  0020               	movlb	0	; select bank0
  3898  05F5  068D               	xorwf	13,f
  3899  05F6  2EA5               	goto	l5896
  3900  05F7                     l5852:
  3901                           
  3902                           ;../Projects/src/key_and_Other.c: 1117:          _ReqBuzzer(500,250,2);
  3903  05F7  30F4               	movlw	244
  3904  05F8  00F3               	movwf	__ReqBuzzer@BEEP_on_SET
  3905  05F9  3001               	movlw	1
  3906  05FA  00F4               	movwf	__ReqBuzzer@BEEP_on_SET+1
  3907  05FB  30FA               	movlw	250
  3908  05FC  0020               	movlb	0	; select bank0
  3909  05FD  00E8               	movwf	??__RegistrationMode
  3910  05FE  0868               	movf	??__RegistrationMode,w
  3911  05FF  00F5               	movwf	__ReqBuzzer@BEEP_off_SET
  3912  0600  3002               	movlw	2
  3913  0601  00E9               	movwf	??__RegistrationMode+1
  3914  0602  0869               	movf	??__RegistrationMode+1,w
  3915  0603  00F6               	movwf	__ReqBuzzer@BEEP_freq_SET
  3916  0604  318A  22AE  3185   	fcall	__ReqBuzzer
  3917  0607                     l5854:
  3918                           
  3919                           ;../Projects/src/key_and_Other.c: 1118:   RB5=0;
  3920  0607  0020               	movlb	0	; select bank0
  3921  0608  128D               	bcf	13,5	;volatile
  3922  0609                     l5856:
  3923                           
  3924                           ;../Projects/src/key_and_Other.c: 1119:   m_RegMode = 0 ;
  3925  0609  01CC               	clrf	_m_RegMode
  3926  060A  2EA5               	goto	l5896
  3927  060B                     l5858:
  3928                           
  3929                           ;../Projects/src/key_and_Other.c: 1134:    if ( ++m_RegID[m_RegDigit] > '9' )
  3930  060B  3001               	movlw	1
  3931  060C  00E8               	movwf	??__RegistrationMode
  3932  060D  0829               	movf	_m_RegDigit,w
  3933  060E  3E40               	addlw	(low (_m_RegID| (0+256)))& (0+255)
  3934  060F  0086               	movwf	6
  3935  0610  3001               	movlw	1	; select bank2/3
  3936  0611  0087               	movwf	7
  3937  0612  0868               	movf	??__RegistrationMode,w
  3938  0613  0781               	addwf	1,f
  3939  0614  303A               	movlw	58
  3940  0615  0201               	subwf	1,w
  3941  0616  1C03               	skipc
  3942  0617  2E19               	goto	u3781
  3943  0618  2E1A               	goto	u3780
  3944  0619                     u3781:
  3945  0619  2E23               	goto	l5862
  3946  061A                     u3780:
  3947  061A                     l5860:
  3948                           
  3949                           ;../Projects/src/key_and_Other.c: 1135:    {;../Projects/src/key_and_Other.c: 1136:     
      +                          m_RegID[m_RegDigit] = '0' ;
  3950  061A  3030               	movlw	48
  3951  061B  00E8               	movwf	??__RegistrationMode
  3952  061C  0829               	movf	_m_RegDigit,w
  3953  061D  3E40               	addlw	(low (_m_RegID| (0+256)))& (0+255)
  3954  061E  0086               	movwf	6
  3955  061F  3001               	movlw	1	; select bank2/3
  3956  0620  0087               	movwf	7
  3957  0621  0868               	movf	??__RegistrationMode,w
  3958  0622  0081               	movwf	1
  3959  0623                     l5862:
  3960                           
  3961                           ;../Projects/src/key_and_Other.c: 1139:    _ReqBuzzer(103,103,0);
  3962  0623  3067               	movlw	103
  3963  0624  00F3               	movwf	__ReqBuzzer@BEEP_on_SET
  3964  0625  3000               	movlw	0
  3965  0626  00F4               	movwf	__ReqBuzzer@BEEP_on_SET+1
  3966  0627  3067               	movlw	103
  3967  0628  00E8               	movwf	??__RegistrationMode
  3968  0629  0868               	movf	??__RegistrationMode,w
  3969  062A  00F5               	movwf	__ReqBuzzer@BEEP_off_SET
  3970  062B  01F6               	clrf	__ReqBuzzer@BEEP_freq_SET
  3971  062C  318A  22AE  3185   	fcall	__ReqBuzzer
  3972  062F                     l5864:
  3973                           
  3974                           ;../Projects/src/key_and_Other.c: 1140:    m_TimerRegMode = 60000 ;
  3975  062F  3060               	movlw	96
  3976  0630  0021               	movlb	1	; select bank1
  3977  0631  00BE               	movwf	_m_TimerRegMode^(0+128)
  3978  0632  30EA               	movlw	234
  3979  0633  00BF               	movwf	(_m_TimerRegMode^(0+128)+1)
  3980                           
  3981                           ;../Projects/src/key_and_Other.c: 1141:    break ;
  3982  0634  2EBC               	goto	l777
  3983  0635                     l5866:
  3984                           
  3985                           ;../Projects/src/key_and_Other.c: 1144:    if ( ++m_RegDigit > 8 )
  3986  0635  3001               	movlw	1
  3987  0636  00E8               	movwf	??__RegistrationMode
  3988  0637  0868               	movf	??__RegistrationMode,w
  3989  0638  07A9               	addwf	_m_RegDigit,f
  3990  0639  3009               	movlw	9
  3991  063A  0229               	subwf	_m_RegDigit,w
  3992  063B  1C03               	skipc
  3993  063C  2E3E               	goto	u3791
  3994  063D  2E3F               	goto	u3790
  3995  063E                     u3791:
  3996  063E  2E44               	goto	l5870
  3997  063F                     u3790:
  3998  063F                     l5868:
  3999                           
  4000                           ;../Projects/src/key_and_Other.c: 1145:    {;../Projects/src/key_and_Other.c: 1146:     
      +                          m_RegDigit= 8 ;
  4001  063F  3008               	movlw	8
  4002  0640  00E8               	movwf	??__RegistrationMode
  4003  0641  0868               	movf	??__RegistrationMode,w
  4004  0642  00A9               	movwf	_m_RegDigit
  4005                           
  4006                           ;../Projects/src/key_and_Other.c: 1147:    }
  4007  0643  2E2F               	goto	l5864
  4008  0644                     l5870:
  4009                           
  4010                           ;../Projects/src/key_and_Other.c: 1150:    {;../Projects/src/key_and_Other.c: 1152:     
      +                           _ReqBuzzer(103,103,1);
  4011  0644  3067               	movlw	103
  4012  0645  00F3               	movwf	__ReqBuzzer@BEEP_on_SET
  4013  0646  3000               	movlw	0
  4014  0647  00F4               	movwf	__ReqBuzzer@BEEP_on_SET+1
  4015  0648  3067               	movlw	103
  4016  0649  00E8               	movwf	??__RegistrationMode
  4017  064A  0868               	movf	??__RegistrationMode,w
  4018  064B  00F5               	movwf	__ReqBuzzer@BEEP_off_SET
  4019  064C  01F6               	clrf	__ReqBuzzer@BEEP_freq_SET
  4020  064D  0AF6               	incf	__ReqBuzzer@BEEP_freq_SET,f
  4021  064E  318A  22AE  3185   	fcall	__ReqBuzzer
  4022  0651  2E2F               	goto	l5864
  4023  0652                     l5874:
  4024                           
  4025                           ;../Projects/src/key_and_Other.c: 1162:    _IdClear() ;
  4026  0652  3189  21E0  3185   	fcall	__IdClear
  4027  0655                     l5876:
  4028                           
  4029                           ;../Projects/src/key_and_Other.c: 1164:    _ReqBuzzer(1000,1,0);
  4030  0655  30E8               	movlw	232
  4031  0656  00F3               	movwf	__ReqBuzzer@BEEP_on_SET
  4032  0657  3003               	movlw	3
  4033  0658  00F4               	movwf	__ReqBuzzer@BEEP_on_SET+1
  4034  0659  01F5               	clrf	__ReqBuzzer@BEEP_off_SET
  4035  065A  0AF5               	incf	__ReqBuzzer@BEEP_off_SET,f
  4036  065B  01F6               	clrf	__ReqBuzzer@BEEP_freq_SET
  4037  065C  318A  22AE  3185   	fcall	__ReqBuzzer
  4038  065F  2E2F               	goto	l5864
  4039  0660                     l5880:
  4040                           
  4041                           ;../Projects/src/key_and_Other.c: 1170:    if ( m_RegDigit < 8 )
  4042  0660  3008               	movlw	8
  4043  0661  0229               	subwf	_m_RegDigit,w
  4044  0662  1803               	skipnc
  4045  0663  2E65               	goto	u3801
  4046  0664  2E66               	goto	u3800
  4047  0665                     u3801:
  4048  0665  2E67               	goto	l5884
  4049  0666                     u3800:
  4050  0666  2EBC               	goto	l777
  4051  0667                     l5884:
  4052                           
  4053                           ;../Projects/src/key_and_Other.c: 1178:    ID_data_add.IDL = (unsigned long)atol_de(m_Re
      +                          gID) ;
  4054  0667  3040               	movlw	(low (_m_RegID| (0+256)))& (0+255)
  4055  0668  318C  2482  3185   	fcall	_atol_de
  4056  066B  0020               	movlb	0	; select bank0
  4057  066C  085C               	movf	?_atol_de+3,w
  4058  066D  0021               	movlb	1	; select bank1
  4059  066E  00AB               	movwf	(_ID_data_add+3)^(0+128)
  4060  066F  0020               	movlb	0	; select bank0
  4061  0670  085B               	movf	?_atol_de+2,w
  4062  0671  0021               	movlb	1	; select bank1
  4063  0672  00AA               	movwf	(_ID_data_add+2)^(0+128)
  4064  0673  0020               	movlb	0	; select bank0
  4065  0674  085A               	movf	?_atol_de+1,w
  4066  0675  0021               	movlb	1	; select bank1
  4067  0676  00A9               	movwf	(_ID_data_add+1)^(0+128)
  4068  0677  0020               	movlb	0	; select bank0
  4069  0678  0859               	movf	?_atol_de,w
  4070  0679  0021               	movlb	1	; select bank1
  4071  067A  00A8               	movwf	_ID_data_add^(0+128)
  4072  067B                     l5886:
  4073                           
  4074                           ;../Projects/src/key_and_Other.c: 1181:    if ( ID_data_add.IDL > 16777214 )
  4075  067B  082B               	movf	(_ID_data_add+3)^(0+128),w
  4076  067C  1D03               	btfss	3,2
  4077  067D  2E88               	goto	u3810
  4078  067E  30FF               	movlw	255
  4079  067F  0228               	subwf	_ID_data_add^(0+128),w
  4080  0680  30FF               	movlw	255
  4081  0681  3B29               	subwfb	(_ID_data_add+1)^(0+128),w
  4082  0682  30FF               	movlw	255
  4083  0683  3B2A               	subwfb	(_ID_data_add+2)^(0+128),w
  4084  0684  1C03               	btfss	3,0
  4085  0685  2E87               	goto	u3811
  4086  0686  2E88               	goto	u3810
  4087  0687                     u3811:
  4088  0687  2E99               	goto	l5890
  4089  0688                     u3810:
  4090  0688                     l5888:
  4091                           
  4092                           ;../Projects/src/key_and_Other.c: 1183:    {;../Projects/src/key_and_Other.c: 1185:     
      +                                 _ReqBuzzer(100,100,3);
  4093  0688  3064               	movlw	100
  4094  0689  00F3               	movwf	__ReqBuzzer@BEEP_on_SET
  4095  068A  3000               	movlw	0
  4096  068B  00F4               	movwf	__ReqBuzzer@BEEP_on_SET+1
  4097  068C  3064               	movlw	100
  4098  068D  0020               	movlb	0	; select bank0
  4099  068E  00E8               	movwf	??__RegistrationMode
  4100  068F  0868               	movf	??__RegistrationMode,w
  4101  0690  00F5               	movwf	__ReqBuzzer@BEEP_off_SET
  4102  0691  3003               	movlw	3
  4103  0692  00E9               	movwf	??__RegistrationMode+1
  4104  0693  0869               	movf	??__RegistrationMode+1,w
  4105  0694  00F6               	movwf	__ReqBuzzer@BEEP_freq_SET
  4106  0695  318A  22AE  3185   	fcall	__ReqBuzzer
  4107                           
  4108                           ;../Projects/src/key_and_Other.c: 1186:    }
  4109  0698  2EA2               	goto	l5892
  4110  0699                     l5890:
  4111                           
  4112                           ;../Projects/src/key_and_Other.c: 1188:    {;../Projects/src/key_and_Other.c: 1189:     
      +                          _ReqTxdEdit(20,20) ;
  4113  0699  3014               	movlw	20
  4114  069A  0020               	movlb	0	; select bank0
  4115  069B  00E8               	movwf	??__RegistrationMode
  4116  069C  0868               	movf	??__RegistrationMode,w
  4117  069D  00E2               	movwf	__ReqTxdEdit@buzreq
  4118  069E  3014               	movlw	20
  4119  069F  3183  23A2  3185   	fcall	__ReqTxdEdit
  4120  06A2                     l5892:
  4121                           
  4122                           ;../Projects/src/key_and_Other.c: 1192:    m_RegMode = 0 ;
  4123  06A2  0020               	movlb	0	; select bank0
  4124  06A3  01CC               	clrf	_m_RegMode
  4125                           
  4126                           ;../Projects/src/key_and_Other.c: 1193:    break ;
  4127  06A4  2EBC               	goto	l777
  4128  06A5                     l5896:
  4129  06A5  0020               	movlb	0	; select bank0
  4130  06A6  0842               	movf	_m_KindOfKey,w
  4131  06A7  00E8               	movwf	??__RegistrationMode
  4132  06A8  01E9               	clrf	??__RegistrationMode+1
  4133                           
  4134                           ; Switch on 2 bytes has been partitioned into a top level switch of size 1, and 1 sub-sw
      +                          itches
  4135                           ; Switch size 1, requested type "simple"
  4136                           ; Number of cases is 1, Range of values is 0 to 0
  4137                           ; switch strategies available:
  4138                           ; Name         Instructions Cycles
  4139                           ; simple_byte            4     3 (average)
  4140                           ; direct_byte            8     6 (fixed)
  4141                           ; jumptable            260     6 (fixed)
  4142                           ;	Chosen strategy is simple_byte
  4143  06A9  0869               	movf	??__RegistrationMode+1,w
  4144  06AA  3A00               	xorlw	0	; case 0
  4145  06AB  1903               	skipnz
  4146  06AC  2EAE               	goto	l6756
  4147  06AD  2EBC               	goto	l777
  4148  06AE                     l6756:
  4149                           
  4150                           ; Switch size 1, requested type "simple"
  4151                           ; Number of cases is 4, Range of values is 1 to 5
  4152                           ; switch strategies available:
  4153                           ; Name         Instructions Cycles
  4154                           ; simple_byte           13     7 (average)
  4155                           ; direct_byte           19     9 (fixed)
  4156                           ; jumptable            263     9 (fixed)
  4157                           ;	Chosen strategy is simple_byte
  4158  06AE  0868               	movf	??__RegistrationMode,w
  4159  06AF  3A01               	xorlw	1	; case 1
  4160  06B0  1903               	skipnz
  4161  06B1  2E0B               	goto	l5858
  4162  06B2  3A03               	xorlw	3	; case 2
  4163  06B3  1903               	skipnz
  4164  06B4  2E35               	goto	l5866
  4165  06B5  3A01               	xorlw	1	; case 3
  4166  06B6  1903               	skipnz
  4167  06B7  2E52               	goto	l5874
  4168  06B8  3A06               	xorlw	6	; case 5
  4169  06B9  1903               	skipnz
  4170  06BA  2E60               	goto	l5880
  4171  06BB  2EBC               	goto	l777
  4172  06BC                     l777:
  4173  06BC  0008               	return
  4174  06BD                     __end_of__RegistrationMode:
  4175                           
  4176                           	psect	text7
  4177  0C82                     __ptext7:	
  4178 ;; *************** function _atol_de *****************
  4179 ;; Defined at:
  4180 ;;		line 1200 in file "../Projects/src/key_and_Other.c"
  4181 ;; Parameters:    Size  Location     Type
  4182 ;;  m_RegID_x       1    wreg     PTR unsigned char 
  4183 ;;		 -> m_RegID(9), 
  4184 ;; Auto vars:     Size  Location     Type
  4185 ;;  m_RegID_x       1   17[BANK0 ] PTR unsigned char 
  4186 ;;		 -> m_RegID(9), 
  4187 ;;  m_ID            4   18[BANK0 ] unsigned long 
  4188 ;;  i               1   22[BANK0 ] unsigned char 
  4189 ;;  j               1   16[BANK0 ] unsigned char 
  4190 ;; Return value:  Size  Location     Type
  4191 ;;                  4    8[BANK0 ] unsigned long 
  4192 ;; Registers used:
  4193 ;;		wreg, fsr1l, fsr1h, status,2, status,0, pclath, cstack
  4194 ;; Tracked objects:
  4195 ;;		On entry : 0/0
  4196 ;;		On exit  : 0/0
  4197 ;;		Unchanged: 0/0
  4198 ;; Data sizes:     COMMON   BANK0   BANK1   BANK2   BANK3   BANK4   BANK5   BANK6   BANK7   BANK8   BANK9  BANK10  BANK1
      +1  BANK12
  4199 ;;      Params:         0       4       0       0       0       0       0       0       0       0       0       0       
      +0       0
  4200 ;;      Locals:         0       7       0       0       0       0       0       0       0       0       0       0       
      +0       0
  4201 ;;      Temps:          0       4       0       0       0       0       0       0       0       0       0       0       
      +0       0
  4202 ;;      Totals:         0      15       0       0       0       0       0       0       0       0       0       0       
      +0       0
  4203 ;;Total ram usage:       15 bytes
  4204 ;; Hardware stack levels used:    1
  4205 ;; Hardware stack levels required when called:    3
  4206 ;; This function calls:
  4207 ;;		___lmul
  4208 ;; This function is called by:
  4209 ;;		__RegistrationMode
  4210 ;; This function uses a non-reentrant model
  4211 ;;
  4212                           
  4213                           
  4214                           ;psect for function _atol_de
  4215  0C82                     _atol_de:
  4216                           
  4217                           ;incstack = 0
  4218                           ; Regs used in _atol_de: [wreg+fsr1l+fsr1h+status,2+status,0+pclath+cstack]
  4219                           ;atol_de@m_RegID_x stored from wreg
  4220  0C82  0020               	movlb	0	; select bank0
  4221  0C83  00E2               	movwf	atol_de@m_RegID_x
  4222  0C84                     l5668:
  4223                           
  4224                           ;../Projects/src/key_and_Other.c: 1200: unsigned long atol_de (unsigned char* m_RegID_x)
      +                          ;../Projects/src/key_and_Other.c: 1201: {;../Projects/src/key_and_Other.c: 1202:   unsig
      +                          ned char i,j;;../Projects/src/key_and_Other.c: 1203:   unsigned long m_ID=0;
  4225  0C84  3000               	movlw	0
  4226  0C85  00E6               	movwf	atol_de@m_ID+3
  4227  0C86  3000               	movlw	0
  4228  0C87  00E5               	movwf	atol_de@m_ID+2
  4229  0C88  3000               	movlw	0
  4230  0C89  00E4               	movwf	atol_de@m_ID+1
  4231  0C8A  3000               	movlw	0
  4232  0C8B  00E3               	movwf	atol_de@m_ID
  4233  0C8C                     l5670:
  4234                           
  4235                           ;../Projects/src/key_and_Other.c: 1205:   for(i=0;i<8;i++){
  4236  0C8C  01E7               	clrf	atol_de@i
  4237  0C8D                     l5676:
  4238                           
  4239                           ;../Projects/src/key_and_Other.c: 1206:     j=m_RegID_x[i]-'0';
  4240  0C8D  0867               	movf	atol_de@i,w
  4241  0C8E  0762               	addwf	atol_de@m_RegID_x,w
  4242  0C8F  00DD               	movwf	??_atol_de
  4243  0C90  085D               	movf	??_atol_de,w
  4244  0C91  0086               	movwf	6
  4245  0C92  3001               	movlw	1	; select bank2/3
  4246  0C93  0087               	movwf	7
  4247  0C94  0801               	movf	1,w
  4248  0C95  3ED0               	addlw	208
  4249  0C96  00DE               	movwf	??_atol_de+1
  4250  0C97  085E               	movf	??_atol_de+1,w
  4251  0C98  00E1               	movwf	atol_de@j
  4252  0C99                     l5678:
  4253                           
  4254                           ;../Projects/src/key_and_Other.c: 1207:     m_ID=m_ID*10+j;
  4255  0C99  0861               	movf	atol_de@j,w
  4256  0C9A  00DD               	movwf	??_atol_de
  4257  0C9B  01DE               	clrf	??_atol_de+1
  4258  0C9C  01DF               	clrf	??_atol_de+2
  4259  0C9D  01E0               	clrf	??_atol_de+3
  4260  0C9E  0866               	movf	atol_de@m_ID+3,w
  4261  0C9F  00D4               	movwf	___lmul@multiplier+3
  4262  0CA0  0865               	movf	atol_de@m_ID+2,w
  4263  0CA1  00D3               	movwf	___lmul@multiplier+2
  4264  0CA2  0864               	movf	atol_de@m_ID+1,w
  4265  0CA3  00D2               	movwf	___lmul@multiplier+1
  4266  0CA4  0863               	movf	atol_de@m_ID,w
  4267  0CA5  00D1               	movwf	___lmul@multiplier
  4268  0CA6  3000               	movlw	0
  4269  0CA7  00D8               	movwf	___lmul@multiplicand+3
  4270  0CA8  3000               	movlw	0
  4271  0CA9  00D7               	movwf	___lmul@multiplicand+2
  4272  0CAA  3000               	movlw	0
  4273  0CAB  00D6               	movwf	___lmul@multiplicand+1
  4274  0CAC  300A               	movlw	10
  4275  0CAD  00D5               	movwf	___lmul@multiplicand
  4276  0CAE  318B  239B  318C   	fcall	___lmul
  4277  0CB1  0020               	movlb	0	; select bank0
  4278  0CB2  0851               	movf	?___lmul,w
  4279  0CB3  07DD               	addwf	??_atol_de,f
  4280  0CB4  0852               	movf	?___lmul+1,w
  4281  0CB5  3DDE               	addwfc	??_atol_de+1,f
  4282  0CB6  0853               	movf	?___lmul+2,w
  4283  0CB7  3DDF               	addwfc	??_atol_de+2,f
  4284  0CB8  0854               	movf	?___lmul+3,w
  4285  0CB9  3DE0               	addwfc	??_atol_de+3,f
  4286  0CBA  0860               	movf	??_atol_de+3,w
  4287  0CBB  00E6               	movwf	atol_de@m_ID+3
  4288  0CBC  085F               	movf	??_atol_de+2,w
  4289  0CBD  00E5               	movwf	atol_de@m_ID+2
  4290  0CBE  085E               	movf	??_atol_de+1,w
  4291  0CBF  00E4               	movwf	atol_de@m_ID+1
  4292  0CC0  085D               	movf	??_atol_de,w
  4293  0CC1  00E3               	movwf	atol_de@m_ID
  4294  0CC2                     l5680:
  4295                           
  4296                           ;../Projects/src/key_and_Other.c: 1208:   }
  4297  0CC2  3001               	movlw	1
  4298  0CC3  00DD               	movwf	??_atol_de
  4299  0CC4  085D               	movf	??_atol_de,w
  4300  0CC5  07E7               	addwf	atol_de@i,f
  4301  0CC6                     l5682:
  4302  0CC6  3008               	movlw	8
  4303  0CC7  0267               	subwf	atol_de@i,w
  4304  0CC8  1C03               	skipc
  4305  0CC9  2CCB               	goto	u3471
  4306  0CCA  2CCC               	goto	u3470
  4307  0CCB                     u3471:
  4308  0CCB  2C8D               	goto	l5676
  4309  0CCC                     u3470:
  4310  0CCC                     l5684:
  4311                           
  4312                           ;../Projects/src/key_and_Other.c: 1209:   return(m_ID);
  4313  0CCC  0866               	movf	atol_de@m_ID+3,w
  4314  0CCD  00DC               	movwf	?_atol_de+3
  4315  0CCE  0865               	movf	atol_de@m_ID+2,w
  4316  0CCF  00DB               	movwf	?_atol_de+2
  4317  0CD0  0864               	movf	atol_de@m_ID+1,w
  4318  0CD1  00DA               	movwf	?_atol_de+1
  4319  0CD2  0863               	movf	atol_de@m_ID,w
  4320  0CD3  00D9               	movwf	?_atol_de
  4321  0CD4                     l798:
  4322  0CD4  0008               	return
  4323  0CD5                     __end_of_atol_de:
  4324                           
  4325                           	psect	text8
  4326  0B9B                     __ptext8:	
  4327 ;; *************** function ___lmul *****************
  4328 ;; Defined at:
  4329 ;;		line 15 in file "C:\Program Files\Microchip\xc8\v2.20\pic\sources\c99\common\Umul32.c"
  4330 ;; Parameters:    Size  Location     Type
  4331 ;;  multiplier      4    0[BANK0 ] unsigned long 
  4332 ;;  multiplicand    4    4[BANK0 ] unsigned long 
  4333 ;; Auto vars:     Size  Location     Type
  4334 ;;  product         4    3[COMMON] unsigned long 
  4335 ;; Return value:  Size  Location     Type
  4336 ;;                  4    0[BANK0 ] unsigned long 
  4337 ;; Registers used:
  4338 ;;		wreg, status,2, status,0
  4339 ;; Tracked objects:
  4340 ;;		On entry : 0/0
  4341 ;;		On exit  : 0/0
  4342 ;;		Unchanged: 0/0
  4343 ;; Data sizes:     COMMON   BANK0   BANK1   BANK2   BANK3   BANK4   BANK5   BANK6   BANK7   BANK8   BANK9  BANK10  BANK1
      +1  BANK12
  4344 ;;      Params:         0       8       0       0       0       0       0       0       0       0       0       0       
      +0       0
  4345 ;;      Locals:         4       0       0       0       0       0       0       0       0       0       0       0       
      +0       0
  4346 ;;      Temps:          0       0       0       0       0       0       0       0       0       0       0       0       
      +0       0
  4347 ;;      Totals:         4       8       0       0       0       0       0       0       0       0       0       0       
      +0       0
  4348 ;;Total ram usage:       12 bytes
  4349 ;; Hardware stack levels used:    1
  4350 ;; Hardware stack levels required when called:    2
  4351 ;; This function calls:
  4352 ;;		Nothing
  4353 ;; This function is called by:
  4354 ;;		_atol_de
  4355 ;; This function uses a non-reentrant model
  4356 ;;
  4357                           
  4358                           
  4359                           ;psect for function ___lmul
  4360  0B9B                     ___lmul:
  4361  0B9B                     l5388:	
  4362                           ;incstack = 0
  4363                           ; Regs used in ___lmul: [wreg+status,2+status,0]
  4364                           
  4365  0B9B  3000               	movlw	0
  4366  0B9C  00F6               	movwf	___lmul@product+3
  4367  0B9D  3000               	movlw	0
  4368  0B9E  00F5               	movwf	___lmul@product+2
  4369  0B9F  3000               	movlw	0
  4370  0BA0  00F4               	movwf	___lmul@product+1
  4371  0BA1  3000               	movlw	0
  4372  0BA2  00F3               	movwf	___lmul@product
  4373  0BA3                     l5390:
  4374  0BA3  0020               	movlb	0	; select bank0
  4375  0BA4  1C51               	btfss	___lmul@multiplier,0
  4376  0BA5  2BA7               	goto	u3071
  4377  0BA6  2BA8               	goto	u3070
  4378  0BA7                     u3071:
  4379  0BA7  2BB0               	goto	l5394
  4380  0BA8                     u3070:
  4381  0BA8                     l5392:
  4382  0BA8  0855               	movf	___lmul@multiplicand,w
  4383  0BA9  07F3               	addwf	___lmul@product,f
  4384  0BAA  0856               	movf	___lmul@multiplicand+1,w
  4385  0BAB  3DF4               	addwfc	___lmul@product+1,f
  4386  0BAC  0857               	movf	___lmul@multiplicand+2,w
  4387  0BAD  3DF5               	addwfc	___lmul@product+2,f
  4388  0BAE  0858               	movf	___lmul@multiplicand+3,w
  4389  0BAF  3DF6               	addwfc	___lmul@product+3,f
  4390  0BB0                     l5394:
  4391  0BB0  3001               	movlw	1
  4392  0BB1                     u3085:
  4393  0BB1  35D5               	lslf	___lmul@multiplicand,f
  4394  0BB2  0DD6               	rlf	___lmul@multiplicand+1,f
  4395  0BB3  0DD7               	rlf	___lmul@multiplicand+2,f
  4396  0BB4  0DD8               	rlf	___lmul@multiplicand+3,f
  4397  0BB5  0B89               	decfsz	9,f
  4398  0BB6  2BB1               	goto	u3085
  4399  0BB7                     l5396:
  4400  0BB7  3001               	movlw	1
  4401  0BB8                     u3095:
  4402  0BB8  36D4               	lsrf	___lmul@multiplier+3,f
  4403  0BB9  0CD3               	rrf	___lmul@multiplier+2,f
  4404  0BBA  0CD2               	rrf	___lmul@multiplier+1,f
  4405  0BBB  0CD1               	rrf	___lmul@multiplier,f
  4406  0BBC  0B89               	decfsz	9,f
  4407  0BBD  2BB8               	goto	u3095
  4408  0BBE  0854               	movf	___lmul@multiplier+3,w
  4409  0BBF  0453               	iorwf	___lmul@multiplier+2,w
  4410  0BC0  0452               	iorwf	___lmul@multiplier+1,w
  4411  0BC1  0451               	iorwf	___lmul@multiplier,w
  4412  0BC2  1D03               	skipz
  4413  0BC3  2BC5               	goto	u3101
  4414  0BC4  2BC6               	goto	u3100
  4415  0BC5                     u3101:
  4416  0BC5  2BA3               	goto	l5390
  4417  0BC6                     u3100:
  4418  0BC6                     l5398:
  4419  0BC6  0876               	movf	___lmul@product+3,w
  4420  0BC7  00D4               	movwf	?___lmul+3
  4421  0BC8  0875               	movf	___lmul@product+2,w
  4422  0BC9  00D3               	movwf	?___lmul+2
  4423  0BCA  0874               	movf	___lmul@product+1,w
  4424  0BCB  00D2               	movwf	?___lmul+1
  4425  0BCC  0873               	movf	___lmul@product,w
  4426  0BCD  00D1               	movwf	?___lmul
  4427  0BCE                     l1346:
  4428  0BCE  0008               	return
  4429  0BCF                     __end_of___lmul:
  4430                           
  4431                           	psect	text9
  4432  01F9                     __ptext9:	
  4433 ;; *************** function __KeyInTx *****************
  4434 ;; Defined at:
  4435 ;;		line 151 in file "../Projects/src/key_and_Other.c"
  4436 ;; Parameters:    Size  Location     Type
  4437 ;;		None
  4438 ;; Auto vars:     Size  Location     Type
  4439 ;;  i               1   27[BANK0 ] unsigned char 
  4440 ;; Return value:  Size  Location     Type
  4441 ;;                  1    wreg      void 
  4442 ;; Registers used:
  4443 ;;		wreg, fsr0l, fsr0h, fsr1l, fsr1h, status,2, status,0, pclath, cstack
  4444 ;; Tracked objects:
  4445 ;;		On entry : 0/0
  4446 ;;		On exit  : 0/0
  4447 ;;		Unchanged: 0/0
  4448 ;; Data sizes:     COMMON   BANK0   BANK1   BANK2   BANK3   BANK4   BANK5   BANK6   BANK7   BANK8   BANK9  BANK10  BANK1
      +1  BANK12
  4449 ;;      Params:         0       0       0       0       0       0       0       0       0       0       0       0       
      +0       0
  4450 ;;      Locals:         0       1       0       0       0       0       0       0       0       0       0       0       
      +0       0
  4451 ;;      Temps:          0       2       0       0       0       0       0       0       0       0       0       0       
      +0       0
  4452 ;;      Totals:         0       3       0       0       0       0       0       0       0       0       0       0       
      +0       0
  4453 ;;Total ram usage:        3 bytes
  4454 ;; Hardware stack levels used:    1
  4455 ;; Hardware stack levels required when called:    8
  4456 ;; This function calls:
  4457 ;;		__ClearSpecialMultiKeyState
  4458 ;;		__DupliFuncClear
  4459 ;;		__FuncAutoTxStart
  4460 ;;		__FuncAutoTxStop
  4461 ;;		__FuncCloseReg
  4462 ;;		__FuncNoPush
  4463 ;;		__FuncOpenReg
  4464 ;;		__FuncOpenStop
  4465 ;;		__FuncReg
  4466 ;;		__FuncStop
  4467 ;;		__FuncStopReg
  4468 ;;		__FuncVentReg
  4469 ;;		__SetKeyChatterCount
  4470 ;;		__SwIn
  4471 ;;		_dd_set_ADF7021_Power_on_Init
  4472 ;; This function is called by:
  4473 ;;		_key_check
  4474 ;; This function uses a non-reentrant model
  4475 ;;
  4476                           
  4477                           
  4478                           ;psect for function __KeyInTx
  4479  01F9                     __KeyInTx:
  4480  01F9                     l5694:	
  4481                           ;incstack = 0
  4482                           ; Regs used in __KeyInTx: [wreg-fsr1h+status,2+status,0+pclath+cstack]
  4483                           
  4484                           
  4485                           ;../Projects/src/key_and_Other.c: 153:  unsigned char i ;;../Projects/src/key_and_Other.
      +                          c: 155:  m_KindOfKey = 0 ;
  4486  01F9  0020               	movlb	0	; select bank0
  4487  01FA  01C2               	clrf	_m_KindOfKey
  4488  01FB                     l5696:
  4489                           
  4490                           ;../Projects/src/key_and_Other.c: 157:  m_KeyNew = 0xFF ;
  4491  01FB  30FF               	movlw	255
  4492  01FC  00EA               	movwf	??__KeyInTx
  4493  01FD  086A               	movf	??__KeyInTx,w
  4494  01FE  00C4               	movwf	_m_KeyNew
  4495  01FF                     l5698:
  4496                           
  4497                           ;../Projects/src/key_and_Other.c: 158:         if(BAT_out==2)return;
  4498  01FF  3002               	movlw	2
  4499  0200  0648               	xorwf	_BAT_out,w
  4500  0201  1D03               	btfss	3,2
  4501  0202  2A04               	goto	u3491
  4502  0203  2A05               	goto	u3490
  4503  0204                     u3491:
  4504  0204  2A06               	goto	l5702
  4505  0205                     u3490:
  4506  0205  2BA1               	goto	l538
  4507  0206                     l5702:
  4508                           
  4509                           ;../Projects/src/key_and_Other.c: 161:  _SwIn( RB4 ) ;
  4510  0206  3000               	movlw	0
  4511  0207  1A0D               	btfsc	13,4	;volatile
  4512  0208  3001               	movlw	1
  4513  0209  3189  2163  3181   	fcall	__SwIn
  4514                           
  4515                           ;../Projects/src/key_and_Other.c: 163:  _SwIn( RC4 ) ;
  4516  020C  3000               	movlw	0
  4517  020D  0020               	movlb	0	; select bank0
  4518  020E  1A0E               	btfsc	14,4	;volatile
  4519  020F  3001               	movlw	1
  4520  0210  3189  2163  3181   	fcall	__SwIn
  4521                           
  4522                           ;../Projects/src/key_and_Other.c: 165:  _SwIn( RA4 ) ;
  4523  0213  3000               	movlw	0
  4524  0214  0020               	movlb	0	; select bank0
  4525  0215  1A0C               	btfsc	12,4	;volatile
  4526  0216  3001               	movlw	1
  4527  0217  3189  2163  3181   	fcall	__SwIn
  4528                           
  4529                           ;../Projects/src/key_and_Other.c: 167:  _SwIn( RA3 ) ;
  4530  021A  3000               	movlw	0
  4531  021B  0020               	movlb	0	; select bank0
  4532  021C  198C               	btfsc	12,3	;volatile
  4533  021D  3001               	movlw	1
  4534  021E  3189  2163  3181   	fcall	__SwIn
  4535                           
  4536                           ;../Projects/src/key_and_Other.c: 170:  _SwIn( RC5 ) ;
  4537  0221  3000               	movlw	0
  4538  0222  0020               	movlb	0	; select bank0
  4539  0223  1A8E               	btfsc	14,5	;volatile
  4540  0224  3001               	movlw	1
  4541  0225  3189  2163  3181   	fcall	__SwIn
  4542                           
  4543                           ;../Projects/src/key_and_Other.c: 172:  _SwIn( 1 ) ;
  4544  0228  3001               	movlw	1
  4545  0229  3189  2163  3181   	fcall	__SwIn
  4546                           
  4547                           ;../Projects/src/key_and_Other.c: 174:  _SwIn( 1 ) ;
  4548  022C  3001               	movlw	1
  4549  022D  3189  2163  3181   	fcall	__SwIn
  4550  0230                     l5704:
  4551                           
  4552                           ;../Projects/src/key_and_Other.c: 177:  if ( m_KeyNew != m_KeyOld )
  4553  0230  0020               	movlb	0	; select bank0
  4554  0231  0844               	movf	_m_KeyNew,w
  4555  0232  0643               	xorwf	_m_KeyOld,w
  4556  0233  1903               	skipnz
  4557  0234  2A36               	goto	u3501
  4558  0235  2A37               	goto	u3500
  4559  0236                     u3501:
  4560  0236  2A4B               	goto	l5716
  4561  0237                     u3500:
  4562  0237                     l5706:
  4563                           
  4564                           ;../Projects/src/key_and_Other.c: 178:  {;../Projects/src/key_and_Other.c: 179:   m_KeyO
      +                          ld = m_KeyNew ;
  4565  0237  0844               	movf	_m_KeyNew,w
  4566  0238  00EA               	movwf	??__KeyInTx
  4567  0239  086A               	movf	??__KeyInTx,w
  4568  023A  00C3               	movwf	_m_KeyOld
  4569  023B                     l5708:
  4570                           
  4571                           ;../Projects/src/key_and_Other.c: 180:   _SetKeyChatterCount() ;
  4572  023B  3189  2144  3181   	fcall	__SetKeyChatterCount
  4573                           
  4574                           ;../Projects/src/key_and_Other.c: 181:   _ClearSpecialMultiKeyState() ;
  4575  023E  3189  2127  3181   	fcall	__ClearSpecialMultiKeyState
  4576  0241                     l5710:
  4577                           
  4578                           ;../Projects/src/key_and_Other.c: 182:                 TIME_Once_twice_switch=5000;
  4579  0241  3088               	movlw	136
  4580  0242  0021               	movlb	1	; select bank1
  4581  0243  00BA               	movwf	_TIME_Once_twice_switch^(0+128)
  4582  0244  3013               	movlw	19
  4583  0245  00BB               	movwf	(_TIME_Once_twice_switch^(0+128)+1)
  4584  0246                     l5712:
  4585                           
  4586                           ;../Projects/src/key_and_Other.c: 183:                 TIME_10s=10100;
  4587  0246  3074               	movlw	116
  4588  0247  00B8               	movwf	_TIME_10s^(0+128)
  4589  0248  3027               	movlw	39
  4590  0249  00B9               	movwf	(_TIME_10s^(0+128)+1)
  4591  024A  2BA1               	goto	l538
  4592  024B                     l5716:
  4593                           
  4594                           ;../Projects/src/key_and_Other.c: 187:  if ( --m_ChatterCount )
  4595  024B  3001               	movlw	1
  4596  024C  0021               	movlb	1	; select bank1
  4597  024D  02B6               	subwf	_m_ChatterCount^(0+128),f
  4598  024E  3000               	movlw	0
  4599  024F  3BB7               	subwfb	(_m_ChatterCount+1)^(0+128),f
  4600  0250  0836               	movf	_m_ChatterCount^(0+128),w
  4601  0251  0437               	iorwf	(_m_ChatterCount+1)^(0+128),w
  4602  0252  1903               	btfsc	3,2
  4603  0253  2A55               	goto	u3511
  4604  0254  2A56               	goto	u3510
  4605  0255                     u3511:
  4606  0255  2A57               	goto	l5720
  4607  0256                     u3510:
  4608  0256  2BA1               	goto	l538
  4609  0257                     l5720:
  4610                           
  4611                           ;../Projects/src/key_and_Other.c: 191:  m_ChatterCount = 1 ;
  4612  0257  3001               	movlw	1
  4613  0258  00B6               	movwf	_m_ChatterCount^(0+128)
  4614  0259  3000               	movlw	0
  4615  025A  00B7               	movwf	(_m_ChatterCount^(0+128)+1)
  4616  025B                     l5722:
  4617                           
  4618                           ;../Projects/src/key_and_Other.c: 194:  if ( m_KeyNew != 0xFF )
  4619  025B  0020               	movlb	0	; select bank0
  4620  025C  0A44               	incf	_m_KeyNew,w
  4621  025D  1903               	btfsc	3,2
  4622  025E  2A60               	goto	u3521
  4623  025F  2A61               	goto	u3520
  4624  0260                     u3521:
  4625  0260  2AC9               	goto	l5754
  4626  0261                     u3520:
  4627  0261                     l5724:
  4628                           
  4629                           ;../Projects/src/key_and_Other.c: 195:  {;../Projects/src/key_and_Other.c: 201:         
      +                             if(TIME_Once_twice_switch)--TIME_Once_twice_switch;
  4630  0261  0021               	movlb	1	; select bank1
  4631  0262  083A               	movf	_TIME_Once_twice_switch^(0+128),w
  4632  0263  043B               	iorwf	(_TIME_Once_twice_switch+1)^(0+128),w
  4633  0264  1903               	btfsc	3,2
  4634  0265  2A67               	goto	u3531
  4635  0266  2A68               	goto	u3530
  4636  0267                     u3531:
  4637  0267  2A6C               	goto	l5728
  4638  0268                     u3530:
  4639  0268                     l5726:
  4640  0268  3001               	movlw	1
  4641  0269  02BA               	subwf	_TIME_Once_twice_switch^(0+128),f
  4642  026A  3000               	movlw	0
  4643  026B  3BBB               	subwfb	(_TIME_Once_twice_switch+1)^(0+128),f
  4644  026C                     l5728:
  4645                           
  4646                           ;../Projects/src/key_and_Other.c: 202:            if(TIME_10s)--TIME_10s;
  4647  026C  0838               	movf	_TIME_10s^(0+128),w
  4648  026D  0439               	iorwf	(_TIME_10s+1)^(0+128),w
  4649  026E  1903               	btfsc	3,2
  4650  026F  2A71               	goto	u3541
  4651  0270  2A72               	goto	u3540
  4652  0271                     u3541:
  4653  0271  2A76               	goto	l5732
  4654  0272                     u3540:
  4655  0272                     l5730:
  4656  0272  3001               	movlw	1
  4657  0273  02B8               	subwf	_TIME_10s^(0+128),f
  4658  0274  3000               	movlw	0
  4659  0275  3BB9               	subwfb	(_TIME_10s+1)^(0+128),f
  4660  0276                     l5732:
  4661                           
  4662                           ;../Projects/src/key_and_Other.c: 203:     dd_set_ADF7021_Power_on_Init();
  4663  0276  318A  224E  3181   	fcall	_dd_set_ADF7021_Power_on_Init
  4664  0279                     l5734:
  4665                           
  4666                           ;../Projects/src/key_and_Other.c: 205:            if((BAT_out==1)||(FG_BAT)||(TIME_10s==
      +                          0)){
  4667  0279  0020               	movlb	0	; select bank0
  4668  027A  0348               	decf	_BAT_out,w
  4669  027B  1903               	btfsc	3,2
  4670  027C  2A7E               	goto	u3551
  4671  027D  2A7F               	goto	u3550
  4672  027E                     u3551:
  4673  027E  2A8B               	goto	l5740
  4674  027F                     u3550:
  4675  027F                     l5736:
  4676  027F  0839               	movf	_FG_BAT,w
  4677  0280  1D03               	btfss	3,2
  4678  0281  2A83               	goto	u3561
  4679  0282  2A84               	goto	u3560
  4680  0283                     u3561:
  4681  0283  2A8B               	goto	l5740
  4682  0284                     u3560:
  4683  0284                     l5738:
  4684  0284  0021               	movlb	1	; select bank1
  4685  0285  0838               	movf	_TIME_10s^(0+128),w
  4686  0286  0439               	iorwf	(_TIME_10s+1)^(0+128),w
  4687  0287  1D03               	btfss	3,2
  4688  0288  2A8A               	goto	u3571
  4689  0289  2A8B               	goto	u3570
  4690  028A                     u3571:
  4691  028A  2AC9               	goto	l5754
  4692  028B                     u3570:
  4693  028B                     l5740:
  4694                           
  4695                           ;../Projects/src/key_and_Other.c: 206:        if(FG_BAT==0){
  4696  028B  0020               	movlb	0	; select bank0
  4697  028C  0839               	movf	_FG_BAT,w
  4698  028D  1D03               	btfss	3,2
  4699  028E  2A90               	goto	u3581
  4700  028F  2A91               	goto	u3580
  4701  0290                     u3581:
  4702  0290  2ABE               	goto	l5750
  4703  0291                     u3580:
  4704  0291                     l5742:
  4705                           
  4706                           ;../Projects/src/key_and_Other.c: 207:           FG_BAT=1;
  4707  0291  01B9               	clrf	_FG_BAT
  4708  0292  0AB9               	incf	_FG_BAT,f
  4709  0293                     l5744:
  4710                           
  4711                           ;../Projects/src/key_and_Other.c: 208:    if(TIME_10s==0){
  4712  0293  0021               	movlb	1	; select bank1
  4713  0294  0838               	movf	_TIME_10s^(0+128),w
  4714  0295  0439               	iorwf	(_TIME_10s+1)^(0+128),w
  4715  0296  1D03               	btfss	3,2
  4716  0297  2A99               	goto	u3591
  4717  0298  2A9A               	goto	u3590
  4718  0299                     u3591:
  4719  0299  2AA4               	goto	l5748
  4720  029A                     u3590:
  4721  029A                     l5746:
  4722                           
  4723                           ;../Projects/src/key_and_Other.c: 209:                            BASE_TIME_BEEP_on=103;
  4724  029A  3067               	movlw	103
  4725  029B  00B4               	movwf	_BASE_TIME_BEEP_on^(0+128)
  4726  029C  3000               	movlw	0
  4727  029D  00B5               	movwf	(_BASE_TIME_BEEP_on^(0+128)+1)
  4728                           
  4729                           ;../Projects/src/key_and_Other.c: 210:                            BASE_TIME_BEEP_off=103
      +                          ;
  4730  029E  3067               	movlw	103
  4731  029F  0020               	movlb	0	; select bank0
  4732  02A0  00EA               	movwf	??__KeyInTx
  4733  02A1  086A               	movf	??__KeyInTx,w
  4734  02A2  00B8               	movwf	_BASE_TIME_BEEP_off
  4735                           
  4736                           ;../Projects/src/key_and_Other.c: 211:                         }
  4737  02A3  2AAD               	goto	l549
  4738  02A4                     l5748:
  4739                           
  4740                           ;../Projects/src/key_and_Other.c: 213:                            BASE_TIME_BEEP_on=40;
  4741  02A4  3028               	movlw	40
  4742  02A5  00B4               	movwf	_BASE_TIME_BEEP_on^(0+128)
  4743  02A6  3000               	movlw	0
  4744  02A7  00B5               	movwf	(_BASE_TIME_BEEP_on^(0+128)+1)
  4745                           
  4746                           ;../Projects/src/key_and_Other.c: 214:                            BASE_TIME_BEEP_off=60;
  4747  02A8  303C               	movlw	60
  4748  02A9  0020               	movlb	0	; select bank0
  4749  02AA  00EA               	movwf	??__KeyInTx
  4750  02AB  086A               	movf	??__KeyInTx,w
  4751  02AC  00B8               	movwf	_BASE_TIME_BEEP_off
  4752  02AD                     l549:	
  4753                           ;../Projects/src/key_and_Other.c: 215:                         }
  4754                           
  4755                           
  4756                           ;../Projects/src/key_and_Other.c: 216:                         TIME_BEEP_on=BASE_TIME_BE
      +                          EP_on;
  4757  02AD  0021               	movlb	1	; select bank1
  4758  02AE  0835               	movf	(_BASE_TIME_BEEP_on+1)^(0+128),w
  4759  02AF  00B3               	movwf	(_TIME_BEEP_on+1)^(0+128)
  4760  02B0  0834               	movf	_BASE_TIME_BEEP_on^(0+128),w
  4761  02B1  00B2               	movwf	_TIME_BEEP_on^(0+128)
  4762                           
  4763                           ;../Projects/src/key_and_Other.c: 217:                         TIME_BEEP_off=BASE_TIME_B
      +                          EEP_off;
  4764  02B2  0020               	movlb	0	; select bank0
  4765  02B3  0838               	movf	_BASE_TIME_BEEP_off,w
  4766  02B4  00EA               	movwf	??__KeyInTx
  4767  02B5  086A               	movf	??__KeyInTx,w
  4768  02B6  0021               	movlb	1	; select bank1
  4769  02B7  00DA               	movwf	_TIME_BEEP_off^(0+128)
  4770                           
  4771                           ;../Projects/src/key_and_Other.c: 218:                         TIME_BEEP_freq=2;
  4772  02B8  3002               	movlw	2
  4773  02B9  0020               	movlb	0	; select bank0
  4774  02BA  00EA               	movwf	??__KeyInTx
  4775  02BB  086A               	movf	??__KeyInTx,w
  4776  02BC  00B7               	movwf	_TIME_BEEP_freq
  4777                           
  4778                           ;../Projects/src/key_and_Other.c: 219:        }
  4779  02BD  2AC9               	goto	l5754
  4780  02BE                     l5750:
  4781  02BE  3002               	movlw	2
  4782  02BF  0237               	subwf	_TIME_BEEP_freq,w
  4783  02C0  1803               	skipnc
  4784  02C1  2AC3               	goto	u3601
  4785  02C2  2AC4               	goto	u3600
  4786  02C3                     u3601:
  4787  02C3  2AC9               	goto	l544
  4788  02C4                     u3600:
  4789  02C4                     l5752:
  4790  02C4  3002               	movlw	2
  4791  02C5  00EA               	movwf	??__KeyInTx
  4792  02C6  086A               	movf	??__KeyInTx,w
  4793  02C7  00B7               	movwf	_TIME_BEEP_freq
  4794  02C8  2AC9               	goto	l5754
  4795  02C9                     l544:	
  4796                           ;../Projects/src/key_and_Other.c: 221:      }
  4797                           
  4798  02C9                     l5754:
  4799                           
  4800                           ;../Projects/src/key_and_Other.c: 225:  for ( i=0; i<17;i++)
  4801  02C9  0020               	movlb	0	; select bank0
  4802  02CA  01EC               	clrf	__KeyInTx@i
  4803  02CB                     l5760:
  4804                           
  4805                           ;../Projects/src/key_and_Other.c: 226:  {;../Projects/src/key_and_Other.c: 227:   if ( m
      +                          _KeyNew == ct_KeyDataTable[i] )
  4806  02CB  086C               	movf	__KeyInTx@i,w
  4807  02CC  3E00               	addlw	low (_ct_KeyDataTable| (0+32768))
  4808  02CD  0084               	movwf	4
  4809  02CE  3090               	movlw	high (_ct_KeyDataTable| (0+32768))
  4810  02CF  1803               	skipnc
  4811  02D0  3E01               	addlw	1
  4812  02D1  0085               	movwf	5
  4813  02D2  0800               	movf	0,w	;code access
  4814  02D3  0644               	xorwf	_m_KeyNew,w
  4815  02D4  1D03               	skipz
  4816  02D5  2AD7               	goto	u3611
  4817  02D6  2AD8               	goto	u3610
  4818  02D7                     u3611:
  4819  02D7  2ADD               	goto	l5764
  4820  02D8                     u3610:
  4821  02D8                     l5762:
  4822                           
  4823                           ;../Projects/src/key_and_Other.c: 228:   {;../Projects/src/key_and_Other.c: 229:    m_Ke
      +                          yNo = i ;
  4824  02D8  086C               	movf	__KeyInTx@i,w
  4825  02D9  00EA               	movwf	??__KeyInTx
  4826  02DA  086A               	movf	??__KeyInTx,w
  4827  02DB  00B6               	movwf	_m_KeyNo
  4828                           
  4829                           ;../Projects/src/key_and_Other.c: 230:    break ;
  4830  02DC  2AE7               	goto	l5768
  4831  02DD                     l5764:
  4832                           
  4833                           ;../Projects/src/key_and_Other.c: 232:  }
  4834  02DD  3001               	movlw	1
  4835  02DE  00EA               	movwf	??__KeyInTx
  4836  02DF  086A               	movf	??__KeyInTx,w
  4837  02E0  07EC               	addwf	__KeyInTx@i,f
  4838  02E1                     l5766:
  4839  02E1  3011               	movlw	17
  4840  02E2  026C               	subwf	__KeyInTx@i,w
  4841  02E3  1C03               	skipc
  4842  02E4  2AE6               	goto	u3621
  4843  02E5  2AE7               	goto	u3620
  4844  02E6                     u3621:
  4845  02E6  2ACB               	goto	l5760
  4846  02E7                     u3620:
  4847  02E7                     l5768:
  4848                           
  4849                           ;../Projects/src/key_and_Other.c: 233:         key_Value=i;
  4850  02E7  086C               	movf	__KeyInTx@i,w
  4851  02E8  00EA               	movwf	??__KeyInTx
  4852  02E9  01EB               	clrf	??__KeyInTx+1
  4853  02EA  086A               	movf	??__KeyInTx,w
  4854  02EB  0021               	movlb	1	; select bank1
  4855  02EC  00B0               	movwf	_key_Value^(0+128)
  4856  02ED  0020               	movlb	0	; select bank0
  4857  02EE  086B               	movf	??__KeyInTx+1,w
  4858  02EF  0021               	movlb	1	; select bank1
  4859  02F0  00B1               	movwf	(_key_Value+1)^(0+128)
  4860  02F1                     l5770:
  4861                           
  4862                           ;../Projects/src/key_and_Other.c: 234:         if(FG_10s==1)return;
  4863  02F1  0020               	movlb	0	; select bank0
  4864  02F2  033D               	decf	_FG_10s,w
  4865  02F3  1D03               	btfss	3,2
  4866  02F4  2AF6               	goto	u3631
  4867  02F5  2AF7               	goto	u3630
  4868  02F6                     u3631:
  4869  02F6  2AF8               	goto	l5774
  4870  02F7                     u3630:
  4871  02F7  2BA1               	goto	l538
  4872  02F8                     l5774:
  4873                           
  4874                           ;../Projects/src/key_and_Other.c: 236:  if ( i == 17)
  4875  02F8  3011               	movlw	17
  4876  02F9  066C               	xorwf	__KeyInTx@i,w
  4877  02FA  1D03               	btfss	3,2
  4878  02FB  2AFD               	goto	u3641
  4879  02FC  2AFE               	goto	u3640
  4880  02FD                     u3641:
  4881  02FD  2B09               	goto	l5786
  4882  02FE                     u3640:
  4883  02FE                     l5776:
  4884                           
  4885                           ;../Projects/src/key_and_Other.c: 237:  {;../Projects/src/key_and_Other.c: 238:   mb_NoP
      +                          ush = 0 ;
  4886  02FE  01C1               	clrf	_mb_NoPush
  4887  02FF                     l5778:
  4888                           
  4889                           ;../Projects/src/key_and_Other.c: 239:   _ClearSpecialMultiKeyState() ;
  4890  02FF  3189  2127  3181   	fcall	__ClearSpecialMultiKeyState
  4891  0302                     l5780:
  4892                           
  4893                           ;../Projects/src/key_and_Other.c: 240:   mb_NoPushWait = 1 ;
  4894  0302  0020               	movlb	0	; select bank0
  4895  0303  01C0               	clrf	_mb_NoPushWait
  4896  0304  0AC0               	incf	_mb_NoPushWait,f
  4897  0305                     l5782:
  4898                           
  4899                           ;../Projects/src/key_and_Other.c: 241:   _DupliFuncClear() ;
  4900  0305  3189  219E  3181   	fcall	__DupliFuncClear
  4901  0308  2BA1               	goto	l538
  4902  0309                     l5786:
  4903                           
  4904                           ;../Projects/src/key_and_Other.c: 245:  if ( mb_NoPushWait )
  4905  0309  0840               	movf	_mb_NoPushWait,w
  4906  030A  1903               	btfsc	3,2
  4907  030B  2B0D               	goto	u3651
  4908  030C  2B0E               	goto	u3650
  4909  030D                     u3651:
  4910  030D  2B64               	goto	l5828
  4911  030E                     u3650:
  4912  030E                     l5788:
  4913                           
  4914                           ;../Projects/src/key_and_Other.c: 246:  {;../Projects/src/key_and_Other.c: 247:   if ( m
      +                          _KeyNew != 0xFF )
  4915  030E  0A44               	incf	_m_KeyNew,w
  4916  030F  1903               	btfsc	3,2
  4917  0310  2B12               	goto	u3661
  4918  0311  2B13               	goto	u3660
  4919  0312                     u3661:
  4920  0312  2B64               	goto	l5828
  4921  0313                     u3660:
  4922  0313                     l5790:
  4923                           
  4924                           ;../Projects/src/key_and_Other.c: 248:   {;../Projects/src/key_and_Other.c: 249:        
      +                                           if(((i==5)||(i==6)||(i==7)||(i==9)||(i==12))&&(FLAG_APP_TX==0));
  4925  0313  3005               	movlw	5
  4926  0314  066C               	xorwf	__KeyInTx@i,w
  4927  0315  1903               	btfsc	3,2
  4928  0316  2B18               	goto	u3671
  4929  0317  2B19               	goto	u3670
  4930  0318                     u3671:
  4931  0318  2B31               	goto	l5800
  4932  0319                     u3670:
  4933  0319                     l5792:
  4934  0319  3006               	movlw	6
  4935  031A  066C               	xorwf	__KeyInTx@i,w
  4936  031B  1903               	btfsc	3,2
  4937  031C  2B1E               	goto	u3681
  4938  031D  2B1F               	goto	u3680
  4939  031E                     u3681:
  4940  031E  2B31               	goto	l5800
  4941  031F                     u3680:
  4942  031F                     l5794:
  4943  031F  3007               	movlw	7
  4944  0320  066C               	xorwf	__KeyInTx@i,w
  4945  0321  1903               	btfsc	3,2
  4946  0322  2B24               	goto	u3691
  4947  0323  2B25               	goto	u3690
  4948  0324                     u3691:
  4949  0324  2B31               	goto	l5800
  4950  0325                     u3690:
  4951  0325                     l5796:
  4952  0325  3009               	movlw	9
  4953  0326  066C               	xorwf	__KeyInTx@i,w
  4954  0327  1903               	btfsc	3,2
  4955  0328  2B2A               	goto	u3701
  4956  0329  2B2B               	goto	u3700
  4957  032A                     u3701:
  4958  032A  2B31               	goto	l5800
  4959  032B                     u3700:
  4960  032B                     l5798:
  4961  032B  300C               	movlw	12
  4962  032C  066C               	xorwf	__KeyInTx@i,w
  4963  032D  1D03               	btfss	3,2
  4964  032E  2B30               	goto	u3711
  4965  032F  2B31               	goto	u3710
  4966  0330                     u3711:
  4967  0330  2BA1               	goto	l538
  4968  0331                     u3710:
  4969  0331                     l5800:
  4970  0331  084F               	movf	_FLAG_APP_TX,w
  4971  0332  1D03               	btfss	3,2
  4972  0333  2B35               	goto	u3721
  4973  0334  2B36               	goto	u3720
  4974  0335                     u3721:
  4975  0335  2BA1               	goto	l538
  4976  0336                     u3720:
  4977  0336  2B64               	goto	l5828
  4978  0337                     l5804:
  4979                           
  4980                           ;../Projects/src/key_and_Other.c: 257:           _FuncReg();
  4981  0337  318D  252F  3181   	fcall	__FuncReg
  4982                           
  4983                           ;../Projects/src/key_and_Other.c: 258:    break ;
  4984  033A  2BA1               	goto	l538
  4985  033B                     l568:	
  4986                           ;../Projects/src/key_and_Other.c: 261:   case 3 :
  4987                           
  4988  033B                     l5806:
  4989                           
  4990                           ;../Projects/src/key_and_Other.c: 263:           if(FLAG_APP_TX==0)_FuncStop();
  4991  033B  084F               	movf	_FLAG_APP_TX,w
  4992  033C  1D03               	btfss	3,2
  4993  033D  2B3F               	goto	u3731
  4994  033E  2B40               	goto	u3730
  4995  033F                     u3731:
  4996  033F  2BA1               	goto	l538
  4997  0340                     u3730:
  4998  0340                     l5808:
  4999  0340  3184  24B4  3181   	fcall	__FuncStop
  5000  0343  2BA1               	goto	l538
  5001  0344                     l574:	
  5002                           ;../Projects/src/key_and_Other.c: 268:   case 9 :
  5003                           
  5004  0344                     l5810:
  5005                           
  5006                           ;../Projects/src/key_and_Other.c: 270:           _FuncOpenStop();
  5007  0344  3189  21B3  3181   	fcall	__FuncOpenStop
  5008                           
  5009                           ;../Projects/src/key_and_Other.c: 271:    break ;
  5010  0347  2BA1               	goto	l538
  5011  0348                     l5812:
  5012                           
  5013                           ;../Projects/src/key_and_Other.c: 273:           _FuncOpenReg();
  5014  0348  318B  2332  3181   	fcall	__FuncOpenReg
  5015                           
  5016                           ;../Projects/src/key_and_Other.c: 274:    break ;
  5017  034B  2BA1               	goto	l538
  5018  034C                     l5814:
  5019                           
  5020                           ;../Projects/src/key_and_Other.c: 276:           _FuncStopReg();
  5021  034C  318A  22F0  3181   	fcall	__FuncStopReg
  5022                           
  5023                           ;../Projects/src/key_and_Other.c: 277:    break ;
  5024  034F  2BA1               	goto	l538
  5025  0350                     l5816:
  5026                           
  5027                           ;../Projects/src/key_and_Other.c: 279:           _FuncCloseReg();
  5028  0350  318A  22CF  3181   	fcall	__FuncCloseReg
  5029                           
  5030                           ;../Projects/src/key_and_Other.c: 280:    break ;
  5031  0353  2BA1               	goto	l538
  5032  0354                     l5818:
  5033                           
  5034                           ;../Projects/src/key_and_Other.c: 282:           _FuncVentReg();
  5035  0354  318B  2311  3181   	fcall	__FuncVentReg
  5036                           
  5037                           ;../Projects/src/key_and_Other.c: 283:    break ;
  5038  0357  2BA1               	goto	l538
  5039  0358                     l5820:
  5040                           
  5041                           ;../Projects/src/key_and_Other.c: 285:           _FuncAutoTxStart();
  5042  0358  3189  211D  3181   	fcall	__FuncAutoTxStart
  5043                           
  5044                           ;../Projects/src/key_and_Other.c: 286:    break ;
  5045  035B  2BA1               	goto	l538
  5046  035C                     l5822:
  5047                           
  5048                           ;../Projects/src/key_and_Other.c: 288:           _FuncAutoTxStop();
  5049  035C  3180  2002  3181   	fcall	__FuncAutoTxStop
  5050                           
  5051                           ;../Projects/src/key_and_Other.c: 289:    break ;
  5052  035F  2BA1               	goto	l538
  5053  0360                     l5824:
  5054                           
  5055                           ;../Projects/src/key_and_Other.c: 291:           _FuncNoPush();
  5056  0360  3189  218D  3181   	fcall	__FuncNoPush
  5057                           
  5058                           ;../Projects/src/key_and_Other.c: 292:    break ;
  5059  0363  2BA1               	goto	l538
  5060  0364                     l5828:
  5061  0364  086C               	movf	__KeyInTx@i,w
  5062  0365  00EA               	movwf	??__KeyInTx
  5063  0366  01EB               	clrf	??__KeyInTx+1
  5064                           
  5065                           ; Switch on 2 bytes has been partitioned into a top level switch of size 1, and 1 sub-sw
      +                          itches
  5066                           ; Switch size 1, requested type "simple"
  5067                           ; Number of cases is 1, Range of values is 0 to 0
  5068                           ; switch strategies available:
  5069                           ; Name         Instructions Cycles
  5070                           ; simple_byte            4     3 (average)
  5071                           ; direct_byte            8     6 (fixed)
  5072                           ; jumptable            260     6 (fixed)
  5073                           ;	Chosen strategy is simple_byte
  5074  0367  086B               	movf	??__KeyInTx+1,w
  5075  0368  3A00               	xorlw	0	; case 0
  5076  0369  1903               	skipnz
  5077  036A  2B6C               	goto	l6758
  5078  036B  2BA1               	goto	l538
  5079  036C                     l6758:
  5080                           
  5081                           ; Switch size 1, requested type "simple"
  5082                           ; Number of cases is 17, Range of values is 0 to 16
  5083                           ; switch strategies available:
  5084                           ; Name         Instructions Cycles
  5085                           ; direct_byte           40     6 (fixed)
  5086                           ; simple_byte           52    27 (average)
  5087                           ; jumptable            260     6 (fixed)
  5088                           ;	Chosen strategy is simple_byte
  5089  036C  086A               	movf	??__KeyInTx,w
  5090  036D  3A00               	xorlw	0	; case 0
  5091  036E  1903               	skipnz
  5092  036F  2B37               	goto	l5804
  5093  0370  3A01               	xorlw	1	; case 1
  5094  0371  1903               	skipnz
  5095  0372  2B3B               	goto	l568
  5096  0373  3A03               	xorlw	3	; case 2
  5097  0374  1903               	skipnz
  5098  0375  2B3B               	goto	l5806
  5099  0376  3A01               	xorlw	1	; case 3
  5100  0377  1903               	skipnz
  5101  0378  2B3B               	goto	l5806
  5102  0379  3A07               	xorlw	7	; case 4
  5103  037A  1903               	skipnz
  5104  037B  2B3B               	goto	l5806
  5105  037C  3A01               	xorlw	1	; case 5
  5106  037D  1903               	skipnz
  5107  037E  2B44               	goto	l574
  5108  037F  3A03               	xorlw	3	; case 6
  5109  0380  1903               	skipnz
  5110  0381  2B44               	goto	l5810
  5111  0382  3A01               	xorlw	1	; case 7
  5112  0383  1903               	skipnz
  5113  0384  2B44               	goto	l5810
  5114  0385  3A0F               	xorlw	15	; case 8
  5115  0386  1903               	skipnz
  5116  0387  2B48               	goto	l5812
  5117  0388  3A01               	xorlw	1	; case 9
  5118  0389  1903               	skipnz
  5119  038A  2B44               	goto	l5810
  5120  038B  3A03               	xorlw	3	; case 10
  5121  038C  1903               	skipnz
  5122  038D  2B4C               	goto	l5814
  5123  038E  3A01               	xorlw	1	; case 11
  5124  038F  1903               	skipnz
  5125  0390  2B50               	goto	l5816
  5126  0391  3A07               	xorlw	7	; case 12
  5127  0392  1903               	skipnz
  5128  0393  2B44               	goto	l5810
  5129  0394  3A01               	xorlw	1	; case 13
  5130  0395  1903               	skipnz
  5131  0396  2B54               	goto	l5818
  5132  0397  3A03               	xorlw	3	; case 14
  5133  0398  1903               	skipnz
  5134  0399  2B58               	goto	l5820
  5135  039A  3A01               	xorlw	1	; case 15
  5136  039B  1903               	skipnz
  5137  039C  2B5C               	goto	l5822
  5138  039D  3A1F               	xorlw	31	; case 16
  5139  039E  1903               	skipnz
  5140  039F  2B60               	goto	l5824
  5141  03A0  2BA1               	goto	l538
  5142  03A1                     l538:
  5143  03A1  0008               	return
  5144  03A2                     __end_of__KeyInTx:
  5145                           
  5146                           	psect	text10
  5147  0A4E                     __ptext10:	
  5148 ;; *************** function _dd_set_ADF7021_Power_on_Init *****************
  5149 ;; Defined at:
  5150 ;;		line 59 in file "../Projects/src/adf7012.c"
  5151 ;; Parameters:    Size  Location     Type
  5152 ;;		None
  5153 ;; Auto vars:     Size  Location     Type
  5154 ;;  register_val    4    0[BANK0 ] struct .
  5155 ;; Return value:  Size  Location     Type
  5156 ;;                  1    wreg      void 
  5157 ;; Registers used:
  5158 ;;		wreg, fsr1l, fsr1h, status,2, status,0, pclath, cstack
  5159 ;; Tracked objects:
  5160 ;;		On entry : 0/0
  5161 ;;		On exit  : 0/0
  5162 ;;		Unchanged: 0/0
  5163 ;; Data sizes:     COMMON   BANK0   BANK1   BANK2   BANK3   BANK4   BANK5   BANK6   BANK7   BANK8   BANK9  BANK10  BANK1
      +1  BANK12
  5164 ;;      Params:         0       0       0       0       0       0       0       0       0       0       0       0       
      +0       0
  5165 ;;      Locals:         0       4       0       0       0       0       0       0       0       0       0       0       
      +0       0
  5166 ;;      Temps:          0       0       0       0       0       0       0       0       0       0       0       0       
      +0       0
  5167 ;;      Totals:         0       4       0       0       0       0       0       0       0       0       0       0       
      +0       0
  5168 ;;Total ram usage:        4 bytes
  5169 ;; Hardware stack levels used:    1
  5170 ;; Hardware stack levels required when called:    3
  5171 ;; This function calls:
  5172 ;;		_dd_write_7021_reg
  5173 ;; This function is called by:
  5174 ;;		__KeyInTx
  5175 ;; This function uses a non-reentrant model
  5176 ;;
  5177                           
  5178                           
  5179                           ;psect for function _dd_set_ADF7021_Power_on_Init
  5180  0A4E                     _dd_set_ADF7021_Power_on_Init:
  5181  0A4E                     l5402:	
  5182                           ;incstack = 0
  5183                           ; Regs used in _dd_set_ADF7021_Power_on_Init: [wreg+fsr1l+fsr1h+status,2+status,0+pclath
      +                          +cstack]
  5184                           
  5185                           
  5186                           ;../Projects/src/adf7012.c: 61:   ADF70XX_REG_T register_value;;../Projects/src/adf7012.
      +                          c: 62:  if (RC2 == 0)
  5187  0A4E  0020               	movlb	0	; select bank0
  5188  0A4F  190E               	btfsc	14,2	;volatile
  5189  0A50  2A52               	goto	u3111
  5190  0A51  2A53               	goto	u3110
  5191  0A52                     u3111:
  5192  0A52  2A6C               	goto	l155
  5193  0A53                     u3110:
  5194  0A53                     l5404:
  5195                           
  5196                           ;../Projects/src/adf7012.c: 63:  {;../Projects/src/adf7012.c: 64:   RC2 = 1;
  5197  0A53  150E               	bsf	14,2	;volatile
  5198  0A54                     l5406:
  5199                           
  5200                           ;../Projects/src/adf7012.c: 74:      register_value.whole_reg = ROM_adf7012_value[3].who
      +                          le_reg & 0xFFFFFFF3;
  5201  0A54  30F3               	movlw	243
  5202  0A55  0021               	movlb	1	; select bank1
  5203  0A56  0567               	andwf	(_ROM_adf7012_value^(0+128)+12),w
  5204  0A57  0020               	movlb	0	; select bank0
  5205  0A58  00D1               	movwf	dd_set_ADF7021_Power_on_Init@register_value
  5206  0A59  30FF               	movlw	255
  5207  0A5A  0021               	movlb	1	; select bank1
  5208  0A5B  0568               	andwf	((_ROM_adf7012_value+1)^(0+128)+12),w
  5209  0A5C  0020               	movlb	0	; select bank0
  5210  0A5D  00D2               	movwf	dd_set_ADF7021_Power_on_Init@register_value+1
  5211  0A5E  30FF               	movlw	255
  5212  0A5F  0021               	movlb	1	; select bank1
  5213  0A60  0569               	andwf	((_ROM_adf7012_value+2)^(0+128)+12),w
  5214  0A61  0020               	movlb	0	; select bank0
  5215  0A62  00D3               	movwf	dd_set_ADF7021_Power_on_Init@register_value+2
  5216  0A63  30FF               	movlw	255
  5217  0A64  0021               	movlb	1	; select bank1
  5218  0A65  056A               	andwf	((_ROM_adf7012_value+3)^(0+128)+12),w
  5219  0A66  0020               	movlb	0	; select bank0
  5220  0A67  00D4               	movwf	dd_set_ADF7021_Power_on_Init@register_value+3
  5221  0A68                     l5408:
  5222                           
  5223                           ;../Projects/src/adf7012.c: 75:             dd_write_7021_reg(&register_value.byte[0]);
  5224  0A68  3051               	movlw	(low (dd_set_ADF7021_Power_on_Init@register_value| 0))& (0+255)
  5225  0A69  318B  23CF  318A   	fcall	_dd_write_7021_reg
  5226  0A6C                     l155:
  5227  0A6C  0008               	return
  5228  0A6D                     __end_of_dd_set_ADF7021_Power_on_Init:
  5229                           
  5230                           	psect	text11
  5231  0963                     __ptext11:	
  5232 ;; *************** function __SwIn *****************
  5233 ;; Defined at:
  5234 ;;		line 1280 in file "../Projects/src/key_and_Other.c"
  5235 ;; Parameters:    Size  Location     Type
  5236 ;;  sw              1    wreg     unsigned char 
  5237 ;; Auto vars:     Size  Location     Type
  5238 ;;  sw              1    3[COMMON] unsigned char 
  5239 ;; Return value:  Size  Location     Type
  5240 ;;                  1    wreg      void 
  5241 ;; Registers used:
  5242 ;;		wreg, status,2, status,0
  5243 ;; Tracked objects:
  5244 ;;		On entry : 0/0
  5245 ;;		On exit  : 0/0
  5246 ;;		Unchanged: 0/0
  5247 ;; Data sizes:     COMMON   BANK0   BANK1   BANK2   BANK3   BANK4   BANK5   BANK6   BANK7   BANK8   BANK9  BANK10  BANK1
      +1  BANK12
  5248 ;;      Params:         0       0       0       0       0       0       0       0       0       0       0       0       
      +0       0
  5249 ;;      Locals:         1       0       0       0       0       0       0       0       0       0       0       0       
      +0       0
  5250 ;;      Temps:          0       0       0       0       0       0       0       0       0       0       0       0       
      +0       0
  5251 ;;      Totals:         1       0       0       0       0       0       0       0       0       0       0       0       
      +0       0
  5252 ;;Total ram usage:        1 bytes
  5253 ;; Hardware stack levels used:    1
  5254 ;; Hardware stack levels required when called:    2
  5255 ;; This function calls:
  5256 ;;		Nothing
  5257 ;; This function is called by:
  5258 ;;		__KeyInTx
  5259 ;; This function uses a non-reentrant model
  5260 ;;
  5261                           
  5262                           
  5263                           ;psect for function __SwIn
  5264  0963                     __SwIn:
  5265                           
  5266                           ;incstack = 0
  5267                           ; Regs used in __SwIn: [wreg+status,2+status,0]
  5268                           ;__SwIn@sw stored from wreg
  5269  0963  00F3               	movwf	__SwIn@sw
  5270  0964                     l3594:
  5271                           
  5272                           ;../Projects/src/key_and_Other.c: 1280: void _SwIn( unsigned char sw );../Projects/src/k
      +                          ey_and_Other.c: 1281: {;../Projects/src/key_and_Other.c: 1282:  m_KeyNew<<= 1 ;
  5273  0964  1003               	clrc
  5274  0965  0020               	movlb	0	; select bank0
  5275  0966  0DC4               	rlf	_m_KeyNew,f
  5276  0967                     l3596:
  5277                           
  5278                           ;../Projects/src/key_and_Other.c: 1283:  if ( sw )
  5279  0967  0873               	movf	__SwIn@sw,w
  5280  0968  1903               	btfsc	3,2
  5281  0969  296B               	goto	u921
  5282  096A  296C               	goto	u920
  5283  096B                     u921:
  5284  096B  296D               	goto	l814
  5285  096C                     u920:
  5286  096C                     l3598:
  5287                           
  5288                           ;../Projects/src/key_and_Other.c: 1284:  {;../Projects/src/key_and_Other.c: 1285:   m_Ke
      +                          yNew |= 1 ;
  5289  096C  1444               	bsf	_m_KeyNew,0
  5290  096D                     l814:
  5291  096D  0008               	return
  5292  096E                     __end_of__SwIn:
  5293                           
  5294                           	psect	text12
  5295  0B11                     __ptext12:	
  5296 ;; *************** function __FuncVentReg *****************
  5297 ;; Defined at:
  5298 ;;		line 367 in file "../Projects/src/key_and_Other.c"
  5299 ;; Parameters:    Size  Location     Type
  5300 ;;		None
  5301 ;; Auto vars:     Size  Location     Type
  5302 ;;		None
  5303 ;; Return value:  Size  Location     Type
  5304 ;;                  1    wreg      void 
  5305 ;; Registers used:
  5306 ;;		wreg, fsr0l, fsr0h, fsr1l, fsr1h, status,2, status,0, pclath, cstack
  5307 ;; Tracked objects:
  5308 ;;		On entry : 0/0
  5309 ;;		On exit  : 0/0
  5310 ;;		Unchanged: 0/0
  5311 ;; Data sizes:     COMMON   BANK0   BANK1   BANK2   BANK3   BANK4   BANK5   BANK6   BANK7   BANK8   BANK9  BANK10  BANK1
      +1  BANK12
  5312 ;;      Params:         0       0       0       0       0       0       0       0       0       0       0       0       
      +0       0
  5313 ;;      Locals:         0       0       0       0       0       0       0       0       0       0       0       0       
      +0       0
  5314 ;;      Temps:          0       1       0       0       0       0       0       0       0       0       0       0       
      +0       0
  5315 ;;      Totals:         0       1       0       0       0       0       0       0       0       0       0       0       
      +0       0
  5316 ;;Total ram usage:        1 bytes
  5317 ;; Hardware stack levels used:    1
  5318 ;; Hardware stack levels required when called:    7
  5319 ;; This function calls:
  5320 ;;		__DupliFuncClear
  5321 ;;		__Pass3secKey
  5322 ;; This function is called by:
  5323 ;;		__KeyInTx
  5324 ;; This function uses a non-reentrant model
  5325 ;;
  5326                           
  5327                           
  5328                           ;psect for function __FuncVentReg
  5329  0B11                     __FuncVentReg:
  5330  0B11                     l5650:	
  5331                           ;incstack = 0
  5332                           ; Regs used in __FuncVentReg: [wreg-fsr1h+status,2+status,0+pclath+cstack]
  5333                           
  5334                           
  5335                           ;../Projects/src/key_and_Other.c: 369:  _DupliFuncClear() ;
  5336  0B11  3189  219E  318B   	fcall	__DupliFuncClear
  5337  0B14                     l5652:
  5338                           
  5339                           ;../Projects/src/key_and_Other.c: 370:  if ( !mb_RegVentSw )
  5340  0B14  0020               	movlb	0	; select bank0
  5341  0B15  0833               	movf	_mb_RegVentSw,w
  5342  0B16  1D03               	btfss	3,2
  5343  0B17  2B19               	goto	u3451
  5344  0B18  2B1A               	goto	u3450
  5345  0B19                     u3451:
  5346  0B19  2B2D               	goto	l5666
  5347  0B1A                     u3450:
  5348  0B1A                     l5654:
  5349                           
  5350                           ;../Projects/src/key_and_Other.c: 371:  {;../Projects/src/key_and_Other.c: 372:   mb_Reg
      +                          VentSw = 1 ;
  5351  0B1A  01B3               	clrf	_mb_RegVentSw
  5352  0B1B  0AB3               	incf	_mb_RegVentSw,f
  5353  0B1C                     l5656:
  5354                           
  5355                           ;../Projects/src/key_and_Other.c: 373:   m_TimerKey = 3000 ;
  5356  0B1C  30B8               	movlw	184
  5357  0B1D  00A4               	movwf	_m_TimerKey
  5358  0B1E  300B               	movlw	11
  5359  0B1F  00A5               	movwf	_m_TimerKey+1
  5360  0B20                     l5658:
  5361                           
  5362                           ;../Projects/src/key_and_Other.c: 374:   if(FG_PWRON==0){
  5363  0B20  083B               	movf	_FG_PWRON,w
  5364  0B21  1D03               	btfss	3,2
  5365  0B22  2B24               	goto	u3461
  5366  0B23  2B25               	goto	u3460
  5367  0B24                     u3461:
  5368  0B24  2B31               	goto	l600
  5369  0B25                     u3460:
  5370  0B25                     l5660:
  5371                           
  5372                           ;../Projects/src/key_and_Other.c: 375:             FG_PWRON=1;
  5373  0B25  01BB               	clrf	_FG_PWRON
  5374  0B26  0ABB               	incf	_FG_PWRON,f
  5375                           
  5376                           ;../Projects/src/key_and_Other.c: 376:             RB7=1;
  5377  0B27  178D               	bsf	13,7	;volatile
  5378  0B28                     l5662:
  5379                           
  5380                           ;../Projects/src/key_and_Other.c: 377:             TB_5s=78;
  5381  0B28  304E               	movlw	78
  5382  0B29  00E9               	movwf	??__FuncVentReg
  5383  0B2A  0869               	movf	??__FuncVentReg,w
  5384  0B2B  00C5               	movwf	_TB_5s
  5385  0B2C  2B31               	goto	l600
  5386  0B2D                     l5666:
  5387                           
  5388                           ;../Projects/src/key_and_Other.c: 382:  _Pass3secKey( 13 ) ;
  5389  0B2D  300D               	movlw	13
  5390  0B2E  3189  21F9  318B   	fcall	__Pass3secKey
  5391  0B31                     l600:
  5392  0B31  0008               	return
  5393  0B32                     __end_of__FuncVentReg:
  5394                           
  5395                           	psect	text13
  5396  0AF0                     __ptext13:	
  5397 ;; *************** function __FuncStopReg *****************
  5398 ;; Defined at:
  5399 ;;		line 390 in file "../Projects/src/key_and_Other.c"
  5400 ;; Parameters:    Size  Location     Type
  5401 ;;		None
  5402 ;; Auto vars:     Size  Location     Type
  5403 ;;		None
  5404 ;; Return value:  Size  Location     Type
  5405 ;;                  1    wreg      void 
  5406 ;; Registers used:
  5407 ;;		wreg, fsr0l, fsr0h, fsr1l, fsr1h, status,2, status,0, pclath, cstack
  5408 ;; Tracked objects:
  5409 ;;		On entry : 0/0
  5410 ;;		On exit  : 0/0
  5411 ;;		Unchanged: 0/0
  5412 ;; Data sizes:     COMMON   BANK0   BANK1   BANK2   BANK3   BANK4   BANK5   BANK6   BANK7   BANK8   BANK9  BANK10  BANK1
      +1  BANK12
  5413 ;;      Params:         0       0       0       0       0       0       0       0       0       0       0       0       
      +0       0
  5414 ;;      Locals:         0       0       0       0       0       0       0       0       0       0       0       0       
      +0       0
  5415 ;;      Temps:          0       1       0       0       0       0       0       0       0       0       0       0       
      +0       0
  5416 ;;      Totals:         0       1       0       0       0       0       0       0       0       0       0       0       
      +0       0
  5417 ;;Total ram usage:        1 bytes
  5418 ;; Hardware stack levels used:    1
  5419 ;; Hardware stack levels required when called:    7
  5420 ;; This function calls:
  5421 ;;		__DupliFuncClear
  5422 ;;		__Pass3secKey
  5423 ;; This function is called by:
  5424 ;;		__KeyInTx
  5425 ;; This function uses a non-reentrant model
  5426 ;;
  5427                           
  5428                           
  5429                           ;psect for function __FuncStopReg
  5430  0AF0                     __FuncStopReg:
  5431  0AF0                     l5614:	
  5432                           ;incstack = 0
  5433                           ; Regs used in __FuncStopReg: [wreg-fsr1h+status,2+status,0+pclath+cstack]
  5434                           
  5435                           
  5436                           ;../Projects/src/key_and_Other.c: 392:  _DupliFuncClear() ;
  5437  0AF0  3189  219E  318A   	fcall	__DupliFuncClear
  5438  0AF3                     l5616:
  5439                           
  5440                           ;../Projects/src/key_and_Other.c: 393:  if ( !mb_RegStopSw )
  5441  0AF3  0020               	movlb	0	; select bank0
  5442  0AF4  0832               	movf	_mb_RegStopSw,w
  5443  0AF5  1D03               	btfss	3,2
  5444  0AF6  2AF8               	goto	u3411
  5445  0AF7  2AF9               	goto	u3410
  5446  0AF8                     u3411:
  5447  0AF8  2B0C               	goto	l5630
  5448  0AF9                     u3410:
  5449  0AF9                     l5618:
  5450                           
  5451                           ;../Projects/src/key_and_Other.c: 394:  {;../Projects/src/key_and_Other.c: 395:   mb_Reg
      +                          StopSw = 1 ;
  5452  0AF9  01B2               	clrf	_mb_RegStopSw
  5453  0AFA  0AB2               	incf	_mb_RegStopSw,f
  5454  0AFB                     l5620:
  5455                           
  5456                           ;../Projects/src/key_and_Other.c: 396:   m_TimerKey = 3000 ;
  5457  0AFB  30B8               	movlw	184
  5458  0AFC  00A4               	movwf	_m_TimerKey
  5459  0AFD  300B               	movlw	11
  5460  0AFE  00A5               	movwf	_m_TimerKey+1
  5461  0AFF                     l5622:
  5462                           
  5463                           ;../Projects/src/key_and_Other.c: 397:   if(FG_PWRON==0){
  5464  0AFF  083B               	movf	_FG_PWRON,w
  5465  0B00  1D03               	btfss	3,2
  5466  0B01  2B03               	goto	u3421
  5467  0B02  2B04               	goto	u3420
  5468  0B03                     u3421:
  5469  0B03  2B10               	goto	l605
  5470  0B04                     u3420:
  5471  0B04                     l5624:
  5472                           
  5473                           ;../Projects/src/key_and_Other.c: 398:             FG_PWRON=1;
  5474  0B04  01BB               	clrf	_FG_PWRON
  5475  0B05  0ABB               	incf	_FG_PWRON,f
  5476                           
  5477                           ;../Projects/src/key_and_Other.c: 399:             RB7=1;
  5478  0B06  178D               	bsf	13,7	;volatile
  5479  0B07                     l5626:
  5480                           
  5481                           ;../Projects/src/key_and_Other.c: 400:             TB_5s=78;
  5482  0B07  304E               	movlw	78
  5483  0B08  00E9               	movwf	??__FuncStopReg
  5484  0B09  0869               	movf	??__FuncStopReg,w
  5485  0B0A  00C5               	movwf	_TB_5s
  5486  0B0B  2B10               	goto	l605
  5487  0B0C                     l5630:
  5488                           
  5489                           ;../Projects/src/key_and_Other.c: 405:  _Pass3secKey( 10 ) ;
  5490  0B0C  300A               	movlw	10
  5491  0B0D  3189  21F9  318A   	fcall	__Pass3secKey
  5492  0B10                     l605:
  5493  0B10  0008               	return
  5494  0B11                     __end_of__FuncStopReg:
  5495                           
  5496                           	psect	text14
  5497  04B4                     __ptext14:	
  5498 ;; *************** function __FuncStop *****************
  5499 ;; Defined at:
  5500 ;;		line 469 in file "../Projects/src/key_and_Other.c"
  5501 ;; Parameters:    Size  Location     Type
  5502 ;;		None
  5503 ;; Auto vars:     Size  Location     Type
  5504 ;;		None
  5505 ;; Return value:  Size  Location     Type
  5506 ;;                  1    wreg      void 
  5507 ;; Registers used:
  5508 ;;		wreg, fsr0l, fsr0h, fsr1l, fsr1h, status,2, status,0, pclath, cstack
  5509 ;; Tracked objects:
  5510 ;;		On entry : 0/0
  5511 ;;		On exit  : 0/0
  5512 ;;		Unchanged: 0/0
  5513 ;; Data sizes:     COMMON   BANK0   BANK1   BANK2   BANK3   BANK4   BANK5   BANK6   BANK7   BANK8   BANK9  BANK10  BANK1
      +1  BANK12
  5514 ;;      Params:         0       0       0       0       0       0       0       0       0       0       0       0       
      +0       0
  5515 ;;      Locals:         0       0       0       0       0       0       0       0       0       0       0       0       
      +0       0
  5516 ;;      Temps:          0       2       0       0       0       0       0       0       0       0       0       0       
      +0       0
  5517 ;;      Totals:         0       2       0       0       0       0       0       0       0       0       0       0       
      +0       0
  5518 ;;Total ram usage:        2 bytes
  5519 ;; Hardware stack levels used:    1
  5520 ;; Hardware stack levels required when called:    6
  5521 ;; This function calls:
  5522 ;;		__DupliFuncClear
  5523 ;;		__GetNoPushState
  5524 ;;		__ReqBuzzer
  5525 ;;		__ReqTxdEdit
  5526 ;; This function is called by:
  5527 ;;		__KeyInTx
  5528 ;; This function uses a non-reentrant model
  5529 ;;
  5530                           
  5531                           
  5532                           ;psect for function __FuncStop
  5533  04B4                     __FuncStop:
  5534  04B4                     l5458:	
  5535                           ;incstack = 0
  5536                           ; Regs used in __FuncStop: [wreg-fsr1h+status,2+status,0+pclath+cstack]
  5537                           
  5538                           
  5539                           ;../Projects/src/key_and_Other.c: 471:  if ( _GetNoPushState() )
  5540  04B4  3189  217D  3184   	fcall	__GetNoPushState
  5541  04B7  3A00               	xorlw	0
  5542  04B8  1903               	skipnz
  5543  04B9  2CBB               	goto	u3191
  5544  04BA  2CBC               	goto	u3190
  5545  04BB                     u3191:
  5546  04BB  2D21               	goto	l5508
  5547  04BC                     u3190:
  5548  04BC                     l5460:
  5549                           
  5550                           ;../Projects/src/key_and_Other.c: 472:  {;../Projects/src/key_and_Other.c: 473:   if ( m
      +                          b_OpenSw || mb_StopSw || mb_CloseSw )
  5551  04BC  0020               	movlb	0	; select bank0
  5552  04BD  082E               	movf	_mb_OpenSw,w
  5553  04BE  1D03               	btfss	3,2
  5554  04BF  2CC1               	goto	u3201
  5555  04C0  2CC2               	goto	u3200
  5556  04C1                     u3201:
  5557  04C1  2CCC               	goto	l5466
  5558  04C2                     u3200:
  5559  04C2                     l5462:
  5560  04C2  082D               	movf	_mb_StopSw,w
  5561  04C3  1D03               	btfss	3,2
  5562  04C4  2CC6               	goto	u3211
  5563  04C5  2CC7               	goto	u3210
  5564  04C6                     u3211:
  5565  04C6  2CCC               	goto	l5466
  5566  04C7                     u3210:
  5567  04C7                     l5464:
  5568  04C7  082C               	movf	_mb_CloseSw,w
  5569  04C8  1903               	btfsc	3,2
  5570  04C9  2CCB               	goto	u3221
  5571  04CA  2CCC               	goto	u3220
  5572  04CB                     u3221:
  5573  04CB  2DC4               	goto	l631
  5574  04CC                     u3220:
  5575  04CC                     l5466:
  5576                           
  5577                           ;../Projects/src/key_and_Other.c: 474:   {;../Projects/src/key_and_Other.c: 475:    if (
      +                          ( !m_TimerKey )&&(FG_BAT==0)&&(TIME_Once_twice_switch==0))
  5578  04CC  0824               	movf	_m_TimerKey,w
  5579  04CD  0425               	iorwf	_m_TimerKey+1,w
  5580  04CE  1D03               	btfss	3,2
  5581  04CF  2CD1               	goto	u3231
  5582  04D0  2CD2               	goto	u3230
  5583  04D1                     u3231:
  5584  04D1  2DC4               	goto	l631
  5585  04D2                     u3230:
  5586  04D2                     l5468:
  5587  04D2  0839               	movf	_FG_BAT,w
  5588  04D3  1D03               	btfss	3,2
  5589  04D4  2CD6               	goto	u3241
  5590  04D5  2CD7               	goto	u3240
  5591  04D6                     u3241:
  5592  04D6  2DC4               	goto	l631
  5593  04D7                     u3240:
  5594  04D7                     l5470:
  5595  04D7  0021               	movlb	1	; select bank1
  5596  04D8  083A               	movf	_TIME_Once_twice_switch^(0+128),w
  5597  04D9  043B               	iorwf	(_TIME_Once_twice_switch+1)^(0+128),w
  5598  04DA  1D03               	btfss	3,2
  5599  04DB  2CDD               	goto	u3251
  5600  04DC  2CDE               	goto	u3250
  5601  04DD                     u3251:
  5602  04DD  2DC4               	goto	l631
  5603  04DE                     u3250:
  5604  04DE                     l5472:
  5605                           
  5606                           ;../Projects/src/key_and_Other.c: 476:    {;../Projects/src/key_and_Other.c: 479:      i
      +                          f ( mb_OpenSw || mb_CloseSw )
  5607  04DE  0020               	movlb	0	; select bank0
  5608  04DF  082E               	movf	_mb_OpenSw,w
  5609  04E0  1D03               	btfss	3,2
  5610  04E1  2CE3               	goto	u3261
  5611  04E2  2CE4               	goto	u3260
  5612  04E3                     u3261:
  5613  04E3  2CE9               	goto	l5476
  5614  04E4                     u3260:
  5615  04E4                     l5474:
  5616  04E4  082C               	movf	_mb_CloseSw,w
  5617  04E5  1903               	btfsc	3,2
  5618  04E6  2CE8               	goto	u3271
  5619  04E7  2CE9               	goto	u3270
  5620  04E8                     u3271:
  5621  04E8  2CF1               	goto	l628
  5622  04E9                     u3270:
  5623  04E9                     l5476:
  5624                           
  5625                           ;../Projects/src/key_and_Other.c: 480:      {;../Projects/src/key_and_Other.c: 481:     
      +                            m_KeyOptSetMode = 10 ;
  5626  04E9  300A               	movlw	10
  5627  04EA  00E8               	movwf	??__FuncStop
  5628  04EB  0868               	movf	??__FuncStop,w
  5629  04EC  00BA               	movwf	_m_KeyOptSetMode
  5630  04ED                     l5478:
  5631                           
  5632                           ;../Projects/src/key_and_Other.c: 484:       m_KindOfKey = 0 ;
  5633  04ED  01C2               	clrf	_m_KindOfKey
  5634  04EE                     l5480:
  5635                           
  5636                           ;../Projects/src/key_and_Other.c: 485:       mb_NoPushWait = 1 ;
  5637  04EE  01C0               	clrf	_mb_NoPushWait
  5638  04EF  0AC0               	incf	_mb_NoPushWait,f
  5639  04F0  2DC4               	goto	l631
  5640  04F1                     l628:	
  5641                           ;../Projects/src/key_and_Other.c: 487:      }
  5642                           
  5643                           
  5644                           ;../Projects/src/key_and_Other.c: 488:      m_KeyOptSetMode = 1 ;
  5645  04F1  01BA               	clrf	_m_KeyOptSetMode
  5646  04F2  0ABA               	incf	_m_KeyOptSetMode,f
  5647  04F3                     l5484:
  5648                           
  5649                           ;../Projects/src/key_and_Other.c: 490:      _ReqBuzzer(103,103,1);
  5650  04F3  3067               	movlw	103
  5651  04F4  00F3               	movwf	__ReqBuzzer@BEEP_on_SET
  5652  04F5  3000               	movlw	0
  5653  04F6  00F4               	movwf	__ReqBuzzer@BEEP_on_SET+1
  5654  04F7  3067               	movlw	103
  5655  04F8  00E8               	movwf	??__FuncStop
  5656  04F9  0868               	movf	??__FuncStop,w
  5657  04FA  00F5               	movwf	__ReqBuzzer@BEEP_off_SET
  5658  04FB  01F6               	clrf	__ReqBuzzer@BEEP_freq_SET
  5659  04FC  0AF6               	incf	__ReqBuzzer@BEEP_freq_SET,f
  5660  04FD  318A  22AE  3184   	fcall	__ReqBuzzer
  5661  0500                     l5486:
  5662                           
  5663                           ;../Projects/src/key_and_Other.c: 491:       FG_LED_on=1;
  5664  0500  0021               	movlb	1	; select bank1
  5665  0501  01D9               	clrf	_FG_LED_on^(0+128)
  5666  0502  0AD9               	incf	_FG_LED_on^(0+128),f
  5667  0503                     l5488:
  5668                           
  5669                           ;../Projects/src/key_and_Other.c: 492:       if(FG_PWRON==0){
  5670  0503  0020               	movlb	0	; select bank0
  5671  0504  083B               	movf	_FG_PWRON,w
  5672  0505  1D03               	btfss	3,2
  5673  0506  2D08               	goto	u3281
  5674  0507  2D09               	goto	u3280
  5675  0508                     u3281:
  5676  0508  2D10               	goto	l632
  5677  0509                     u3280:
  5678  0509                     l5490:
  5679                           
  5680                           ;../Projects/src/key_and_Other.c: 493:                                              FG_P
      +                          WRON=1;
  5681  0509  01BB               	clrf	_FG_PWRON
  5682  050A  0ABB               	incf	_FG_PWRON,f
  5683                           
  5684                           ;../Projects/src/key_and_Other.c: 494:                                              RB7=
      +                          1;
  5685  050B  178D               	bsf	13,7	;volatile
  5686  050C                     l5492:
  5687                           
  5688                           ;../Projects/src/key_and_Other.c: 495:                                              TB_5
      +                          s=TB_51s;
  5689  050C  0846               	movf	_TB_51s,w
  5690  050D  00E8               	movwf	??__FuncStop
  5691  050E  0868               	movf	??__FuncStop,w
  5692  050F  00C5               	movwf	_TB_5s
  5693  0510                     l632:	
  5694                           ;../Projects/src/key_and_Other.c: 496:                                                 }
  5695                           
  5696                           
  5697                           ;../Projects/src/key_and_Other.c: 497:      m_KeyDupliSetTimeout = 4000 ;
  5698  0510  30A0               	movlw	160
  5699  0511  00A2               	movwf	_m_KeyDupliSetTimeout
  5700  0512  300F               	movlw	15
  5701  0513  00A3               	movwf	_m_KeyDupliSetTimeout+1
  5702  0514                     l5494:
  5703                           
  5704                           ;../Projects/src/key_and_Other.c: 498:      m_KindOfKey = 0 ;
  5705  0514  01C2               	clrf	_m_KindOfKey
  5706  0515                     l5496:
  5707                           
  5708                           ;../Projects/src/key_and_Other.c: 499:      mb_NoPush=0;
  5709  0515  01C1               	clrf	_mb_NoPush
  5710  0516                     l5498:
  5711                           
  5712                           ;../Projects/src/key_and_Other.c: 500:      mb_NoPushWait = 1 ;
  5713  0516  01C0               	clrf	_mb_NoPushWait
  5714  0517  0AC0               	incf	_mb_NoPushWait,f
  5715  0518                     l5500:
  5716                           
  5717                           ;../Projects/src/key_and_Other.c: 501:      m_KeyOptSetOpenStop = 1 ;
  5718  0518  01AB               	clrf	_m_KeyOptSetOpenStop
  5719  0519  0AAB               	incf	_m_KeyOptSetOpenStop,f
  5720  051A                     l5502:
  5721                           
  5722                           ;../Projects/src/key_and_Other.c: 502:      if ( mb_OpenSw )
  5723  051A  082E               	movf	_mb_OpenSw,w
  5724  051B  1903               	btfsc	3,2
  5725  051C  2D1E               	goto	u3291
  5726  051D  2D1F               	goto	u3290
  5727  051E                     u3291:
  5728  051E  2DC4               	goto	l631
  5729  051F                     u3290:
  5730  051F                     l5504:
  5731                           
  5732                           ;../Projects/src/key_and_Other.c: 503:      {;../Projects/src/key_and_Other.c: 504:     
      +                            m_KeyOptSetOpenStop = 0 ;
  5733  051F  01AB               	clrf	_m_KeyOptSetOpenStop
  5734  0520  2DC4               	goto	l631
  5735  0521                     l5508:
  5736                           
  5737                           ;../Projects/src/key_and_Other.c: 514:  m_KindOfKey = m_KeyNo ;
  5738  0521  0020               	movlb	0	; select bank0
  5739  0522  0836               	movf	_m_KeyNo,w
  5740  0523  00E8               	movwf	??__FuncStop
  5741  0524  0868               	movf	??__FuncStop,w
  5742  0525  00C2               	movwf	_m_KindOfKey
  5743  0526                     l5510:
  5744                           
  5745                           ;../Projects/src/key_and_Other.c: 515:  if ( m_KeyOptSetMode ||m_RegMode)
  5746  0526  083A               	movf	_m_KeyOptSetMode,w
  5747  0527  1D03               	btfss	3,2
  5748  0528  2D2A               	goto	u3301
  5749  0529  2D2B               	goto	u3300
  5750  052A                     u3301:
  5751  052A  2DC4               	goto	l631
  5752  052B                     u3300:
  5753  052B                     l5512:
  5754  052B  084C               	movf	_m_RegMode,w
  5755  052C  1903               	btfsc	3,2
  5756  052D  2D2F               	goto	u3311
  5757  052E  2D30               	goto	u3310
  5758  052F                     u3311:
  5759  052F  2D3E               	goto	l5522
  5760  0530                     u3310:
  5761  0530  2DC4               	goto	l631
  5762  0531                     l638:	
  5763                           ;../Projects/src/key_and_Other.c: 521:  {;../Projects/src/key_and_Other.c: 522:   case 1
      +                           :
  5764                           
  5765                           
  5766                           ;../Projects/src/key_and_Other.c: 523:    mb_OpenSw = 1 ;
  5767  0531  01AE               	clrf	_mb_OpenSw
  5768  0532  0AAE               	incf	_mb_OpenSw,f
  5769  0533                     l5514:
  5770                           
  5771                           ;../Projects/src/key_and_Other.c: 524:    m_TimerKey = 5000 ;
  5772  0533  3088               	movlw	136
  5773  0534  00A4               	movwf	_m_TimerKey
  5774  0535  3013               	movlw	19
  5775  0536  00A5               	movwf	_m_TimerKey+1
  5776                           
  5777                           ;../Projects/src/key_and_Other.c: 525:    break;
  5778  0537  2D51               	goto	l5524
  5779  0538                     l640:	
  5780                           ;../Projects/src/key_and_Other.c: 527:   case 2 :
  5781                           
  5782                           
  5783                           ;../Projects/src/key_and_Other.c: 528:    mb_StopSw = 1 ;
  5784  0538  01AD               	clrf	_mb_StopSw
  5785  0539  0AAD               	incf	_mb_StopSw,f
  5786  053A  2D33               	goto	l5514
  5787  053B                     l641:	
  5788                           ;../Projects/src/key_and_Other.c: 532:   case 3 :
  5789                           
  5790                           
  5791                           ;../Projects/src/key_and_Other.c: 533:    mb_CloseSw = 1 ;
  5792  053B  01AC               	clrf	_mb_CloseSw
  5793  053C  0AAC               	incf	_mb_CloseSw,f
  5794  053D  2D33               	goto	l5514
  5795  053E                     l5522:
  5796  053E  0842               	movf	_m_KindOfKey,w
  5797  053F  00E8               	movwf	??__FuncStop
  5798  0540  01E9               	clrf	??__FuncStop+1
  5799                           
  5800                           ; Switch on 2 bytes has been partitioned into a top level switch of size 1, and 1 sub-sw
      +                          itches
  5801                           ; Switch size 1, requested type "simple"
  5802                           ; Number of cases is 1, Range of values is 0 to 0
  5803                           ; switch strategies available:
  5804                           ; Name         Instructions Cycles
  5805                           ; simple_byte            4     3 (average)
  5806                           ; direct_byte            8     6 (fixed)
  5807                           ; jumptable            260     6 (fixed)
  5808                           ;	Chosen strategy is simple_byte
  5809  0541  0869               	movf	??__FuncStop+1,w
  5810  0542  3A00               	xorlw	0	; case 0
  5811  0543  1903               	skipnz
  5812  0544  2D46               	goto	l6760
  5813  0545  2D51               	goto	l5524
  5814  0546                     l6760:
  5815                           
  5816                           ; Switch size 1, requested type "simple"
  5817                           ; Number of cases is 3, Range of values is 1 to 3
  5818                           ; switch strategies available:
  5819                           ; Name         Instructions Cycles
  5820                           ; simple_byte           10     6 (average)
  5821                           ; direct_byte           15     9 (fixed)
  5822                           ; jumptable            263     9 (fixed)
  5823                           ;	Chosen strategy is simple_byte
  5824  0546  0868               	movf	??__FuncStop,w
  5825  0547  3A01               	xorlw	1	; case 1
  5826  0548  1903               	skipnz
  5827  0549  2D31               	goto	l638
  5828  054A  3A03               	xorlw	3	; case 2
  5829  054B  1903               	skipnz
  5830  054C  2D38               	goto	l640
  5831  054D  3A01               	xorlw	1	; case 3
  5832  054E  1903               	skipnz
  5833  054F  2D3B               	goto	l641
  5834  0550  2D51               	goto	l5524
  5835  0551                     l5524:
  5836                           
  5837                           ;../Projects/src/key_and_Other.c: 539:  if ( !rom_KeyOpt || m_KindOfKey == 4 )
  5838  0551  087A               	movf	_rom_KeyOpt,w
  5839  0552  1903               	btfsc	3,2
  5840  0553  2D55               	goto	u3321
  5841  0554  2D56               	goto	u3320
  5842  0555                     u3321:
  5843  0555  2D5C               	goto	l5528
  5844  0556                     u3320:
  5845  0556                     l5526:
  5846  0556  3004               	movlw	4
  5847  0557  0642               	xorwf	_m_KindOfKey,w
  5848  0558  1D03               	btfss	3,2
  5849  0559  2D5B               	goto	u3331
  5850  055A  2D5C               	goto	u3330
  5851  055B                     u3331:
  5852  055B  2D6C               	goto	l5536
  5853  055C                     u3330:
  5854  055C                     l5528:
  5855                           
  5856                           ;../Projects/src/key_and_Other.c: 543:  {;../Projects/src/key_and_Other.c: 544:   _Dupli
      +                          FuncClear() ;
  5857  055C  3189  219E  3184   	fcall	__DupliFuncClear
  5858  055F                     l5530:
  5859                           
  5860                           ;../Projects/src/key_and_Other.c: 545:   _ReqTxdEdit( m_KeyNo,m_KeyNo ) ;
  5861  055F  0020               	movlb	0	; select bank0
  5862  0560  0836               	movf	_m_KeyNo,w
  5863  0561  00E8               	movwf	??__FuncStop
  5864  0562  0868               	movf	??__FuncStop,w
  5865  0563  00E2               	movwf	__ReqTxdEdit@buzreq
  5866  0564  0836               	movf	_m_KeyNo,w
  5867  0565  3183  23A2  3184   	fcall	__ReqTxdEdit
  5868  0568                     l5532:
  5869                           
  5870                           ;../Projects/src/key_and_Other.c: 546:   m_TimerKeyMonitor = 0 ;
  5871  0568  0021               	movlb	1	; select bank1
  5872  0569  01C0               	clrf	_m_TimerKeyMonitor^(0+128)
  5873  056A  01C1               	clrf	(_m_TimerKeyMonitor+1)^(0+128)
  5874  056B  2DC4               	goto	l631
  5875  056C                     l5536:
  5876                           
  5877                           ;../Projects/src/key_and_Other.c: 551:  if ( m_KeyOptSetMode || m_RegMode )
  5878  056C  083A               	movf	_m_KeyOptSetMode,w
  5879  056D  1D03               	btfss	3,2
  5880  056E  2D70               	goto	u3341
  5881  056F  2D71               	goto	u3340
  5882  0570                     u3341:
  5883  0570  2DC4               	goto	l631
  5884  0571                     u3340:
  5885  0571                     l5538:
  5886  0571  084C               	movf	_m_RegMode,w
  5887  0572  1903               	btfsc	3,2
  5888  0573  2D75               	goto	u3351
  5889  0574  2D76               	goto	u3350
  5890  0575                     u3351:
  5891  0575  2D77               	goto	l5540
  5892  0576                     u3350:
  5893  0576  2DC4               	goto	l631
  5894  0577                     l5540:
  5895                           
  5896                           ;../Projects/src/key_and_Other.c: 556:  if ( m_KindOfKey == 2 )
  5897  0577  3002               	movlw	2
  5898  0578  0642               	xorwf	_m_KindOfKey,w
  5899  0579  1D03               	btfss	3,2
  5900  057A  2D7C               	goto	u3361
  5901  057B  2D7D               	goto	u3360
  5902  057C                     u3361:
  5903  057C  2DB4               	goto	l5572
  5904  057D                     u3360:
  5905  057D                     l5542:
  5906                           
  5907                           ;../Projects/src/key_and_Other.c: 557:  {;../Projects/src/key_and_Other.c: 558:   _Dupli
      +                          FuncClear() ;
  5908  057D  3189  219E  3184   	fcall	__DupliFuncClear
  5909  0580                     l5544:
  5910                           
  5911                           ;../Projects/src/key_and_Other.c: 559:   _ReqTxdEdit( m_KeyNo,m_KeyNo ) ;
  5912  0580  0020               	movlb	0	; select bank0
  5913  0581  0836               	movf	_m_KeyNo,w
  5914  0582  00E8               	movwf	??__FuncStop
  5915  0583  0868               	movf	??__FuncStop,w
  5916  0584  00E2               	movwf	__ReqTxdEdit@buzreq
  5917  0585  0836               	movf	_m_KeyNo,w
  5918  0586  3183  23A2  3184   	fcall	__ReqTxdEdit
  5919  0589                     l5546:
  5920                           
  5921                           ;../Projects/src/key_and_Other.c: 560:   m_TimerKeyMonitor = 0 ;
  5922  0589  0021               	movlb	1	; select bank1
  5923  058A  01C0               	clrf	_m_TimerKeyMonitor^(0+128)
  5924  058B  01C1               	clrf	(_m_TimerKeyMonitor+1)^(0+128)
  5925  058C                     l5548:
  5926                           
  5927                           ;../Projects/src/key_and_Other.c: 561:   FG_d_StopKey=1;
  5928  058C  0020               	movlb	0	; select bank0
  5929  058D  01BE               	clrf	_FG_d_StopKey
  5930  058E  0ABE               	incf	_FG_d_StopKey,f
  5931  058F                     l5550:
  5932                           
  5933                           ;../Projects/src/key_and_Other.c: 562:   m_KeyDupli1stTimer = 3000 ;
  5934  058F  30B8               	movlw	184
  5935  0590  00A0               	movwf	_m_KeyDupli1stTimer
  5936  0591  300B               	movlw	11
  5937  0592  00A1               	movwf	_m_KeyDupli1stTimer+1
  5938  0593                     l5552:
  5939                           
  5940                           ;../Projects/src/key_and_Other.c: 563:   time_led=0;
  5941  0593  0021               	movlb	1	; select bank1
  5942  0594  01BC               	clrf	_time_led^(0+128)
  5943  0595  01BD               	clrf	(_time_led+1)^(0+128)
  5944  0596  2DC4               	goto	l631
  5945  0597                     l5556:
  5946                           
  5947                           ;../Projects/src/key_and_Other.c: 595:    if ( FG_d_StopKey && m_KeyDupli1stTimer)
  5948  0597  083E               	movf	_FG_d_StopKey,w
  5949  0598  1903               	btfsc	3,2
  5950  0599  2D9B               	goto	u3371
  5951  059A  2D9C               	goto	u3370
  5952  059B                     u3371:
  5953  059B  2DC4               	goto	l631
  5954  059C                     u3370:
  5955  059C                     l5558:
  5956  059C  0820               	movf	_m_KeyDupli1stTimer,w
  5957  059D  0421               	iorwf	_m_KeyDupli1stTimer+1,w
  5958  059E  1903               	btfsc	3,2
  5959  059F  2DA1               	goto	u3381
  5960  05A0  2DA2               	goto	u3380
  5961  05A1                     u3381:
  5962  05A1  2DC4               	goto	l631
  5963  05A2                     u3380:
  5964  05A2                     l5560:
  5965                           
  5966                           ;../Projects/src/key_and_Other.c: 596:    {;../Projects/src/key_and_Other.c: 597:       
      +                               FG_d_StopKey=0;
  5967  05A2  01BE               	clrf	_FG_d_StopKey
  5968                           
  5969                           ;../Projects/src/key_and_Other.c: 598:     m_KeyDupli1stTimer=0;
  5970  05A3  01A0               	clrf	_m_KeyDupli1stTimer
  5971  05A4  01A1               	clrf	_m_KeyDupli1stTimer+1
  5972  05A5                     l5562:
  5973                           
  5974                           ;../Projects/src/key_and_Other.c: 599:     _ReqTxdEdit( m_KeyNo,m_KeyNo ) ;
  5975  05A5  0836               	movf	_m_KeyNo,w
  5976  05A6  00E8               	movwf	??__FuncStop
  5977  05A7  0868               	movf	??__FuncStop,w
  5978  05A8  00E2               	movwf	__ReqTxdEdit@buzreq
  5979  05A9  0836               	movf	_m_KeyNo,w
  5980  05AA  3183  23A2  3184   	fcall	__ReqTxdEdit
  5981  05AD                     l5564:
  5982                           
  5983                           ;../Projects/src/key_and_Other.c: 600:     m_TimerKeyMonitor = 0 ;
  5984  05AD  0021               	movlb	1	; select bank1
  5985  05AE  01C0               	clrf	_m_TimerKeyMonitor^(0+128)
  5986  05AF  01C1               	clrf	(_m_TimerKeyMonitor+1)^(0+128)
  5987  05B0                     l5566:
  5988                           
  5989                           ;../Projects/src/key_and_Other.c: 601:     _DupliFuncClear() ;
  5990  05B0  3189  219E  3184   	fcall	__DupliFuncClear
  5991  05B3  2DC4               	goto	l631
  5992  05B4                     l5572:
  5993  05B4  0842               	movf	_m_KindOfKey,w
  5994  05B5  00E8               	movwf	??__FuncStop
  5995  05B6  01E9               	clrf	??__FuncStop+1
  5996                           
  5997                           ; Switch on 2 bytes has been partitioned into a top level switch of size 1, and 1 sub-sw
      +                          itches
  5998                           ; Switch size 1, requested type "simple"
  5999                           ; Number of cases is 1, Range of values is 0 to 0
  6000                           ; switch strategies available:
  6001                           ; Name         Instructions Cycles
  6002                           ; simple_byte            4     3 (average)
  6003                           ; direct_byte            8     6 (fixed)
  6004                           ; jumptable            260     6 (fixed)
  6005                           ;	Chosen strategy is simple_byte
  6006  05B7  0869               	movf	??__FuncStop+1,w
  6007  05B8  3A00               	xorlw	0	; case 0
  6008  05B9  1903               	skipnz
  6009  05BA  2DBC               	goto	l6762
  6010  05BB  2DC4               	goto	l631
  6011  05BC                     l6762:
  6012                           
  6013                           ; Switch size 1, requested type "simple"
  6014                           ; Number of cases is 2, Range of values is 1 to 3
  6015                           ; switch strategies available:
  6016                           ; Name         Instructions Cycles
  6017                           ; simple_byte            7     4 (average)
  6018                           ; direct_byte           15     9 (fixed)
  6019                           ; jumptable            263     9 (fixed)
  6020                           ;	Chosen strategy is simple_byte
  6021  05BC  0868               	movf	??__FuncStop,w
  6022  05BD  3A01               	xorlw	1	; case 1
  6023  05BE  1903               	skipnz
  6024  05BF  2D97               	goto	l5556
  6025  05C0  3A02               	xorlw	2	; case 3
  6026  05C1  1903               	skipnz
  6027  05C2  2D97               	goto	l5556
  6028  05C3  2DC4               	goto	l631
  6029  05C4                     l631:
  6030  05C4  0008               	return
  6031  05C5                     __end_of__FuncStop:
  6032                           
  6033                           	psect	text15
  6034  097D                     __ptext15:	
  6035 ;; *************** function __GetNoPushState *****************
  6036 ;; Defined at:
  6037 ;;		line 687 in file "../Projects/src/key_and_Other.c"
  6038 ;; Parameters:    Size  Location     Type
  6039 ;;		None
  6040 ;; Auto vars:     Size  Location     Type
  6041 ;;		None
  6042 ;; Return value:  Size  Location     Type
  6043 ;;                  1    wreg      unsigned char 
  6044 ;; Registers used:
  6045 ;;		wreg, status,2, status,0, pclath, cstack
  6046 ;; Tracked objects:
  6047 ;;		On entry : 0/0
  6048 ;;		On exit  : 0/0
  6049 ;;		Unchanged: 0/0
  6050 ;; Data sizes:     COMMON   BANK0   BANK1   BANK2   BANK3   BANK4   BANK5   BANK6   BANK7   BANK8   BANK9  BANK10  BANK1
      +1  BANK12
  6051 ;;      Params:         0       0       0       0       0       0       0       0       0       0       0       0       
      +0       0
  6052 ;;      Locals:         0       0       0       0       0       0       0       0       0       0       0       0       
      +0       0
  6053 ;;      Temps:          0       0       0       0       0       0       0       0       0       0       0       0       
      +0       0
  6054 ;;      Totals:         0       0       0       0       0       0       0       0       0       0       0       0       
      +0       0
  6055 ;;Total ram usage:        0 bytes
  6056 ;; Hardware stack levels used:    1
  6057 ;; Hardware stack levels required when called:    3
  6058 ;; This function calls:
  6059 ;;		__ClearSpecialMultiKeyState
  6060 ;; This function is called by:
  6061 ;;		__FuncStop
  6062 ;; This function uses a non-reentrant model
  6063 ;;
  6064                           
  6065                           
  6066                           ;psect for function __GetNoPushState
  6067  097D                     __GetNoPushState:
  6068  097D                     l3548:	
  6069                           ;incstack = 0
  6070                           ; Regs used in __GetNoPushState: [wreg+status,2+status,0+pclath+cstack]
  6071                           
  6072                           
  6073                           ;../Projects/src/key_and_Other.c: 689:  if ( !mb_NoPush )
  6074  097D  0020               	movlb	0	; select bank0
  6075  097E  0841               	movf	_mb_NoPush,w
  6076  097F  1D03               	btfss	3,2
  6077  0980  2982               	goto	u861
  6078  0981  2983               	goto	u860
  6079  0982                     u861:
  6080  0982  2985               	goto	l3554
  6081  0983                     u860:
  6082  0983                     l3550:
  6083                           
  6084                           ;../Projects/src/key_and_Other.c: 690:  {;../Projects/src/key_and_Other.c: 691:   return
      +                          (1) ;
  6085  0983  3001               	movlw	1
  6086  0984  298C               	goto	l676
  6087  0985                     l3554:
  6088                           
  6089                           ;../Projects/src/key_and_Other.c: 694:  mb_NoPush = 0 ;
  6090  0985  01C1               	clrf	_mb_NoPush
  6091                           
  6092                           ;../Projects/src/key_and_Other.c: 699:  m_TimerKey = 0 ;
  6093  0986  01A4               	clrf	_m_TimerKey
  6094  0987  01A5               	clrf	_m_TimerKey+1
  6095  0988                     l3556:
  6096                           
  6097                           ;../Projects/src/key_and_Other.c: 700:  _ClearSpecialMultiKeyState() ;
  6098  0988  3189  2127  3189   	fcall	__ClearSpecialMultiKeyState
  6099  098B                     l3558:
  6100                           
  6101                           ;../Projects/src/key_and_Other.c: 701:  return(0) ;
  6102  098B  3000               	movlw	0
  6103  098C                     l676:
  6104  098C  0008               	return
  6105  098D                     __end_of__GetNoPushState:
  6106                           
  6107                           	psect	text16
  6108  0D2F                     __ptext16:	
  6109 ;; *************** function __FuncReg *****************
  6110 ;; Defined at:
  6111 ;;		line 424 in file "../Projects/src/key_and_Other.c"
  6112 ;; Parameters:    Size  Location     Type
  6113 ;;		None
  6114 ;; Auto vars:     Size  Location     Type
  6115 ;;		None
  6116 ;; Return value:  Size  Location     Type
  6117 ;;                  1    wreg      void 
  6118 ;; Registers used:
  6119 ;;		wreg, fsr1l, fsr1h, status,2, status,0, pclath, cstack
  6120 ;; Tracked objects:
  6121 ;;		On entry : 0/0
  6122 ;;		On exit  : 0/0
  6123 ;;		Unchanged: 0/0
  6124 ;; Data sizes:     COMMON   BANK0   BANK1   BANK2   BANK3   BANK4   BANK5   BANK6   BANK7   BANK8   BANK9  BANK10  BANK1
      +1  BANK12
  6125 ;;      Params:         0       0       0       0       0       0       0       0       0       0       0       0       
      +0       0
  6126 ;;      Locals:         0       0       0       0       0       0       0       0       0       0       0       0       
      +0       0
  6127 ;;      Temps:          0       1       0       0       0       0       0       0       0       0       0       0       
      +0       0
  6128 ;;      Totals:         0       1       0       0       0       0       0       0       0       0       0       0       
      +0       0
  6129 ;;Total ram usage:        1 bytes
  6130 ;; Hardware stack levels used:    1
  6131 ;; Hardware stack levels required when called:    4
  6132 ;; This function calls:
  6133 ;;		__ClearSpecialMultiKeyState
  6134 ;;		__DupliFuncClear
  6135 ;;		__SetRegistrationMode
  6136 ;; This function is called by:
  6137 ;;		__KeyInTx
  6138 ;; This function uses a non-reentrant model
  6139 ;;
  6140                           
  6141                           
  6142                           ;psect for function __FuncReg
  6143  0D2F                     __FuncReg:
  6144  0D2F                     l5410:	
  6145                           ;incstack = 0
  6146                           ; Regs used in __FuncReg: [wreg+fsr1l+fsr1h+status,2+status,0+pclath+cstack]
  6147                           
  6148                           
  6149                           ;../Projects/src/key_and_Other.c: 426:  _DupliFuncClear() ;
  6150  0D2F  3189  219E  318D   	fcall	__DupliFuncClear
  6151  0D32                     l5412:
  6152                           
  6153                           ;../Projects/src/key_and_Other.c: 427:  if ( mb_NoPush )
  6154  0D32  0020               	movlb	0	; select bank0
  6155  0D33  0841               	movf	_mb_NoPush,w
  6156  0D34  1903               	btfsc	3,2
  6157  0D35  2D37               	goto	u3121
  6158  0D36  2D38               	goto	u3120
  6159  0D37                     u3121:
  6160  0D37  2D76               	goto	l5444
  6161  0D38                     u3120:
  6162  0D38                     l5414:
  6163                           
  6164                           ;../Projects/src/key_and_Other.c: 428:  {;../Projects/src/key_and_Other.c: 429:   mb_NoP
      +                          ush = 0 ;
  6165  0D38  01C1               	clrf	_mb_NoPush
  6166  0D39                     l5416:
  6167                           
  6168                           ;../Projects/src/key_and_Other.c: 430:   m_KindOfKey = 5 ;
  6169  0D39  3005               	movlw	5
  6170  0D3A  00D1               	movwf	??__FuncReg
  6171  0D3B  0851               	movf	??__FuncReg,w
  6172  0D3C  00C2               	movwf	_m_KindOfKey
  6173  0D3D                     l5418:
  6174                           
  6175                           ;../Projects/src/key_and_Other.c: 431:   _ClearSpecialMultiKeyState() ;
  6176  0D3D  3189  2127  318D   	fcall	__ClearSpecialMultiKeyState
  6177  0D40                     l5420:
  6178                           
  6179                           ;../Projects/src/key_and_Other.c: 432:   mb_RegSw = 1 ;
  6180  0D40  0020               	movlb	0	; select bank0
  6181  0D41  01B0               	clrf	_mb_RegSw
  6182  0D42  0AB0               	incf	_mb_RegSw,f
  6183  0D43                     l5422:
  6184                           
  6185                           ;../Projects/src/key_and_Other.c: 433:   m_TimerKey = 3000 ;
  6186  0D43  30B8               	movlw	184
  6187  0D44  00A4               	movwf	_m_TimerKey
  6188  0D45  300B               	movlw	11
  6189  0D46  00A5               	movwf	_m_TimerKey+1
  6190  0D47                     l5424:
  6191                           
  6192                           ;../Projects/src/key_and_Other.c: 434:   if ( !m_TimerKeyMonitor )
  6193  0D47  0021               	movlb	1	; select bank1
  6194  0D48  0840               	movf	_m_TimerKeyMonitor^(0+128),w
  6195  0D49  0441               	iorwf	(_m_TimerKeyMonitor+1)^(0+128),w
  6196  0D4A  1D03               	btfss	3,2
  6197  0D4B  2D4D               	goto	u3131
  6198  0D4C  2D4E               	goto	u3130
  6199  0D4D                     u3131:
  6200  0D4D  2D66               	goto	l5434
  6201  0D4E                     u3130:
  6202  0D4E                     l5426:
  6203                           
  6204                           ;../Projects/src/key_and_Other.c: 435:   {;../Projects/src/key_and_Other.c: 436:        
      +                               if(FG_PWRON==0){
  6205  0D4E  0020               	movlb	0	; select bank0
  6206  0D4F  083B               	movf	_FG_PWRON,w
  6207  0D50  1D03               	btfss	3,2
  6208  0D51  2D53               	goto	u3141
  6209  0D52  2D54               	goto	u3140
  6210  0D53                     u3141:
  6211  0D53  2D5B               	goto	l615
  6212  0D54                     u3140:
  6213  0D54                     l5428:
  6214                           
  6215                           ;../Projects/src/key_and_Other.c: 437:                       FG_PWRON=1;
  6216  0D54  01BB               	clrf	_FG_PWRON
  6217  0D55  0ABB               	incf	_FG_PWRON,f
  6218                           
  6219                           ;../Projects/src/key_and_Other.c: 438:                       RB7=1;
  6220  0D56  178D               	bsf	13,7	;volatile
  6221  0D57                     l5430:
  6222                           
  6223                           ;../Projects/src/key_and_Other.c: 439:         TB_5s=51;
  6224  0D57  3033               	movlw	51
  6225  0D58  00D1               	movwf	??__FuncReg
  6226  0D59  0851               	movf	??__FuncReg,w
  6227  0D5A  00C5               	movwf	_TB_5s
  6228  0D5B                     l615:	
  6229                           ;../Projects/src/key_and_Other.c: 440:                           }
  6230                           
  6231                           
  6232                           ;../Projects/src/key_and_Other.c: 441:    m_TimerKeyMonitor = 10000 ;
  6233  0D5B  3010               	movlw	16
  6234  0D5C  0021               	movlb	1	; select bank1
  6235  0D5D  00C0               	movwf	_m_TimerKeyMonitor^(0+128)
  6236  0D5E  3027               	movlw	39
  6237  0D5F  00C1               	movwf	(_m_TimerKeyMonitor^(0+128)+1)
  6238                           
  6239                           ;../Projects/src/key_and_Other.c: 442:    m_KeyCount = 2 ;
  6240  0D60  3002               	movlw	2
  6241  0D61  0020               	movlb	0	; select bank0
  6242  0D62  00D1               	movwf	??__FuncReg
  6243  0D63  0851               	movf	??__FuncReg,w
  6244  0D64  00AF               	movwf	_m_KeyCount
  6245  0D65  2D90               	goto	l616
  6246  0D66                     l5434:
  6247                           
  6248                           ;../Projects/src/key_and_Other.c: 445:   if ( !--m_KeyCount )
  6249  0D66  3001               	movlw	1
  6250  0D67  0020               	movlb	0	; select bank0
  6251  0D68  02AF               	subwf	_m_KeyCount,f
  6252  0D69  1D03               	btfss	3,2
  6253  0D6A  2D6C               	goto	u3151
  6254  0D6B  2D6D               	goto	u3150
  6255  0D6C                     u3151:
  6256  0D6C  2D90               	goto	l616
  6257  0D6D                     u3150:
  6258  0D6D                     l5436:
  6259                           
  6260                           ;../Projects/src/key_and_Other.c: 446:   {;../Projects/src/key_and_Other.c: 447:    _Set
      +                          RegistrationMode( 1 ) ;
  6261  0D6D  3001               	movlw	1
  6262  0D6E  318B  2354  318D   	fcall	__SetRegistrationMode
  6263  0D71                     l5438:
  6264                           
  6265                           ;../Projects/src/key_and_Other.c: 448:    m_KindOfKey = 0 ;
  6266  0D71  0020               	movlb	0	; select bank0
  6267  0D72  01C2               	clrf	_m_KindOfKey
  6268  0D73                     l5440:
  6269                           
  6270                           ;../Projects/src/key_and_Other.c: 449:    mb_NoPushWait = 1 ;
  6271  0D73  01C0               	clrf	_mb_NoPushWait
  6272  0D74  0AC0               	incf	_mb_NoPushWait,f
  6273  0D75  2D90               	goto	l616
  6274  0D76                     l5444:
  6275                           
  6276                           ;../Projects/src/key_and_Other.c: 455:  if ( mb_RegSw )
  6277  0D76  0830               	movf	_mb_RegSw,w
  6278  0D77  1903               	btfsc	3,2
  6279  0D78  2D7A               	goto	u3161
  6280  0D79  2D7B               	goto	u3160
  6281  0D7A                     u3161:
  6282  0D7A  2D90               	goto	l616
  6283  0D7B                     u3160:
  6284  0D7B                     l5446:
  6285                           
  6286                           ;../Projects/src/key_and_Other.c: 456:  {;../Projects/src/key_and_Other.c: 457:   if ( m
      +                          _TimerKey )
  6287  0D7B  0824               	movf	_m_TimerKey,w
  6288  0D7C  0425               	iorwf	_m_TimerKey+1,w
  6289  0D7D  1903               	btfsc	3,2
  6290  0D7E  2D80               	goto	u3171
  6291  0D7F  2D81               	goto	u3170
  6292  0D80                     u3171:
  6293  0D80  2D90               	goto	l616
  6294  0D81                     u3170:
  6295  0D81                     l5448:
  6296                           
  6297                           ;../Projects/src/key_and_Other.c: 458:   {;../Projects/src/key_and_Other.c: 459:    if (
      +                           !--m_TimerKey )
  6298  0D81  3001               	movlw	1
  6299  0D82  02A4               	subwf	_m_TimerKey,f
  6300  0D83  3000               	movlw	0
  6301  0D84  3BA5               	subwfb	_m_TimerKey+1,f
  6302  0D85  0824               	movf	_m_TimerKey,w
  6303  0D86  0425               	iorwf	_m_TimerKey+1,w
  6304  0D87  1D03               	btfss	3,2
  6305  0D88  2D8A               	goto	u3181
  6306  0D89  2D8B               	goto	u3180
  6307  0D8A                     u3181:
  6308  0D8A  2D90               	goto	l616
  6309  0D8B                     u3180:
  6310  0D8B                     l5450:
  6311                           
  6312                           ;../Projects/src/key_and_Other.c: 460:    {;../Projects/src/key_and_Other.c: 461:     _S
      +                          etRegistrationMode( 2 ) ;
  6313  0D8B  3002               	movlw	2
  6314  0D8C  318B  2354  318D   	fcall	__SetRegistrationMode
  6315  0D8F  2D71               	goto	l5438
  6316  0D90                     l616:
  6317  0D90  0008               	return
  6318  0D91                     __end_of__FuncReg:
  6319                           
  6320                           	psect	text17
  6321  0B54                     __ptext17:	
  6322 ;; *************** function __SetRegistrationMode *****************
  6323 ;; Defined at:
  6324 ;;		line 1222 in file "../Projects/src/key_and_Other.c"
  6325 ;; Parameters:    Size  Location     Type
  6326 ;;  mode            1    wreg     unsigned char 
  6327 ;; Auto vars:     Size  Location     Type
  6328 ;;  mode            1    9[COMMON] unsigned char 
  6329 ;; Return value:  Size  Location     Type
  6330 ;;                  1    wreg      void 
  6331 ;; Registers used:
  6332 ;;		wreg, fsr1l, fsr1h, status,2, status,0, pclath, cstack
  6333 ;; Tracked objects:
  6334 ;;		On entry : 0/0
  6335 ;;		On exit  : 0/0
  6336 ;;		Unchanged: 0/0
  6337 ;; Data sizes:     COMMON   BANK0   BANK1   BANK2   BANK3   BANK4   BANK5   BANK6   BANK7   BANK8   BANK9  BANK10  BANK1
      +1  BANK12
  6338 ;;      Params:         0       0       0       0       0       0       0       0       0       0       0       0       
      +0       0
  6339 ;;      Locals:         1       0       0       0       0       0       0       0       0       0       0       0       
      +0       0
  6340 ;;      Temps:          1       0       0       0       0       0       0       0       0       0       0       0       
      +0       0
  6341 ;;      Totals:         2       0       0       0       0       0       0       0       0       0       0       0       
      +0       0
  6342 ;;Total ram usage:        2 bytes
  6343 ;; Hardware stack levels used:    1
  6344 ;; Hardware stack levels required when called:    3
  6345 ;; This function calls:
  6346 ;;		__GetRegMode
  6347 ;;		__IdClear
  6348 ;;		__ReqBuzzer
  6349 ;; This function is called by:
  6350 ;;		__FuncReg
  6351 ;; This function uses a non-reentrant model
  6352 ;;
  6353                           
  6354                           
  6355                           ;psect for function __SetRegistrationMode
  6356  0B54                     __SetRegistrationMode:
  6357                           
  6358                           ;incstack = 0
  6359                           ; Regs used in __SetRegistrationMode: [wreg+fsr1l+fsr1h+status,2+status,0+pclath+cstack]
  6360                           ;__SetRegistrationMode@mode stored from wreg
  6361  0B54  00F9               	movwf	__SetRegistrationMode@mode
  6362  0B55                     l3536:
  6363                           
  6364                           ;../Projects/src/key_and_Other.c: 1222: void _SetRegistrationMode( unsigned char mode );
      +                          ../Projects/src/key_and_Other.c: 1223: {;../Projects/src/key_and_Other.c: 1224:  if ( _G
      +                          etRegMode() )
  6365  0B55  3189  211E  318B   	fcall	__GetRegMode
  6366  0B58  3A00               	xorlw	0
  6367  0B59  1903               	skipnz
  6368  0B5A  2B5C               	goto	u851
  6369  0B5B  2B5D               	goto	u850
  6370  0B5C                     u851:
  6371  0B5C  2B5E               	goto	l3540
  6372  0B5D                     u850:
  6373  0B5D  2B75               	goto	l802
  6374  0B5E                     l3540:
  6375                           
  6376                           ;../Projects/src/key_and_Other.c: 1229:  m_RegMode = mode ;
  6377  0B5E  0879               	movf	__SetRegistrationMode@mode,w
  6378  0B5F  00F8               	movwf	??__SetRegistrationMode
  6379  0B60  0878               	movf	??__SetRegistrationMode,w
  6380  0B61  0020               	movlb	0	; select bank0
  6381  0B62  00CC               	movwf	_m_RegMode
  6382  0B63                     l3542:
  6383                           
  6384                           ;../Projects/src/key_and_Other.c: 1236:  _IdClear() ;
  6385  0B63  3189  21E0  318B   	fcall	__IdClear
  6386  0B66                     l3544:
  6387                           
  6388                           ;../Projects/src/key_and_Other.c: 1243:  _ReqBuzzer(1000,1,0);
  6389  0B66  30E8               	movlw	232
  6390  0B67  00F3               	movwf	__ReqBuzzer@BEEP_on_SET
  6391  0B68  3003               	movlw	3
  6392  0B69  00F4               	movwf	__ReqBuzzer@BEEP_on_SET+1
  6393  0B6A  01F5               	clrf	__ReqBuzzer@BEEP_off_SET
  6394  0B6B  0AF5               	incf	__ReqBuzzer@BEEP_off_SET,f
  6395  0B6C  01F6               	clrf	__ReqBuzzer@BEEP_freq_SET
  6396  0B6D  318A  22AE  318B   	fcall	__ReqBuzzer
  6397  0B70                     l3546:
  6398                           
  6399                           ;../Projects/src/key_and_Other.c: 1244:  m_TimerRegMode = 60000 ;
  6400  0B70  3060               	movlw	96
  6401  0B71  0021               	movlb	1	; select bank1
  6402  0B72  00BE               	movwf	_m_TimerRegMode^(0+128)
  6403  0B73  30EA               	movlw	234
  6404  0B74  00BF               	movwf	(_m_TimerRegMode^(0+128)+1)
  6405  0B75                     l802:
  6406  0B75  0008               	return
  6407  0B76                     __end_of__SetRegistrationMode:
  6408                           
  6409                           	psect	text18
  6410  09E0                     __ptext18:	
  6411 ;; *************** function __IdClear *****************
  6412 ;; Defined at:
  6413 ;;		line 1256 in file "../Projects/src/key_and_Other.c"
  6414 ;; Parameters:    Size  Location     Type
  6415 ;;		None
  6416 ;; Auto vars:     Size  Location     Type
  6417 ;;  i               1    4[COMMON] unsigned char 
  6418 ;; Return value:  Size  Location     Type
  6419 ;;                  1    wreg      void 
  6420 ;; Registers used:
  6421 ;;		wreg, fsr1l, fsr1h, status,2, status,0
  6422 ;; Tracked objects:
  6423 ;;		On entry : 0/0
  6424 ;;		On exit  : 0/0
  6425 ;;		Unchanged: 0/0
  6426 ;; Data sizes:     COMMON   BANK0   BANK1   BANK2   BANK3   BANK4   BANK5   BANK6   BANK7   BANK8   BANK9  BANK10  BANK1
      +1  BANK12
  6427 ;;      Params:         0       0       0       0       0       0       0       0       0       0       0       0       
      +0       0
  6428 ;;      Locals:         1       0       0       0       0       0       0       0       0       0       0       0       
      +0       0
  6429 ;;      Temps:          1       0       0       0       0       0       0       0       0       0       0       0       
      +0       0
  6430 ;;      Totals:         2       0       0       0       0       0       0       0       0       0       0       0       
      +0       0
  6431 ;;Total ram usage:        2 bytes
  6432 ;; Hardware stack levels used:    1
  6433 ;; Hardware stack levels required when called:    2
  6434 ;; This function calls:
  6435 ;;		Nothing
  6436 ;; This function is called by:
  6437 ;;		__RegistrationMode
  6438 ;;		__SetRegistrationMode
  6439 ;; This function uses a non-reentrant model
  6440 ;;
  6441                           
  6442                           
  6443                           ;psect for function __IdClear
  6444  09E0                     __IdClear:
  6445  09E0                     l3500:	
  6446                           ;incstack = 0
  6447                           ; Regs used in __IdClear: [wreg+fsr1l+fsr1h+status,2+status,0]
  6448                           
  6449                           
  6450                           ;../Projects/src/key_and_Other.c: 1258:  register unsigned char i ;;../Projects/src/key_
      +                          and_Other.c: 1260:  m_RegDigit = 0 ;
  6451  09E0  0020               	movlb	0	; select bank0
  6452  09E1  01A9               	clrf	_m_RegDigit
  6453                           
  6454                           ;../Projects/src/key_and_Other.c: 1262:  for ( i=0; i<8; i++ )
  6455  09E2  01F4               	clrf	__IdClear@i
  6456  09E3                     l3506:
  6457                           
  6458                           ;../Projects/src/key_and_Other.c: 1263:  {;../Projects/src/key_and_Other.c: 1264:   m_Re
      +                          gID[i] = '0' ;
  6459  09E3  3030               	movlw	48
  6460  09E4  00F3               	movwf	??__IdClear
  6461  09E5  0874               	movf	__IdClear@i,w
  6462  09E6  3E40               	addlw	(low (_m_RegID| (0+256)))& (0+255)
  6463  09E7  0086               	movwf	6
  6464  09E8  3001               	movlw	1	; select bank2/3
  6465  09E9  0087               	movwf	7
  6466  09EA  0873               	movf	??__IdClear,w
  6467  09EB  0081               	movwf	1
  6468  09EC                     l3508:
  6469                           
  6470                           ;../Projects/src/key_and_Other.c: 1265:  }
  6471  09EC  3001               	movlw	1
  6472  09ED  00F3               	movwf	??__IdClear
  6473  09EE  0873               	movf	??__IdClear,w
  6474  09EF  07F4               	addwf	__IdClear@i,f
  6475  09F0                     l3510:
  6476  09F0  3008               	movlw	8
  6477  09F1  0274               	subwf	__IdClear@i,w
  6478  09F2  1C03               	skipc
  6479  09F3  29F5               	goto	u811
  6480  09F4  29F6               	goto	u810
  6481  09F5                     u811:
  6482  09F5  29E3               	goto	l3506
  6483  09F6                     u810:
  6484  09F6                     l3512:
  6485                           
  6486                           ;../Projects/src/key_and_Other.c: 1266:  m_RegID[8] = 0 ;
  6487  09F6  0022               	movlb	2	; select bank2
  6488  09F7  01C8               	clrf	(_m_RegID^(0+256)+8)
  6489  09F8                     l810:
  6490  09F8  0008               	return
  6491  09F9                     __end_of__IdClear:
  6492                           
  6493                           	psect	text19
  6494  091E                     __ptext19:	
  6495 ;; *************** function __GetRegMode *****************
  6496 ;; Defined at:
  6497 ;;		line 1246 in file "../Projects/src/key_and_Other.c"
  6498 ;; Parameters:    Size  Location     Type
  6499 ;;		None
  6500 ;; Auto vars:     Size  Location     Type
  6501 ;;		None
  6502 ;; Return value:  Size  Location     Type
  6503 ;;                  1    wreg      unsigned char 
  6504 ;; Registers used:
  6505 ;;		wreg
  6506 ;; Tracked objects:
  6507 ;;		On entry : 0/0
  6508 ;;		On exit  : 0/0
  6509 ;;		Unchanged: 0/0
  6510 ;; Data sizes:     COMMON   BANK0   BANK1   BANK2   BANK3   BANK4   BANK5   BANK6   BANK7   BANK8   BANK9  BANK10  BANK1
      +1  BANK12
  6511 ;;      Params:         0       0       0       0       0       0       0       0       0       0       0       0       
      +0       0
  6512 ;;      Locals:         0       0       0       0       0       0       0       0       0       0       0       0       
      +0       0
  6513 ;;      Temps:          0       0       0       0       0       0       0       0       0       0       0       0       
      +0       0
  6514 ;;      Totals:         0       0       0       0       0       0       0       0       0       0       0       0       
      +0       0
  6515 ;;Total ram usage:        0 bytes
  6516 ;; Hardware stack levels used:    1
  6517 ;; Hardware stack levels required when called:    2
  6518 ;; This function calls:
  6519 ;;		Nothing
  6520 ;; This function is called by:
  6521 ;;		__RegistrationMode
  6522 ;;		__SetRegistrationMode
  6523 ;; This function uses a non-reentrant model
  6524 ;;
  6525                           
  6526                           
  6527                           ;psect for function __GetRegMode
  6528  091E                     __GetRegMode:
  6529  091E                     l3496:	
  6530                           ;incstack = 0
  6531                           ; Regs used in __GetRegMode: [wreg]
  6532                           
  6533                           
  6534                           ;../Projects/src/key_and_Other.c: 1248:  return( m_RegMode ) ;
  6535  091E  0020               	movlb	0	; select bank0
  6536  091F  084C               	movf	_m_RegMode,w
  6537  0920                     l805:
  6538  0920  0008               	return
  6539  0921                     __end_of__GetRegMode:
  6540                           
  6541                           	psect	text20
  6542  09B3                     __ptext20:	
  6543 ;; *************** function __FuncOpenStop *****************
  6544 ;; Defined at:
  6545 ;;		line 305 in file "../Projects/src/key_and_Other.c"
  6546 ;; Parameters:    Size  Location     Type
  6547 ;;		None
  6548 ;; Auto vars:     Size  Location     Type
  6549 ;;		None
  6550 ;; Return value:  Size  Location     Type
  6551 ;;                  1    wreg      void 
  6552 ;; Registers used:
  6553 ;;		wreg, fsr0l, fsr0h, fsr1l, fsr1h, status,2, status,0, pclath, cstack
  6554 ;; Tracked objects:
  6555 ;;		On entry : 0/0
  6556 ;;		On exit  : 0/0
  6557 ;;		Unchanged: 0/0
  6558 ;; Data sizes:     COMMON   BANK0   BANK1   BANK2   BANK3   BANK4   BANK5   BANK6   BANK7   BANK8   BANK9  BANK10  BANK1
      +1  BANK12
  6559 ;;      Params:         0       0       0       0       0       0       0       0       0       0       0       0       
      +0       0
  6560 ;;      Locals:         0       0       0       0       0       0       0       0       0       0       0       0       
      +0       0
  6561 ;;      Temps:          0       1       0       0       0       0       0       0       0       0       0       0       
      +0       0
  6562 ;;      Totals:         0       1       0       0       0       0       0       0       0       0       0       0       
      +0       0
  6563 ;;Total ram usage:        1 bytes
  6564 ;; Hardware stack levels used:    1
  6565 ;; Hardware stack levels required when called:    6
  6566 ;; This function calls:
  6567 ;;		__ClearSpecialMultiKeyState
  6568 ;;		__DupliFuncClear
  6569 ;;		__ReqTxdEdit
  6570 ;; This function is called by:
  6571 ;;		__KeyInTx
  6572 ;; This function uses a non-reentrant model
  6573 ;;
  6574                           
  6575                           
  6576                           ;psect for function __FuncOpenStop
  6577  09B3                     __FuncOpenStop:
  6578  09B3                     l5582:	
  6579                           ;incstack = 0
  6580                           ; Regs used in __FuncOpenStop: [wreg-fsr1h+status,2+status,0+pclath+cstack]
  6581                           
  6582                           
  6583                           ;../Projects/src/key_and_Other.c: 307:  _DupliFuncClear() ;
  6584  09B3  3189  219E  3189   	fcall	__DupliFuncClear
  6585  09B6                     l5584:
  6586                           
  6587                           ;../Projects/src/key_and_Other.c: 308:  m_KindOfKey = 0 ;
  6588  09B6  0020               	movlb	0	; select bank0
  6589  09B7  01C2               	clrf	_m_KindOfKey
  6590  09B8                     l5586:
  6591                           
  6592                           ;../Projects/src/key_and_Other.c: 309:  _ReqTxdEdit( m_KeyNo,m_KeyNo ) ;
  6593  09B8  0836               	movf	_m_KeyNo,w
  6594  09B9  00E8               	movwf	??__FuncOpenStop
  6595  09BA  0868               	movf	??__FuncOpenStop,w
  6596  09BB  00E2               	movwf	__ReqTxdEdit@buzreq
  6597  09BC  0836               	movf	_m_KeyNo,w
  6598  09BD  3183  23A2  3189   	fcall	__ReqTxdEdit
  6599  09C0                     l5588:
  6600                           
  6601                           ;../Projects/src/key_and_Other.c: 310:  _ClearSpecialMultiKeyState() ;
  6602  09C0  3189  2127  3189   	fcall	__ClearSpecialMultiKeyState
  6603  09C3                     l5590:
  6604                           
  6605                           ;../Projects/src/key_and_Other.c: 311:  mb_NoPush = 0 ;
  6606  09C3  0020               	movlb	0	; select bank0
  6607  09C4  01C1               	clrf	_mb_NoPush
  6608  09C5                     l5592:
  6609                           
  6610                           ;../Projects/src/key_and_Other.c: 312:  mb_NoPushWait = 1 ;
  6611  09C5  01C0               	clrf	_mb_NoPushWait
  6612  09C6  0AC0               	incf	_mb_NoPushWait,f
  6613  09C7                     l585:
  6614  09C7  0008               	return
  6615  09C8                     __end_of__FuncOpenStop:
  6616                           
  6617                           	psect	text21
  6618  0B32                     __ptext21:	
  6619 ;; *************** function __FuncOpenReg *****************
  6620 ;; Defined at:
  6621 ;;		line 320 in file "../Projects/src/key_and_Other.c"
  6622 ;; Parameters:    Size  Location     Type
  6623 ;;		None
  6624 ;; Auto vars:     Size  Location     Type
  6625 ;;		None
  6626 ;; Return value:  Size  Location     Type
  6627 ;;                  1    wreg      void 
  6628 ;; Registers used:
  6629 ;;		wreg, fsr0l, fsr0h, fsr1l, fsr1h, status,2, status,0, pclath, cstack
  6630 ;; Tracked objects:
  6631 ;;		On entry : 0/0
  6632 ;;		On exit  : 0/0
  6633 ;;		Unchanged: 0/0
  6634 ;; Data sizes:     COMMON   BANK0   BANK1   BANK2   BANK3   BANK4   BANK5   BANK6   BANK7   BANK8   BANK9  BANK10  BANK1
      +1  BANK12
  6635 ;;      Params:         0       0       0       0       0       0       0       0       0       0       0       0       
      +0       0
  6636 ;;      Locals:         0       0       0       0       0       0       0       0       0       0       0       0       
      +0       0
  6637 ;;      Temps:          0       1       0       0       0       0       0       0       0       0       0       0       
      +0       0
  6638 ;;      Totals:         0       1       0       0       0       0       0       0       0       0       0       0       
      +0       0
  6639 ;;Total ram usage:        1 bytes
  6640 ;; Hardware stack levels used:    1
  6641 ;; Hardware stack levels required when called:    7
  6642 ;; This function calls:
  6643 ;;		__DupliFuncClear
  6644 ;;		__Pass3secKey
  6645 ;; This function is called by:
  6646 ;;		__KeyInTx
  6647 ;; This function uses a non-reentrant model
  6648 ;;
  6649                           
  6650                           
  6651                           ;psect for function __FuncOpenReg
  6652  0B32                     __FuncOpenReg:
  6653  0B32                     l5594:	
  6654                           ;incstack = 0
  6655                           ; Regs used in __FuncOpenReg: [wreg-fsr1h+status,2+status,0+pclath+cstack]
  6656                           
  6657                           
  6658                           ;../Projects/src/key_and_Other.c: 322:  _DupliFuncClear() ;
  6659  0B32  3189  219E  318B   	fcall	__DupliFuncClear
  6660  0B35                     l5596:
  6661                           
  6662                           ;../Projects/src/key_and_Other.c: 323:  mb_NoPush = 0 ;
  6663  0B35  0020               	movlb	0	; select bank0
  6664  0B36  01C1               	clrf	_mb_NoPush
  6665  0B37                     l5598:
  6666                           
  6667                           ;../Projects/src/key_and_Other.c: 324:  if ( !mb_RegOpenSw )
  6668  0B37  0835               	movf	_mb_RegOpenSw,w
  6669  0B38  1D03               	btfss	3,2
  6670  0B39  2B3B               	goto	u3391
  6671  0B3A  2B3C               	goto	u3390
  6672  0B3B                     u3391:
  6673  0B3B  2B4F               	goto	l5612
  6674  0B3C                     u3390:
  6675  0B3C                     l5600:
  6676                           
  6677                           ;../Projects/src/key_and_Other.c: 325:  {;../Projects/src/key_and_Other.c: 326:   mb_Reg
      +                          OpenSw = 1 ;
  6678  0B3C  01B5               	clrf	_mb_RegOpenSw
  6679  0B3D  0AB5               	incf	_mb_RegOpenSw,f
  6680  0B3E                     l5602:
  6681                           
  6682                           ;../Projects/src/key_and_Other.c: 327:   m_TimerKey = 3000 ;
  6683  0B3E  30B8               	movlw	184
  6684  0B3F  00A4               	movwf	_m_TimerKey
  6685  0B40  300B               	movlw	11
  6686  0B41  00A5               	movwf	_m_TimerKey+1
  6687  0B42                     l5604:
  6688                           
  6689                           ;../Projects/src/key_and_Other.c: 328:   if(FG_PWRON==0){
  6690  0B42  083B               	movf	_FG_PWRON,w
  6691  0B43  1D03               	btfss	3,2
  6692  0B44  2B46               	goto	u3401
  6693  0B45  2B47               	goto	u3400
  6694  0B46                     u3401:
  6695  0B46  2B53               	goto	l590
  6696  0B47                     u3400:
  6697  0B47                     l5606:
  6698                           
  6699                           ;../Projects/src/key_and_Other.c: 329:             FG_PWRON=1;
  6700  0B47  01BB               	clrf	_FG_PWRON
  6701  0B48  0ABB               	incf	_FG_PWRON,f
  6702                           
  6703                           ;../Projects/src/key_and_Other.c: 330:             RB7=1;
  6704  0B49  178D               	bsf	13,7	;volatile
  6705  0B4A                     l5608:
  6706                           
  6707                           ;../Projects/src/key_and_Other.c: 331:             TB_5s=78;
  6708  0B4A  304E               	movlw	78
  6709  0B4B  00E9               	movwf	??__FuncOpenReg
  6710  0B4C  0869               	movf	??__FuncOpenReg,w
  6711  0B4D  00C5               	movwf	_TB_5s
  6712  0B4E  2B53               	goto	l590
  6713  0B4F                     l5612:
  6714                           
  6715                           ;../Projects/src/key_and_Other.c: 336:  _Pass3secKey( 8 ) ;
  6716  0B4F  3008               	movlw	8
  6717  0B50  3189  21F9  318B   	fcall	__Pass3secKey
  6718  0B53                     l590:
  6719  0B53  0008               	return
  6720  0B54                     __end_of__FuncOpenReg:
  6721                           
  6722                           	psect	text22
  6723  098D                     __ptext22:	
  6724 ;; *************** function __FuncNoPush *****************
  6725 ;; Defined at:
  6726 ;;		line 617 in file "../Projects/src/key_and_Other.c"
  6727 ;; Parameters:    Size  Location     Type
  6728 ;;		None
  6729 ;; Auto vars:     Size  Location     Type
  6730 ;;		None
  6731 ;; Return value:  Size  Location     Type
  6732 ;;                  1    wreg      void 
  6733 ;; Registers used:
  6734 ;;		wreg, status,2, status,0, pclath, cstack
  6735 ;; Tracked objects:
  6736 ;;		On entry : 0/0
  6737 ;;		On exit  : 0/0
  6738 ;;		Unchanged: 0/0
  6739 ;; Data sizes:     COMMON   BANK0   BANK1   BANK2   BANK3   BANK4   BANK5   BANK6   BANK7   BANK8   BANK9  BANK10  BANK1
      +1  BANK12
  6740 ;;      Params:         0       0       0       0       0       0       0       0       0       0       0       0       
      +0       0
  6741 ;;      Locals:         0       0       0       0       0       0       0       0       0       0       0       0       
      +0       0
  6742 ;;      Temps:          1       0       0       0       0       0       0       0       0       0       0       0       
      +0       0
  6743 ;;      Totals:         1       0       0       0       0       0       0       0       0       0       0       0       
      +0       0
  6744 ;;Total ram usage:        1 bytes
  6745 ;; Hardware stack levels used:    1
  6746 ;; Hardware stack levels required when called:    3
  6747 ;; This function calls:
  6748 ;;		__ClearSpecialMultiKeyState
  6749 ;; This function is called by:
  6750 ;;		__KeyInTx
  6751 ;; This function uses a non-reentrant model
  6752 ;;
  6753                           
  6754                           
  6755                           ;psect for function __FuncNoPush
  6756  098D                     __FuncNoPush:
  6757  098D                     l3858:	
  6758                           ;incstack = 0
  6759                           ; Regs used in __FuncNoPush: [wreg+status,2+status,0+pclath+cstack]
  6760                           
  6761                           
  6762                           ;../Projects/src/key_and_Other.c: 619:  mb_OpenSw = 0 ;
  6763  098D  0020               	movlb	0	; select bank0
  6764  098E  01AE               	clrf	_mb_OpenSw
  6765                           
  6766                           ;../Projects/src/key_and_Other.c: 620:  mb_StopSw = 0 ;
  6767  098F  01AD               	clrf	_mb_StopSw
  6768                           
  6769                           ;../Projects/src/key_and_Other.c: 621:  mb_CloseSw = 0 ;
  6770  0990  01AC               	clrf	_mb_CloseSw
  6771                           
  6772                           ;../Projects/src/key_and_Other.c: 622:  FG_BAT=0;
  6773  0991  01B9               	clrf	_FG_BAT
  6774  0992                     l3860:
  6775                           
  6776                           ;../Projects/src/key_and_Other.c: 624:  _ClearSpecialMultiKeyState() ;
  6777  0992  3189  2127  3189   	fcall	__ClearSpecialMultiKeyState
  6778  0995                     l3862:
  6779                           
  6780                           ;../Projects/src/key_and_Other.c: 625:  mb_NoPush = 1 ;
  6781  0995  0020               	movlb	0	; select bank0
  6782  0996  01C1               	clrf	_mb_NoPush
  6783  0997  0AC1               	incf	_mb_NoPush,f
  6784  0998                     l3864:
  6785                           
  6786                           ;../Projects/src/key_and_Other.c: 626:  mb_NoPushWait = 0 ;
  6787  0998  01C0               	clrf	_mb_NoPushWait
  6788  0999                     l3866:
  6789                           
  6790                           ;../Projects/src/key_and_Other.c: 627:  m_KindOfKey = 0xFF;
  6791  0999  30FF               	movlw	255
  6792  099A  00F3               	movwf	??__FuncNoPush
  6793  099B  0873               	movf	??__FuncNoPush,w
  6794  099C  00C2               	movwf	_m_KindOfKey
  6795  099D                     l662:
  6796  099D  0008               	return
  6797  099E                     __end_of__FuncNoPush:
  6798                           
  6799                           	psect	text23
  6800  0ACF                     __ptext23:	
  6801 ;; *************** function __FuncCloseReg *****************
  6802 ;; Defined at:
  6803 ;;		line 344 in file "../Projects/src/key_and_Other.c"
  6804 ;; Parameters:    Size  Location     Type
  6805 ;;		None
  6806 ;; Auto vars:     Size  Location     Type
  6807 ;;		None
  6808 ;; Return value:  Size  Location     Type
  6809 ;;                  1    wreg      void 
  6810 ;; Registers used:
  6811 ;;		wreg, fsr0l, fsr0h, fsr1l, fsr1h, status,2, status,0, pclath, cstack
  6812 ;; Tracked objects:
  6813 ;;		On entry : 0/0
  6814 ;;		On exit  : 0/0
  6815 ;;		Unchanged: 0/0
  6816 ;; Data sizes:     COMMON   BANK0   BANK1   BANK2   BANK3   BANK4   BANK5   BANK6   BANK7   BANK8   BANK9  BANK10  BANK1
      +1  BANK12
  6817 ;;      Params:         0       0       0       0       0       0       0       0       0       0       0       0       
      +0       0
  6818 ;;      Locals:         0       0       0       0       0       0       0       0       0       0       0       0       
      +0       0
  6819 ;;      Temps:          0       1       0       0       0       0       0       0       0       0       0       0       
      +0       0
  6820 ;;      Totals:         0       1       0       0       0       0       0       0       0       0       0       0       
      +0       0
  6821 ;;Total ram usage:        1 bytes
  6822 ;; Hardware stack levels used:    1
  6823 ;; Hardware stack levels required when called:    7
  6824 ;; This function calls:
  6825 ;;		__DupliFuncClear
  6826 ;;		__Pass3secKey
  6827 ;; This function is called by:
  6828 ;;		__KeyInTx
  6829 ;; This function uses a non-reentrant model
  6830 ;;
  6831                           
  6832                           
  6833                           ;psect for function __FuncCloseReg
  6834  0ACF                     __FuncCloseReg:
  6835  0ACF                     l5632:	
  6836                           ;incstack = 0
  6837                           ; Regs used in __FuncCloseReg: [wreg-fsr1h+status,2+status,0+pclath+cstack]
  6838                           
  6839                           
  6840                           ;../Projects/src/key_and_Other.c: 346:  _DupliFuncClear() ;
  6841  0ACF  3189  219E  318A   	fcall	__DupliFuncClear
  6842  0AD2                     l5634:
  6843                           
  6844                           ;../Projects/src/key_and_Other.c: 347:  if ( !mb_RegCloseSw )
  6845  0AD2  0020               	movlb	0	; select bank0
  6846  0AD3  0834               	movf	_mb_RegCloseSw,w
  6847  0AD4  1D03               	btfss	3,2
  6848  0AD5  2AD7               	goto	u3431
  6849  0AD6  2AD8               	goto	u3430
  6850  0AD7                     u3431:
  6851  0AD7  2AEB               	goto	l5648
  6852  0AD8                     u3430:
  6853  0AD8                     l5636:
  6854                           
  6855                           ;../Projects/src/key_and_Other.c: 348:  {;../Projects/src/key_and_Other.c: 349:   mb_Reg
      +                          CloseSw = 1 ;
  6856  0AD8  01B4               	clrf	_mb_RegCloseSw
  6857  0AD9  0AB4               	incf	_mb_RegCloseSw,f
  6858  0ADA                     l5638:
  6859                           
  6860                           ;../Projects/src/key_and_Other.c: 350:   m_TimerKey = 3000 ;
  6861  0ADA  30B8               	movlw	184
  6862  0ADB  00A4               	movwf	_m_TimerKey
  6863  0ADC  300B               	movlw	11
  6864  0ADD  00A5               	movwf	_m_TimerKey+1
  6865  0ADE                     l5640:
  6866                           
  6867                           ;../Projects/src/key_and_Other.c: 351:   if(FG_PWRON==0){
  6868  0ADE  083B               	movf	_FG_PWRON,w
  6869  0ADF  1D03               	btfss	3,2
  6870  0AE0  2AE2               	goto	u3441
  6871  0AE1  2AE3               	goto	u3440
  6872  0AE2                     u3441:
  6873  0AE2  2AEF               	goto	l595
  6874  0AE3                     u3440:
  6875  0AE3                     l5642:
  6876                           
  6877                           ;../Projects/src/key_and_Other.c: 352:             FG_PWRON=1;
  6878  0AE3  01BB               	clrf	_FG_PWRON
  6879  0AE4  0ABB               	incf	_FG_PWRON,f
  6880                           
  6881                           ;../Projects/src/key_and_Other.c: 353:             RB7=1;
  6882  0AE5  178D               	bsf	13,7	;volatile
  6883  0AE6                     l5644:
  6884                           
  6885                           ;../Projects/src/key_and_Other.c: 354:             TB_5s=78;
  6886  0AE6  304E               	movlw	78
  6887  0AE7  00E9               	movwf	??__FuncCloseReg
  6888  0AE8  0869               	movf	??__FuncCloseReg,w
  6889  0AE9  00C5               	movwf	_TB_5s
  6890  0AEA  2AEF               	goto	l595
  6891  0AEB                     l5648:
  6892                           
  6893                           ;../Projects/src/key_and_Other.c: 359:  _Pass3secKey( 11 ) ;
  6894  0AEB  300B               	movlw	11
  6895  0AEC  3189  21F9  318A   	fcall	__Pass3secKey
  6896  0AEF                     l595:
  6897  0AEF  0008               	return
  6898  0AF0                     __end_of__FuncCloseReg:
  6899                           
  6900                           	psect	text24
  6901  09F9                     __ptext24:	
  6902 ;; *************** function __Pass3secKey *****************
  6903 ;; Defined at:
  6904 ;;		line 407 in file "../Projects/src/key_and_Other.c"
  6905 ;; Parameters:    Size  Location     Type
  6906 ;;  req             1    wreg     unsigned char 
  6907 ;; Auto vars:     Size  Location     Type
  6908 ;;  req             1   23[BANK0 ] unsigned char 
  6909 ;; Return value:  Size  Location     Type
  6910 ;;                  1    wreg      void 
  6911 ;; Registers used:
  6912 ;;		wreg, fsr0l, fsr0h, fsr1l, fsr1h, status,2, status,0, pclath, cstack
  6913 ;; Tracked objects:
  6914 ;;		On entry : 0/0
  6915 ;;		On exit  : 0/0
  6916 ;;		Unchanged: 0/0
  6917 ;; Data sizes:     COMMON   BANK0   BANK1   BANK2   BANK3   BANK4   BANK5   BANK6   BANK7   BANK8   BANK9  BANK10  BANK1
      +1  BANK12
  6918 ;;      Params:         0       0       0       0       0       0       0       0       0       0       0       0       
      +0       0
  6919 ;;      Locals:         0       1       0       0       0       0       0       0       0       0       0       0       
      +0       0
  6920 ;;      Temps:          0       0       0       0       0       0       0       0       0       0       0       0       
      +0       0
  6921 ;;      Totals:         0       1       0       0       0       0       0       0       0       0       0       0       
      +0       0
  6922 ;;Total ram usage:        1 bytes
  6923 ;; Hardware stack levels used:    1
  6924 ;; Hardware stack levels required when called:    6
  6925 ;; This function calls:
  6926 ;;		__ReqTxdEdit
  6927 ;; This function is called by:
  6928 ;;		__FuncOpenReg
  6929 ;;		__FuncCloseReg
  6930 ;;		__FuncVentReg
  6931 ;;		__FuncStopReg
  6932 ;; This function uses a non-reentrant model
  6933 ;;
  6934                           
  6935                           
  6936                           ;psect for function __Pass3secKey
  6937  09F9                     __Pass3secKey:
  6938                           
  6939                           ;incstack = 0
  6940                           ; Regs used in __Pass3secKey: [wreg-fsr1h+status,2+status,0+pclath+cstack]
  6941                           ;__Pass3secKey@req stored from wreg
  6942  09F9  0020               	movlb	0	; select bank0
  6943  09FA  00E8               	movwf	__Pass3secKey@req
  6944  09FB                     l5378:
  6945                           
  6946                           ;../Projects/src/key_and_Other.c: 407: void _Pass3secKey( unsigned char req );../Project
      +                          s/src/key_and_Other.c: 408: {;../Projects/src/key_and_Other.c: 409:  if ( m_TimerKey )
  6947  09FB  0824               	movf	_m_TimerKey,w
  6948  09FC  0425               	iorwf	_m_TimerKey+1,w
  6949  09FD  1903               	btfsc	3,2
  6950  09FE  2A00               	goto	u3051
  6951  09FF  2A01               	goto	u3050
  6952  0A00                     u3051:
  6953  0A00  2A13               	goto	l610
  6954  0A01                     u3050:
  6955  0A01                     l5380:
  6956                           
  6957                           ;../Projects/src/key_and_Other.c: 410:  {;../Projects/src/key_and_Other.c: 411:   if ( !
      +                          --m_TimerKey )
  6958  0A01  3001               	movlw	1
  6959  0A02  02A4               	subwf	_m_TimerKey,f
  6960  0A03  3000               	movlw	0
  6961  0A04  3BA5               	subwfb	_m_TimerKey+1,f
  6962  0A05  0824               	movf	_m_TimerKey,w
  6963  0A06  0425               	iorwf	_m_TimerKey+1,w
  6964  0A07  1D03               	btfss	3,2
  6965  0A08  2A0A               	goto	u3061
  6966  0A09  2A0B               	goto	u3060
  6967  0A0A                     u3061:
  6968  0A0A  2A13               	goto	l610
  6969  0A0B                     u3060:
  6970  0A0B                     l5382:
  6971                           
  6972                           ;../Projects/src/key_and_Other.c: 412:   {;../Projects/src/key_and_Other.c: 413:    _Req
      +                          TxdEdit( req,0 ) ;
  6973  0A0B  01E2               	clrf	__ReqTxdEdit@buzreq
  6974  0A0C  0868               	movf	__Pass3secKey@req,w
  6975  0A0D  3183  23A2  3189   	fcall	__ReqTxdEdit
  6976  0A10                     l5384:
  6977                           
  6978                           ;../Projects/src/key_and_Other.c: 414:                         FG_Complex_Single_shot=1;
  6979  0A10  0020               	movlb	0	; select bank0
  6980  0A11  01B1               	clrf	_FG_Complex_Single_shot
  6981  0A12  0AB1               	incf	_FG_Complex_Single_shot,f
  6982  0A13                     l610:
  6983  0A13  0008               	return
  6984  0A14                     __end_of__Pass3secKey:
  6985                           
  6986                           	psect	text25
  6987  03A2                     __ptext25:	
  6988 ;; *************** function __ReqTxdEdit *****************
  6989 ;; Defined at:
  6990 ;;		line 703 in file "../Projects/src/key_and_Other.c"
  6991 ;; Parameters:    Size  Location     Type
  6992 ;;  txreq           1    wreg     unsigned char 
  6993 ;;  buzreq          1   17[BANK0 ] unsigned char 
  6994 ;; Auto vars:     Size  Location     Type
  6995 ;;  txreq           1   21[BANK0 ] unsigned char 
  6996 ;;  time_key        1   22[BANK0 ] unsigned char 
  6997 ;; Return value:  Size  Location     Type
  6998 ;;                  1    wreg      void 
  6999 ;; Registers used:
  7000 ;;		wreg, fsr0l, fsr0h, fsr1l, fsr1h, status,2, status,0, pclath, cstack
  7001 ;; Tracked objects:
  7002 ;;		On entry : 0/0
  7003 ;;		On exit  : 0/0
  7004 ;;		Unchanged: 0/0
  7005 ;; Data sizes:     COMMON   BANK0   BANK1   BANK2   BANK3   BANK4   BANK5   BANK6   BANK7   BANK8   BANK9  BANK10  BANK1
      +1  BANK12
  7006 ;;      Params:         0       1       0       0       0       0       0       0       0       0       0       0       
      +0       0
  7007 ;;      Locals:         0       2       0       0       0       0       0       0       0       0       0       0       
      +0       0
  7008 ;;      Temps:          0       3       0       0       0       0       0       0       0       0       0       0       
      +0       0
  7009 ;;      Totals:         0       6       0       0       0       0       0       0       0       0       0       0       
      +0       0
  7010 ;;Total ram usage:        6 bytes
  7011 ;; Hardware stack levels used:    1
  7012 ;; Hardware stack levels required when called:    5
  7013 ;; This function calls:
  7014 ;;		_SendTxData
  7015 ;;		__ReqBuzzer
  7016 ;;		_dd_set_ADF7021_Power_on
  7017 ;;		_dd_set_TX_mode
  7018 ;; This function is called by:
  7019 ;;		__FuncOpenStop
  7020 ;;		__Pass3secKey
  7021 ;;		__FuncStop
  7022 ;;		__RegistrationMode
  7023 ;; This function uses a non-reentrant model
  7024 ;;
  7025                           
  7026                           
  7027                           ;psect for function __ReqTxdEdit
  7028  03A2                     __ReqTxdEdit:
  7029                           
  7030                           ;incstack = 0
  7031                           ; Regs used in __ReqTxdEdit: [wreg-fsr1h+status,2+status,0+pclath+cstack]
  7032                           ;__ReqTxdEdit@txreq stored from wreg
  7033  03A2  0020               	movlb	0	; select bank0
  7034  03A3  00E6               	movwf	__ReqTxdEdit@txreq
  7035  03A4                     l5308:
  7036                           
  7037                           ;../Projects/src/key_and_Other.c: 703: void _ReqTxdEdit( unsigned char txreq , unsigned 
      +                          char buzreq );../Projects/src/key_and_Other.c: 704: {;../Projects/src/key_and_Other.c: 7
      +                          05:   unsigned char time_key;;../Projects/src/key_and_Other.c: 706:   if((TB_sum_5s<69)&
      +                          &(FG_PWRON==1)&&(TB_5s<25)){
  7038  03A4  3045               	movlw	69
  7039  03A5  022A               	subwf	_TB_sum_5s,w
  7040  03A6  1803               	skipnc
  7041  03A7  2BA9               	goto	u2981
  7042  03A8  2BAA               	goto	u2980
  7043  03A9                     u2981:
  7044  03A9  2BD8               	goto	l679
  7045  03AA                     u2980:
  7046  03AA                     l5310:
  7047  03AA  033B               	decf	_FG_PWRON,w
  7048  03AB  1D03               	btfss	3,2
  7049  03AC  2BAE               	goto	u2991
  7050  03AD  2BAF               	goto	u2990
  7051  03AE                     u2991:
  7052  03AE  2BD8               	goto	l679
  7053  03AF                     u2990:
  7054  03AF                     l5312:
  7055  03AF  3019               	movlw	25
  7056  03B0  0245               	subwf	_TB_5s,w
  7057  03B1  1803               	skipnc
  7058  03B2  2BB4               	goto	u3001
  7059  03B3  2BB5               	goto	u3000
  7060  03B4                     u3001:
  7061  03B4  2BD8               	goto	l679
  7062  03B5                     u3000:
  7063  03B5                     l5314:
  7064                           
  7065                           ;../Projects/src/key_and_Other.c: 707:     time_key=25-TB_5s;
  7066  03B5  0845               	movf	_TB_5s,w
  7067  03B6  3C19               	sublw	25
  7068  03B7  00E3               	movwf	??__ReqTxdEdit
  7069  03B8  0863               	movf	??__ReqTxdEdit,w
  7070  03B9  00E7               	movwf	__ReqTxdEdit@time_key
  7071                           
  7072                           ;../Projects/src/key_and_Other.c: 708:     TB_sum_5s=TB_sum_5s+time_key;
  7073  03BA  082A               	movf	_TB_sum_5s,w
  7074  03BB  0767               	addwf	__ReqTxdEdit@time_key,w
  7075  03BC  00E3               	movwf	??__ReqTxdEdit
  7076  03BD  0863               	movf	??__ReqTxdEdit,w
  7077  03BE  00AA               	movwf	_TB_sum_5s
  7078                           
  7079                           ;../Projects/src/key_and_Other.c: 709:     if((69-TB_sum_5s)>=27)TB_5s=25;
  7080  03BF  3000               	movlw	0
  7081  03C0  00E4               	movwf	??__ReqTxdEdit+1
  7082  03C1  082A               	movf	_TB_sum_5s,w
  7083  03C2  3C45               	sublw	69
  7084  03C3  00E3               	movwf	??__ReqTxdEdit
  7085  03C4  1C03               	skipc
  7086  03C5  03E4               	decf	??__ReqTxdEdit+1,f
  7087  03C6  0864               	movf	??__ReqTxdEdit+1,w
  7088  03C7  3A80               	xorlw	128
  7089  03C8  00E5               	movwf	??__ReqTxdEdit+2
  7090  03C9  3080               	movlw	128
  7091  03CA  0265               	subwf	??__ReqTxdEdit+2,w
  7092  03CB  1D03               	skipz
  7093  03CC  2BCF               	goto	u3015
  7094  03CD  301B               	movlw	27
  7095  03CE  0263               	subwf	??__ReqTxdEdit,w
  7096  03CF                     u3015:
  7097  03CF  1C03               	skipc
  7098  03D0  2BD2               	goto	u3011
  7099  03D1  2BD3               	goto	u3010
  7100  03D2                     u3011:
  7101  03D2  2BD8               	goto	l679
  7102  03D3                     u3010:
  7103  03D3                     l5316:
  7104  03D3  3019               	movlw	25
  7105  03D4  0020               	movlb	0	; select bank0
  7106  03D5  00E3               	movwf	??__ReqTxdEdit
  7107  03D6  0863               	movf	??__ReqTxdEdit,w
  7108  03D7  00C5               	movwf	_TB_5s
  7109  03D8                     l679:	
  7110                           ;../Projects/src/key_and_Other.c: 711:   }
  7111                           
  7112                           
  7113                           ;../Projects/src/key_and_Other.c: 712:   if((TB_5s>=25)||(TIME_2s_RestTX==0)){
  7114  03D8  3019               	movlw	25
  7115  03D9  0020               	movlb	0	; select bank0
  7116  03DA  0245               	subwf	_TB_5s,w
  7117  03DB  1803               	skipnc
  7118  03DC  2BDE               	goto	u3021
  7119  03DD  2BDF               	goto	u3020
  7120  03DE                     u3021:
  7121  03DE  2BE4               	goto	l5320
  7122  03DF                     u3020:
  7123  03DF                     l5318:
  7124  03DF  083C               	movf	_TIME_2s_RestTX,w
  7125  03E0  1D03               	btfss	3,2
  7126  03E1  2BE3               	goto	u3031
  7127  03E2  2BE4               	goto	u3030
  7128  03E3                     u3031:
  7129  03E3  2CB2               	goto	l681
  7130  03E4                     u3030:
  7131  03E4                     l5320:
  7132                           
  7133                           ;../Projects/src/key_and_Other.c: 713:         if(FG_PWRON==0){
  7134  03E4  083B               	movf	_FG_PWRON,w
  7135  03E5  1D03               	btfss	3,2
  7136  03E6  2BE8               	goto	u3041
  7137  03E7  2BE9               	goto	u3040
  7138  03E8                     u3041:
  7139  03E8  2C21               	goto	l5346
  7140  03E9                     u3040:
  7141  03E9                     l5322:
  7142                           
  7143                           ;../Projects/src/key_and_Other.c: 714:  FG_PWRON=1;
  7144  03E9  01BB               	clrf	_FG_PWRON
  7145  03EA  0ABB               	incf	_FG_PWRON,f
  7146                           
  7147                           ;../Projects/src/key_and_Other.c: 715:  RB7=1;
  7148  03EB  178D               	bsf	13,7	;volatile
  7149  03EC                     l5324:
  7150                           
  7151                           ;../Projects/src/key_and_Other.c: 716:  TB_5s=TB_51s;
  7152  03EC  0846               	movf	_TB_51s,w
  7153  03ED  00E3               	movwf	??__ReqTxdEdit
  7154  03EE  0863               	movf	??__ReqTxdEdit,w
  7155  03EF  00C5               	movwf	_TB_5s
  7156  03F0  2C21               	goto	l5346
  7157  03F1                     l5326:
  7158                           
  7159                           ;../Projects/src/key_and_Other.c: 721:           Control_code=0x08;
  7160  03F1  3008               	movlw	8
  7161  03F2  00E3               	movwf	??__ReqTxdEdit
  7162  03F3  0863               	movf	??__ReqTxdEdit,w
  7163  03F4  00CB               	movwf	_Control_code
  7164                           
  7165                           ;../Projects/src/key_and_Other.c: 722:    break ;
  7166  03F5  2C8A               	goto	l5360
  7167  03F6                     l5328:
  7168                           
  7169                           ;../Projects/src/key_and_Other.c: 724:           Control_code=0x04;
  7170  03F6  3004               	movlw	4
  7171  03F7  00E3               	movwf	??__ReqTxdEdit
  7172  03F8  0863               	movf	??__ReqTxdEdit,w
  7173  03F9  00CB               	movwf	_Control_code
  7174                           
  7175                           ;../Projects/src/key_and_Other.c: 725:    break ;
  7176  03FA  2C8A               	goto	l5360
  7177  03FB                     l5330:
  7178                           
  7179                           ;../Projects/src/key_and_Other.c: 727:           Control_code=0x02;
  7180  03FB  3002               	movlw	2
  7181  03FC  00E3               	movwf	??__ReqTxdEdit
  7182  03FD  0863               	movf	??__ReqTxdEdit,w
  7183  03FE  00CB               	movwf	_Control_code
  7184                           
  7185                           ;../Projects/src/key_and_Other.c: 728:    break ;
  7186  03FF  2C8A               	goto	l5360
  7187  0400                     l690:	
  7188                           ;../Projects/src/key_and_Other.c: 729:   case 4 :
  7189                           
  7190                           
  7191                           ;../Projects/src/key_and_Other.c: 730:           Control_code=0x01;
  7192  0400  01CB               	clrf	_Control_code
  7193  0401  0ACB               	incf	_Control_code,f
  7194                           
  7195                           ;../Projects/src/key_and_Other.c: 731:    break ;
  7196  0402  2C8A               	goto	l5360
  7197  0403                     l5332:
  7198                           
  7199                           ;../Projects/src/key_and_Other.c: 733:           Control_code=0x14;
  7200  0403  3014               	movlw	20
  7201  0404  00E3               	movwf	??__ReqTxdEdit
  7202  0405  0863               	movf	??__ReqTxdEdit,w
  7203  0406  00CB               	movwf	_Control_code
  7204                           
  7205                           ;../Projects/src/key_and_Other.c: 734:    break ;
  7206  0407  2C8A               	goto	l5360
  7207  0408                     l5334:
  7208                           
  7209                           ;../Projects/src/key_and_Other.c: 736:           Control_code=0x0C;
  7210  0408  300C               	movlw	12
  7211  0409  00E3               	movwf	??__ReqTxdEdit
  7212  040A  0863               	movf	??__ReqTxdEdit,w
  7213  040B  00CB               	movwf	_Control_code
  7214                           
  7215                           ;../Projects/src/key_and_Other.c: 737:           break ;
  7216  040C  2C8A               	goto	l5360
  7217  040D                     l5336:
  7218                           
  7219                           ;../Projects/src/key_and_Other.c: 739:          Control_code=0x0A;
  7220  040D  300A               	movlw	10
  7221  040E  00E3               	movwf	??__ReqTxdEdit
  7222  040F  0863               	movf	??__ReqTxdEdit,w
  7223  0410  00CB               	movwf	_Control_code
  7224                           
  7225                           ;../Projects/src/key_and_Other.c: 740:           break ;
  7226  0411  2C8A               	goto	l5360
  7227  0412                     l5338:
  7228                           
  7229                           ;../Projects/src/key_and_Other.c: 742:          Control_code=0x09;
  7230  0412  3009               	movlw	9
  7231  0413  00E3               	movwf	??__ReqTxdEdit
  7232  0414  0863               	movf	??__ReqTxdEdit,w
  7233  0415  00CB               	movwf	_Control_code
  7234                           
  7235                           ;../Projects/src/key_and_Other.c: 743:           break ;
  7236  0416  2C8A               	goto	l5360
  7237  0417                     l5340:
  7238                           
  7239                           ;../Projects/src/key_and_Other.c: 745:          Control_code=0x06;
  7240  0417  3006               	movlw	6
  7241  0418  00E3               	movwf	??__ReqTxdEdit
  7242  0419  0863               	movf	??__ReqTxdEdit,w
  7243  041A  00CB               	movwf	_Control_code
  7244                           
  7245                           ;../Projects/src/key_and_Other.c: 746:           break ;
  7246  041B  2C8A               	goto	l5360
  7247  041C                     l5342:
  7248                           
  7249                           ;../Projects/src/key_and_Other.c: 748:          Control_code=0x03;
  7250  041C  3003               	movlw	3
  7251  041D  00E3               	movwf	??__ReqTxdEdit
  7252  041E  0863               	movf	??__ReqTxdEdit,w
  7253  041F  00CB               	movwf	_Control_code
  7254                           
  7255                           ;../Projects/src/key_and_Other.c: 749:           break ;
  7256  0420  2C8A               	goto	l5360
  7257  0421                     l5346:
  7258  0421  0866               	movf	__ReqTxdEdit@txreq,w
  7259  0422  00E3               	movwf	??__ReqTxdEdit
  7260  0423  01E4               	clrf	??__ReqTxdEdit+1
  7261                           
  7262                           ; Switch on 2 bytes has been partitioned into a top level switch of size 1, and 1 sub-sw
      +                          itches
  7263                           ; Switch size 1, requested type "simple"
  7264                           ; Number of cases is 1, Range of values is 0 to 0
  7265                           ; switch strategies available:
  7266                           ; Name         Instructions Cycles
  7267                           ; simple_byte            4     3 (average)
  7268                           ; direct_byte            8     6 (fixed)
  7269                           ; jumptable            260     6 (fixed)
  7270                           ;	Chosen strategy is simple_byte
  7271  0424  0864               	movf	??__ReqTxdEdit+1,w
  7272  0425  3A00               	xorlw	0	; case 0
  7273  0426  1903               	skipnz
  7274  0427  2C29               	goto	l6764
  7275  0428  2C8A               	goto	l5360
  7276  0429                     l6764:
  7277                           
  7278                           ; Switch size 1, requested type "simple"
  7279                           ; Number of cases is 10, Range of values is 1 to 12
  7280                           ; switch strategies available:
  7281                           ; Name         Instructions Cycles
  7282                           ; simple_byte           31    16 (average)
  7283                           ; direct_byte           33     9 (fixed)
  7284                           ; jumptable            263     9 (fixed)
  7285                           ;	Chosen strategy is simple_byte
  7286  0429  0863               	movf	??__ReqTxdEdit,w
  7287  042A  3A01               	xorlw	1	; case 1
  7288  042B  1903               	skipnz
  7289  042C  2BF1               	goto	l5326
  7290  042D  3A03               	xorlw	3	; case 2
  7291  042E  1903               	skipnz
  7292  042F  2BF6               	goto	l5328
  7293  0430  3A01               	xorlw	1	; case 3
  7294  0431  1903               	skipnz
  7295  0432  2BFB               	goto	l5330
  7296  0433  3A07               	xorlw	7	; case 4
  7297  0434  1903               	skipnz
  7298  0435  2C00               	goto	l690
  7299  0436  3A01               	xorlw	1	; case 5
  7300  0437  1903               	skipnz
  7301  0438  2C08               	goto	l5334
  7302  0439  3A03               	xorlw	3	; case 6
  7303  043A  1903               	skipnz
  7304  043B  2C0D               	goto	l5336
  7305  043C  3A01               	xorlw	1	; case 7
  7306  043D  1903               	skipnz
  7307  043E  2C12               	goto	l5338
  7308  043F  3A0E               	xorlw	14	; case 9
  7309  0440  1903               	skipnz
  7310  0441  2C17               	goto	l5340
  7311  0442  3A03               	xorlw	3	; case 10
  7312  0443  1903               	skipnz
  7313  0444  2C03               	goto	l5332
  7314  0445  3A06               	xorlw	6	; case 12
  7315  0446  1903               	skipnz
  7316  0447  2C1C               	goto	l5342
  7317  0448  2C8A               	goto	l5360
  7318  0449                     l5348:
  7319                           
  7320                           ;../Projects/src/key_and_Other.c: 754:          _ReqBuzzer(103,103,0);
  7321  0449  3067               	movlw	103
  7322  044A  00F3               	movwf	__ReqBuzzer@BEEP_on_SET
  7323  044B  3000               	movlw	0
  7324  044C  00F4               	movwf	__ReqBuzzer@BEEP_on_SET+1
  7325  044D  3067               	movlw	103
  7326  044E  00E3               	movwf	??__ReqTxdEdit
  7327  044F  0863               	movf	??__ReqTxdEdit,w
  7328  0450  00F5               	movwf	__ReqBuzzer@BEEP_off_SET
  7329  0451  01F6               	clrf	__ReqBuzzer@BEEP_freq_SET
  7330  0452  318A  22AE  3183   	fcall	__ReqBuzzer
  7331                           
  7332                           ;../Projects/src/key_and_Other.c: 758:    break ;
  7333  0455  2CA3               	goto	l5362
  7334  0456                     l5350:
  7335                           
  7336                           ;../Projects/src/key_and_Other.c: 760:          _ReqBuzzer(103,103,1);
  7337  0456  3067               	movlw	103
  7338  0457  00F3               	movwf	__ReqBuzzer@BEEP_on_SET
  7339  0458  3000               	movlw	0
  7340  0459  00F4               	movwf	__ReqBuzzer@BEEP_on_SET+1
  7341  045A  3067               	movlw	103
  7342  045B  00E3               	movwf	??__ReqTxdEdit
  7343  045C  0863               	movf	??__ReqTxdEdit,w
  7344  045D  00F5               	movwf	__ReqBuzzer@BEEP_off_SET
  7345  045E  01F6               	clrf	__ReqBuzzer@BEEP_freq_SET
  7346  045F  0AF6               	incf	__ReqBuzzer@BEEP_freq_SET,f
  7347  0460  318A  22AE  3183   	fcall	__ReqBuzzer
  7348                           
  7349                           ;../Projects/src/key_and_Other.c: 764:    break ;
  7350  0463  2CA3               	goto	l5362
  7351  0464                     l5352:
  7352                           
  7353                           ;../Projects/src/key_and_Other.c: 766:         _ReqBuzzer(103,103,2);
  7354  0464  3067               	movlw	103
  7355  0465  00F3               	movwf	__ReqBuzzer@BEEP_on_SET
  7356  0466  3000               	movlw	0
  7357  0467  00F4               	movwf	__ReqBuzzer@BEEP_on_SET+1
  7358  0468  3067               	movlw	103
  7359  0469  00E3               	movwf	??__ReqTxdEdit
  7360  046A  0863               	movf	??__ReqTxdEdit,w
  7361  046B  00F5               	movwf	__ReqBuzzer@BEEP_off_SET
  7362  046C  3002               	movlw	2
  7363  046D  00E4               	movwf	??__ReqTxdEdit+1
  7364  046E  0864               	movf	??__ReqTxdEdit+1,w
  7365  046F  00F6               	movwf	__ReqBuzzer@BEEP_freq_SET
  7366  0470  318A  22AE  3183   	fcall	__ReqBuzzer
  7367                           
  7368                           ;../Projects/src/key_and_Other.c: 770:    break ;
  7369  0473  2CA3               	goto	l5362
  7370  0474                     l5354:
  7371                           
  7372                           ;../Projects/src/key_and_Other.c: 772:         _ReqBuzzer(500,1,0);
  7373  0474  30F4               	movlw	244
  7374  0475  00F3               	movwf	__ReqBuzzer@BEEP_on_SET
  7375  0476  3001               	movlw	1
  7376  0477  00F4               	movwf	__ReqBuzzer@BEEP_on_SET+1
  7377  0478  01F5               	clrf	__ReqBuzzer@BEEP_off_SET
  7378  0479  0AF5               	incf	__ReqBuzzer@BEEP_off_SET,f
  7379  047A  01F6               	clrf	__ReqBuzzer@BEEP_freq_SET
  7380  047B  318A  22AE  3183   	fcall	__ReqBuzzer
  7381                           
  7382                           ;../Projects/src/key_and_Other.c: 773:         break ;
  7383  047E  2CA3               	goto	l5362
  7384  047F                     l5356:
  7385                           
  7386                           ;../Projects/src/key_and_Other.c: 775:          _ReqBuzzer(1000,1,0);
  7387  047F  30E8               	movlw	232
  7388  0480  00F3               	movwf	__ReqBuzzer@BEEP_on_SET
  7389  0481  3003               	movlw	3
  7390  0482  00F4               	movwf	__ReqBuzzer@BEEP_on_SET+1
  7391  0483  01F5               	clrf	__ReqBuzzer@BEEP_off_SET
  7392  0484  0AF5               	incf	__ReqBuzzer@BEEP_off_SET,f
  7393  0485  01F6               	clrf	__ReqBuzzer@BEEP_freq_SET
  7394  0486  318A  22AE  3183   	fcall	__ReqBuzzer
  7395                           
  7396                           ;../Projects/src/key_and_Other.c: 779:    break ;
  7397  0489  2CA3               	goto	l5362
  7398  048A                     l5360:
  7399  048A  0862               	movf	__ReqTxdEdit@buzreq,w
  7400  048B  00E3               	movwf	??__ReqTxdEdit
  7401  048C  01E4               	clrf	??__ReqTxdEdit+1
  7402                           
  7403                           ; Switch on 2 bytes has been partitioned into a top level switch of size 1, and 1 sub-sw
      +                          itches
  7404                           ; Switch size 1, requested type "simple"
  7405                           ; Number of cases is 1, Range of values is 0 to 0
  7406                           ; switch strategies available:
  7407                           ; Name         Instructions Cycles
  7408                           ; simple_byte            4     3 (average)
  7409                           ; direct_byte            8     6 (fixed)
  7410                           ; jumptable            260     6 (fixed)
  7411                           ;	Chosen strategy is simple_byte
  7412  048D  0864               	movf	??__ReqTxdEdit+1,w
  7413  048E  3A00               	xorlw	0	; case 0
  7414  048F  1903               	skipnz
  7415  0490  2C92               	goto	l6766
  7416  0491  2CA3               	goto	l5362
  7417  0492                     l6766:
  7418                           
  7419                           ; Switch size 1, requested type "simple"
  7420                           ; Number of cases is 5, Range of values is 1 to 20
  7421                           ; switch strategies available:
  7422                           ; Name         Instructions Cycles
  7423                           ; simple_byte           16     9 (average)
  7424                           ; direct_byte           49     9 (fixed)
  7425                           ; jumptable            263     9 (fixed)
  7426                           ;	Chosen strategy is simple_byte
  7427  0492  0863               	movf	??__ReqTxdEdit,w
  7428  0493  3A01               	xorlw	1	; case 1
  7429  0494  1903               	skipnz
  7430  0495  2C49               	goto	l5348
  7431  0496  3A03               	xorlw	3	; case 2
  7432  0497  1903               	skipnz
  7433  0498  2C56               	goto	l5350
  7434  0499  3A01               	xorlw	1	; case 3
  7435  049A  1903               	skipnz
  7436  049B  2C64               	goto	l5352
  7437  049C  3A07               	xorlw	7	; case 4
  7438  049D  1903               	skipnz
  7439  049E  2C74               	goto	l5354
  7440  049F  3A10               	xorlw	16	; case 20
  7441  04A0  1903               	skipnz
  7442  04A1  2C7F               	goto	l5356
  7443  04A2  2CA3               	goto	l5362
  7444  04A3                     l5362:
  7445                           
  7446                           ;../Projects/src/key_and_Other.c: 781:         dd_set_ADF7021_Power_on();
  7447  04A3  3189  2135  3183   	fcall	_dd_set_ADF7021_Power_on
  7448  04A6                     l5364:
  7449                           
  7450                           ;../Projects/src/key_and_Other.c: 782:         dd_set_TX_mode();
  7451  04A6  3187  27A8  3183   	fcall	_dd_set_TX_mode
  7452  04A9                     l5366:
  7453                           
  7454                           ;../Projects/src/key_and_Other.c: 785:         SendTxData();
  7455  04A9  318F  2726  3183   	fcall	_SendTxData
  7456  04AC                     l5368:
  7457                           
  7458                           ;../Projects/src/key_and_Other.c: 786:         TIME_2s_RestTX=25;
  7459  04AC  3019               	movlw	25
  7460  04AD  0020               	movlb	0	; select bank0
  7461  04AE  00E3               	movwf	??__ReqTxdEdit
  7462  04AF  0863               	movf	??__ReqTxdEdit,w
  7463  04B0  00BC               	movwf	_TIME_2s_RestTX
  7464                           
  7465                           ;../Projects/src/key_and_Other.c: 787:   }
  7466  04B1  2CB3               	goto	l705
  7467  04B2                     l681:	
  7468                           ;../Projects/src/key_and_Other.c: 788:   else RB5=0;
  7469                           
  7470  04B2  128D               	bcf	13,5	;volatile
  7471  04B3                     l705:
  7472  04B3  0008               	return
  7473  04B4                     __end_of__ReqTxdEdit:
  7474                           
  7475                           	psect	text26
  7476  07A8                     __ptext26:	
  7477 ;; *************** function _dd_set_TX_mode *****************
  7478 ;; Defined at:
  7479 ;;		line 116 in file "../Projects/src/adf7012.c"
  7480 ;; Parameters:    Size  Location     Type
  7481 ;;		None
  7482 ;; Auto vars:     Size  Location     Type
  7483 ;;  register_val    4    0[BANK0 ] struct .
  7484 ;; Return value:  Size  Location     Type
  7485 ;;                  1    wreg      void 
  7486 ;; Registers used:
  7487 ;;		wreg, fsr1l, fsr1h, status,2, status,0, pclath, cstack
  7488 ;; Tracked objects:
  7489 ;;		On entry : 0/0
  7490 ;;		On exit  : 0/0
  7491 ;;		Unchanged: 0/0
  7492 ;; Data sizes:     COMMON   BANK0   BANK1   BANK2   BANK3   BANK4   BANK5   BANK6   BANK7   BANK8   BANK9  BANK10  BANK1
      +1  BANK12
  7493 ;;      Params:         0       0       0       0       0       0       0       0       0       0       0       0       
      +0       0
  7494 ;;      Locals:         0       4       0       0       0       0       0       0       0       0       0       0       
      +0       0
  7495 ;;      Temps:          0       0       0       0       0       0       0       0       0       0       0       0       
      +0       0
  7496 ;;      Totals:         0       4       0       0       0       0       0       0       0       0       0       0       
      +0       0
  7497 ;;Total ram usage:        4 bytes
  7498 ;; Hardware stack levels used:    1
  7499 ;; Hardware stack levels required when called:    3
  7500 ;; This function calls:
  7501 ;;		_Delayus
  7502 ;;		_dd_write_7021_reg
  7503 ;; This function is called by:
  7504 ;;		__ReqTxdEdit
  7505 ;;		_test_mode_control
  7506 ;; This function uses a non-reentrant model
  7507 ;;
  7508                           
  7509                           
  7510                           ;psect for function _dd_set_TX_mode
  7511  07A8                     _dd_set_TX_mode:
  7512  07A8                     l5284:	
  7513                           ;incstack = 0
  7514                           ; Regs used in _dd_set_TX_mode: [wreg+fsr1l+fsr1h+status,2+status,0+pclath+cstack]
  7515                           
  7516                           
  7517                           ;../Projects/src/adf7012.c: 191:       ADF70XX_REG_T register_value;;../Projects/src/adf
      +                          7012.c: 194:       register_value.whole_reg = ROM_adf7012_value[0].whole_reg;
  7518  07A8  0021               	movlb	1	; select bank1
  7519  07A9  085E               	movf	(_ROM_adf7012_value+3)^(0+128),w
  7520  07AA  0020               	movlb	0	; select bank0
  7521  07AB  00D4               	movwf	dd_set_TX_mode@register_value+3
  7522  07AC  0021               	movlb	1	; select bank1
  7523  07AD  085D               	movf	(_ROM_adf7012_value+2)^(0+128),w
  7524  07AE  0020               	movlb	0	; select bank0
  7525  07AF  00D3               	movwf	dd_set_TX_mode@register_value+2
  7526  07B0  0021               	movlb	1	; select bank1
  7527  07B1  085C               	movf	(_ROM_adf7012_value+1)^(0+128),w
  7528  07B2  0020               	movlb	0	; select bank0
  7529  07B3  00D2               	movwf	dd_set_TX_mode@register_value+1
  7530  07B4  0021               	movlb	1	; select bank1
  7531  07B5  085B               	movf	_ROM_adf7012_value^(0+128),w
  7532  07B6  0020               	movlb	0	; select bank0
  7533  07B7  00D1               	movwf	dd_set_TX_mode@register_value
  7534  07B8                     l5286:
  7535                           
  7536                           ;../Projects/src/adf7012.c: 195:       dd_write_7021_reg(&register_value.byte[0]);
  7537  07B8  3051               	movlw	(low (dd_set_TX_mode@register_value| 0))& (0+255)
  7538  07B9  318B  23CF  3187   	fcall	_dd_write_7021_reg
  7539  07BC                     l5288:
  7540                           
  7541                           ;../Projects/src/adf7012.c: 196:       Delayus(25);
  7542  07BC  3019               	movlw	25
  7543  07BD  3189  216E  3187   	fcall	_Delayus
  7544  07C0                     l5290:
  7545                           
  7546                           ;../Projects/src/adf7012.c: 199:       register_value.whole_reg = ROM_adf7012_value[1].w
      +                          hole_reg;
  7547  07C0  3004               	movlw	4
  7548  07C1  3EDB               	addlw	(low (_ROM_adf7012_value| 0))& (0+255)
  7549  07C2  0086               	movwf	6
  7550  07C3  0187               	clrf	7
  7551  07C4  3F40               	moviw [0]fsr1
  7552  07C5  0020               	movlb	0	; select bank0
  7553  07C6  00D1               	movwf	dd_set_TX_mode@register_value
  7554  07C7  3F41               	moviw [1]fsr1
  7555  07C8  00D2               	movwf	dd_set_TX_mode@register_value+1
  7556  07C9  3F42               	moviw [2]fsr1
  7557  07CA  00D3               	movwf	dd_set_TX_mode@register_value+2
  7558  07CB  3F43               	moviw [3]fsr1
  7559  07CC  00D4               	movwf	dd_set_TX_mode@register_value+3
  7560  07CD                     l5292:
  7561                           
  7562                           ;../Projects/src/adf7012.c: 200:       dd_write_7021_reg(&register_value.byte[0]);
  7563  07CD  3051               	movlw	(low (dd_set_TX_mode@register_value| 0))& (0+255)
  7564  07CE  318B  23CF  3187   	fcall	_dd_write_7021_reg
  7565  07D1                     l5294:
  7566                           
  7567                           ;../Projects/src/adf7012.c: 201:       Delayus(25);
  7568  07D1  3019               	movlw	25
  7569  07D2  3189  216E  3187   	fcall	_Delayus
  7570  07D5                     l5296:
  7571                           
  7572                           ;../Projects/src/adf7012.c: 204:       register_value.whole_reg = ROM_adf7012_value[2].w
      +                          hole_reg;
  7573  07D5  3008               	movlw	8
  7574  07D6  3EDB               	addlw	(low (_ROM_adf7012_value| 0))& (0+255)
  7575  07D7  0086               	movwf	6
  7576  07D8  0187               	clrf	7
  7577  07D9  3F40               	moviw [0]fsr1
  7578  07DA  0020               	movlb	0	; select bank0
  7579  07DB  00D1               	movwf	dd_set_TX_mode@register_value
  7580  07DC  3F41               	moviw [1]fsr1
  7581  07DD  00D2               	movwf	dd_set_TX_mode@register_value+1
  7582  07DE  3F42               	moviw [2]fsr1
  7583  07DF  00D3               	movwf	dd_set_TX_mode@register_value+2
  7584  07E0  3F43               	moviw [3]fsr1
  7585  07E1  00D4               	movwf	dd_set_TX_mode@register_value+3
  7586  07E2                     l5298:
  7587                           
  7588                           ;../Projects/src/adf7012.c: 205:       dd_write_7021_reg(&register_value.byte[0]);
  7589  07E2  3051               	movlw	(low (dd_set_TX_mode@register_value| 0))& (0+255)
  7590  07E3  318B  23CF  3187   	fcall	_dd_write_7021_reg
  7591  07E6                     l5300:
  7592                           
  7593                           ;../Projects/src/adf7012.c: 206:       Delayus(25);
  7594  07E6  3019               	movlw	25
  7595  07E7  3189  216E  3187   	fcall	_Delayus
  7596  07EA                     l5302:
  7597                           
  7598                           ;../Projects/src/adf7012.c: 210:       register_value.whole_reg = ROM_adf7012_value[3].w
      +                          hole_reg;
  7599  07EA  300C               	movlw	12
  7600  07EB  3EDB               	addlw	(low (_ROM_adf7012_value| 0))& (0+255)
  7601  07EC  0086               	movwf	6
  7602  07ED  0187               	clrf	7
  7603  07EE  3F40               	moviw [0]fsr1
  7604  07EF  0020               	movlb	0	; select bank0
  7605  07F0  00D1               	movwf	dd_set_TX_mode@register_value
  7606  07F1  3F41               	moviw [1]fsr1
  7607  07F2  00D2               	movwf	dd_set_TX_mode@register_value+1
  7608  07F3  3F42               	moviw [2]fsr1
  7609  07F4  00D3               	movwf	dd_set_TX_mode@register_value+2
  7610  07F5  3F43               	moviw [3]fsr1
  7611  07F6  00D4               	movwf	dd_set_TX_mode@register_value+3
  7612  07F7                     l5304:
  7613                           
  7614                           ;../Projects/src/adf7012.c: 211:       dd_write_7021_reg(&register_value.byte[0]);
  7615  07F7  3051               	movlw	(low (dd_set_TX_mode@register_value| 0))& (0+255)
  7616  07F8  318B  23CF  3187   	fcall	_dd_write_7021_reg
  7617  07FB                     l5306:
  7618                           
  7619                           ;../Projects/src/adf7012.c: 212:       Delayus(25);
  7620  07FB  3019               	movlw	25
  7621  07FC  3189  216E  3187   	fcall	_Delayus
  7622  07FF                     l166:
  7623  07FF  0008               	return
  7624  0800                     __end_of_dd_set_TX_mode:
  7625                           
  7626                           	psect	text27
  7627  0BCF                     __ptext27:	
  7628 ;; *************** function _dd_write_7021_reg *****************
  7629 ;; Defined at:
  7630 ;;		line 17 in file "../Projects/src/adf7012.c"
  7631 ;; Parameters:    Size  Location     Type
  7632 ;;  reg_bytes       1    wreg     PTR unsigned char 
  7633 ;;		 -> dd_set_TX_mode@register_value(4), ROM_adf7012_value(16), dd_set_ADF7021_Power_on_Init@register_value(4), 
  7634 ;; Auto vars:     Size  Location     Type
  7635 ;;  reg_bytes       1    8[COMMON] PTR unsigned char 
  7636 ;;		 -> dd_set_TX_mode@register_value(4), ROM_adf7012_value(16), dd_set_ADF7021_Power_on_Init@register_value(4), 
  7637 ;;  i               1    7[COMMON] unsigned char 
  7638 ;;  byte            1    6[COMMON] unsigned char 
  7639 ;;  j               1    5[COMMON] unsigned char 
  7640 ;; Return value:  Size  Location     Type
  7641 ;;                  1    wreg      void 
  7642 ;; Registers used:
  7643 ;;		wreg, fsr1l, fsr1h, status,2, status,0
  7644 ;; Tracked objects:
  7645 ;;		On entry : 0/0
  7646 ;;		On exit  : 0/0
  7647 ;;		Unchanged: 0/0
  7648 ;; Data sizes:     COMMON   BANK0   BANK1   BANK2   BANK3   BANK4   BANK5   BANK6   BANK7   BANK8   BANK9  BANK10  BANK1
      +1  BANK12
  7649 ;;      Params:         0       0       0       0       0       0       0       0       0       0       0       0       
      +0       0
  7650 ;;      Locals:         4       0       0       0       0       0       0       0       0       0       0       0       
      +0       0
  7651 ;;      Temps:          2       0       0       0       0       0       0       0       0       0       0       0       
      +0       0
  7652 ;;      Totals:         6       0       0       0       0       0       0       0       0       0       0       0       
      +0       0
  7653 ;;Total ram usage:        6 bytes
  7654 ;; Hardware stack levels used:    1
  7655 ;; Hardware stack levels required when called:    2
  7656 ;; This function calls:
  7657 ;;		Nothing
  7658 ;; This function is called by:
  7659 ;;		_dd_set_ADF7021_Power_on_Init
  7660 ;;		_dd_set_TX_mode
  7661 ;;		_PC_PRG
  7662 ;; This function uses a non-reentrant model
  7663 ;;
  7664                           
  7665                           
  7666                           ;psect for function _dd_write_7021_reg
  7667  0BCF                     _dd_write_7021_reg:
  7668                           
  7669                           ;incstack = 0
  7670                           ; Regs used in _dd_write_7021_reg: [wreg+fsr1l+fsr1h+status,2+status,0]
  7671                           ;dd_write_7021_reg@reg_bytes stored from wreg
  7672  0BCF  00F8               	movwf	dd_write_7021_reg@reg_bytes
  7673  0BD0                     l5210:
  7674                           
  7675                           ;../Projects/src/adf7012.c: 17: void dd_write_7021_reg(unsigned char* reg_bytes);../Proj
      +                          ects/src/adf7012.c: 18: {;../Projects/src/adf7012.c: 19:     unsigned char i, j;;../Proj
      +                          ects/src/adf7012.c: 20:     unsigned char byte;;../Projects/src/adf7012.c: 22:     RC6 =
      +                           0;
  7676  0BD0  0020               	movlb	0	; select bank0
  7677  0BD1  130E               	bcf	14,6	;volatile
  7678                           
  7679                           ;../Projects/src/adf7012.c: 23:     RB6 = 0;
  7680  0BD2  130D               	bcf	13,6	;volatile
  7681  0BD3                     l5212:
  7682                           
  7683                           ;../Projects/src/adf7012.c: 32:     for (i=0; i<=3; i++)
  7684  0BD3  01F7               	clrf	dd_write_7021_reg@i
  7685  0BD4                     l5218:
  7686                           
  7687                           ;../Projects/src/adf7012.c: 33:     {;../Projects/src/adf7012.c: 34:         byte = reg_
      +                          bytes[i];
  7688  0BD4  0877               	movf	dd_write_7021_reg@i,w
  7689  0BD5  0778               	addwf	dd_write_7021_reg@reg_bytes,w
  7690  0BD6  00F3               	movwf	??_dd_write_7021_reg
  7691  0BD7  0873               	movf	??_dd_write_7021_reg,w
  7692  0BD8  0086               	movwf	6
  7693  0BD9  0187               	clrf	7
  7694  0BDA  0801               	movf	1,w
  7695  0BDB  00F4               	movwf	??_dd_write_7021_reg+1
  7696  0BDC  0874               	movf	??_dd_write_7021_reg+1,w
  7697  0BDD  00F6               	movwf	dd_write_7021_reg@byte
  7698  0BDE                     l5220:
  7699                           
  7700                           ;../Projects/src/adf7012.c: 36:         for (j=8; j>0; j--)
  7701  0BDE  3008               	movlw	8
  7702  0BDF  00F3               	movwf	??_dd_write_7021_reg
  7703  0BE0  0873               	movf	??_dd_write_7021_reg,w
  7704  0BE1  00F5               	movwf	dd_write_7021_reg@j
  7705  0BE2                     l147:
  7706                           
  7707                           ;../Projects/src/adf7012.c: 37:         {;../Projects/src/adf7012.c: 38:             RB6
      +                           = 0;
  7708  0BE2  130D               	bcf	13,6	;volatile
  7709                           
  7710                           ;../Projects/src/adf7012.c: 39:             if (byte & 0x80) RC7 = 1;
  7711  0BE3  1FF6               	btfss	dd_write_7021_reg@byte,7
  7712  0BE4  2BE6               	goto	u2911
  7713  0BE5  2BE7               	goto	u2910
  7714  0BE6                     u2911:
  7715  0BE6  2BE9               	goto	l149
  7716  0BE7                     u2910:
  7717  0BE7                     l5226:
  7718  0BE7  178E               	bsf	14,7	;volatile
  7719  0BE8  2BEA               	goto	l150
  7720  0BE9                     l149:	
  7721                           ;../Projects/src/adf7012.c: 40:             else RC7 = 0;
  7722                           
  7723  0BE9  138E               	bcf	14,7	;volatile
  7724  0BEA                     l150:
  7725                           
  7726                           ;../Projects/src/adf7012.c: 41:             RB6 = 1;
  7727  0BEA  170D               	bsf	13,6	;volatile
  7728  0BEB                     l5228:
  7729                           
  7730                           ;../Projects/src/adf7012.c: 42:             byte += byte;
  7731  0BEB  0876               	movf	dd_write_7021_reg@byte,w
  7732  0BEC  00F3               	movwf	??_dd_write_7021_reg
  7733  0BED  0873               	movf	??_dd_write_7021_reg,w
  7734  0BEE  07F6               	addwf	dd_write_7021_reg@byte,f
  7735                           
  7736                           ;../Projects/src/adf7012.c: 43:         }
  7737  0BEF  3001               	movlw	1
  7738  0BF0  02F5               	subwf	dd_write_7021_reg@j,f
  7739  0BF1  0875               	movf	dd_write_7021_reg@j,w
  7740  0BF2  1D03               	btfss	3,2
  7741  0BF3  2BF5               	goto	u2921
  7742  0BF4  2BF6               	goto	u2920
  7743  0BF5                     u2921:
  7744  0BF5  2BE2               	goto	l147
  7745  0BF6                     u2920:
  7746  0BF6                     l148:
  7747                           
  7748                           ;../Projects/src/adf7012.c: 44:         RB6 = 0;
  7749  0BF6  130D               	bcf	13,6	;volatile
  7750  0BF7                     l5230:
  7751                           
  7752                           ;../Projects/src/adf7012.c: 45:     }
  7753  0BF7  3001               	movlw	1
  7754  0BF8  00F3               	movwf	??_dd_write_7021_reg
  7755  0BF9  0873               	movf	??_dd_write_7021_reg,w
  7756  0BFA  07F7               	addwf	dd_write_7021_reg@i,f
  7757  0BFB                     l5232:
  7758  0BFB  3004               	movlw	4
  7759  0BFC  0277               	subwf	dd_write_7021_reg@i,w
  7760  0BFD  1C03               	skipc
  7761  0BFE  2C00               	goto	u2931
  7762  0BFF  2C01               	goto	u2930
  7763  0C00                     u2931:
  7764  0C00  2BD4               	goto	l5218
  7765  0C01                     u2930:
  7766  0C01                     l146:
  7767                           
  7768                           ;../Projects/src/adf7012.c: 50:     RC6 = 1;
  7769  0C01  170E               	bsf	14,6	;volatile
  7770                           
  7771                           ;../Projects/src/adf7012.c: 51:     RC6 = 1;
  7772  0C02  170E               	bsf	14,6	;volatile
  7773                           
  7774                           ;../Projects/src/adf7012.c: 52:     RC7 = 0;
  7775  0C03  138E               	bcf	14,7	;volatile
  7776                           
  7777                           ;../Projects/src/adf7012.c: 53:     RC6 = 0;
  7778  0C04  130E               	bcf	14,6	;volatile
  7779  0C05                     l151:
  7780  0C05  0008               	return
  7781  0C06                     __end_of_dd_write_7021_reg:
  7782                           
  7783                           	psect	text28
  7784  096E                     __ptext28:	
  7785 ;; *************** function _Delayus *****************
  7786 ;; Defined at:
  7787 ;;		line 101 in file "../Projects/src/initial.c"
  7788 ;; Parameters:    Size  Location     Type
  7789 ;;  timer           1    wreg     unsigned char 
  7790 ;; Auto vars:     Size  Location     Type
  7791 ;;  timer           1    4[COMMON] unsigned char 
  7792 ;;  x               1    5[COMMON] unsigned char 
  7793 ;; Return value:  Size  Location     Type
  7794 ;;                  1    wreg      void 
  7795 ;; Registers used:
  7796 ;;		wreg, status,2, status,0
  7797 ;; Tracked objects:
  7798 ;;		On entry : 0/0
  7799 ;;		On exit  : 0/0
  7800 ;;		Unchanged: 0/0
  7801 ;; Data sizes:     COMMON   BANK0   BANK1   BANK2   BANK3   BANK4   BANK5   BANK6   BANK7   BANK8   BANK9  BANK10  BANK1
      +1  BANK12
  7802 ;;      Params:         0       0       0       0       0       0       0       0       0       0       0       0       
      +0       0
  7803 ;;      Locals:         2       0       0       0       0       0       0       0       0       0       0       0       
      +0       0
  7804 ;;      Temps:          1       0       0       0       0       0       0       0       0       0       0       0       
      +0       0
  7805 ;;      Totals:         3       0       0       0       0       0       0       0       0       0       0       0       
      +0       0
  7806 ;;Total ram usage:        3 bytes
  7807 ;; Hardware stack levels used:    1
  7808 ;; Hardware stack levels required when called:    2
  7809 ;; This function calls:
  7810 ;;		Nothing
  7811 ;; This function is called by:
  7812 ;;		_dd_set_ADF7021_Power_on_test
  7813 ;;		_dd_set_TX_mode
  7814 ;;		_main
  7815 ;;		_PC_PRG
  7816 ;; This function uses a non-reentrant model
  7817 ;;
  7818                           
  7819                           
  7820                           ;psect for function _Delayus
  7821  096E                     _Delayus:
  7822                           
  7823                           ;incstack = 0
  7824                           ; Regs used in _Delayus: [wreg+status,2+status,0]
  7825                           ;Delayus@timer stored from wreg
  7826  096E  00F4               	movwf	Delayus@timer
  7827  096F                     l5234:
  7828                           
  7829                           ;../Projects/src/initial.c: 101: void Delayus(unsigned char timer);../Projects/src/initi
      +                          al.c: 102: {;../Projects/src/initial.c: 103: unsigned char x;;../Projects/src/initial.c:
      +                           104:  for(x=0;x<timer;x++)
  7830  096F  01F5               	clrf	Delayus@x
  7831  0970  2976               	goto	l5238
  7832  0971                     l297:
  7833  0971  0000               	nop	;# 
  7834  0972                     l5236:
  7835  0972  3001               	movlw	1
  7836  0973  00F3               	movwf	??_Delayus
  7837  0974  0873               	movf	??_Delayus,w
  7838  0975  07F5               	addwf	Delayus@x,f
  7839  0976                     l5238:
  7840  0976  0874               	movf	Delayus@timer,w
  7841  0977  0275               	subwf	Delayus@x,w
  7842  0978  1C03               	skipc
  7843  0979  297B               	goto	u2941
  7844  097A  297C               	goto	u2940
  7845  097B                     u2941:
  7846  097B  2971               	goto	l297
  7847  097C                     u2940:
  7848  097C                     l299:
  7849  097C  0008               	return
  7850  097D                     __end_of_Delayus:
  7851                           
  7852                           	psect	text29
  7853  0935                     __ptext29:	
  7854 ;; *************** function _dd_set_ADF7021_Power_on *****************
  7855 ;; Defined at:
  7856 ;;		line 81 in file "../Projects/src/adf7012.c"
  7857 ;; Parameters:    Size  Location     Type
  7858 ;;		None
  7859 ;; Auto vars:     Size  Location     Type
  7860 ;;		None
  7861 ;; Return value:  Size  Location     Type
  7862 ;;                  1    wreg      void 
  7863 ;; Registers used:
  7864 ;;		None
  7865 ;; Tracked objects:
  7866 ;;		On entry : 0/0
  7867 ;;		On exit  : 0/0
  7868 ;;		Unchanged: 0/0
  7869 ;; Data sizes:     COMMON   BANK0   BANK1   BANK2   BANK3   BANK4   BANK5   BANK6   BANK7   BANK8   BANK9  BANK10  BANK1
      +1  BANK12
  7870 ;;      Params:         0       0       0       0       0       0       0       0       0       0       0       0       
      +0       0
  7871 ;;      Locals:         0       0       0       0       0       0       0       0       0       0       0       0       
      +0       0
  7872 ;;      Temps:          0       0       0       0       0       0       0       0       0       0       0       0       
      +0       0
  7873 ;;      Totals:         0       0       0       0       0       0       0       0       0       0       0       0       
      +0       0
  7874 ;;Total ram usage:        0 bytes
  7875 ;; Hardware stack levels used:    1
  7876 ;; Hardware stack levels required when called:    2
  7877 ;; This function calls:
  7878 ;;		Nothing
  7879 ;; This function is called by:
  7880 ;;		__ReqTxdEdit
  7881 ;; This function uses a non-reentrant model
  7882 ;;
  7883                           
  7884                           
  7885                           ;psect for function _dd_set_ADF7021_Power_on
  7886  0935                     _dd_set_ADF7021_Power_on:
  7887  0935                     l3392:	
  7888                           ;incstack = 0
  7889                           ; Regs used in _dd_set_ADF7021_Power_on: []
  7890                           
  7891                           
  7892                           ;../Projects/src/adf7012.c: 86:  if (RC2 == 0)
  7893  0935  0020               	movlb	0	; select bank0
  7894  0936  190E               	btfsc	14,2	;volatile
  7895  0937  2939               	goto	u721
  7896  0938  293A               	goto	u720
  7897  0939                     u721:
  7898  0939  293B               	goto	l159
  7899  093A                     u720:
  7900  093A                     l3394:
  7901                           
  7902                           ;../Projects/src/adf7012.c: 87:  {;../Projects/src/adf7012.c: 88:   RC2 = 1;
  7903  093A  150E               	bsf	14,2	;volatile
  7904  093B                     l159:
  7905  093B  0008               	return
  7906  093C                     __end_of_dd_set_ADF7021_Power_on:
  7907                           
  7908                           	psect	text30
  7909  0F26                     __ptext30:	
  7910 ;; *************** function _SendTxData *****************
  7911 ;; Defined at:
  7912 ;;		line 123 in file "../Projects/src/EXIT_FUN.c"
  7913 ;; Parameters:    Size  Location     Type
  7914 ;;		None
  7915 ;; Auto vars:     Size  Location     Type
  7916 ;;  def_preamble    1   16[BANK0 ] unsigned char 
  7917 ;;  i               1   15[BANK0 ] unsigned char 
  7918 ;; Return value:  Size  Location     Type
  7919 ;;                  1    wreg      void 
  7920 ;; Registers used:
  7921 ;;		wreg, fsr1l, fsr1h, status,2, status,0, pclath, cstack
  7922 ;; Tracked objects:
  7923 ;;		On entry : 0/0
  7924 ;;		On exit  : 0/0
  7925 ;;		Unchanged: 0/0
  7926 ;; Data sizes:     COMMON   BANK0   BANK1   BANK2   BANK3   BANK4   BANK5   BANK6   BANK7   BANK8   BANK9  BANK10  BANK1
      +1  BANK12
  7927 ;;      Params:         0       0       0       0       0       0       0       0       0       0       0       0       
      +0       0
  7928 ;;      Locals:         0       2       0       0       0       0       0       0       0       0       0       0       
      +0       0
  7929 ;;      Temps:          0       2       0       0       0       0       0       0       0       0       0       0       
      +0       0
  7930 ;;      Totals:         0       4       0       0       0       0       0       0       0       0       0       0       
      +0       0
  7931 ;;Total ram usage:        4 bytes
  7932 ;; Hardware stack levels used:    1
  7933 ;; Hardware stack levels required when called:    4
  7934 ;; This function calls:
  7935 ;;		_SetTxData
  7936 ;; This function is called by:
  7937 ;;		__ReqTxdEdit
  7938 ;; This function uses a non-reentrant model
  7939 ;;
  7940                           
  7941                           
  7942                           ;psect for function _SendTxData
  7943  0F26                     _SendTxData:
  7944  0F26                     l5240:	
  7945                           ;incstack = 0
  7946                           ; Regs used in _SendTxData: [wreg+fsr1l+fsr1h+status,2+status,0+pclath+cstack]
  7947                           
  7948                           
  7949                           ;../Projects/src/EXIT_FUN.c: 125:   unsigned char i, def_preamble=8;
  7950  0F26  3008               	movlw	8
  7951  0F27  0020               	movlb	0	; select bank0
  7952  0F28  00DE               	movwf	??_SendTxData
  7953  0F29  085E               	movf	??_SendTxData,w
  7954  0F2A  00E1               	movwf	SendTxData@def_preamble
  7955                           
  7956                           ;../Projects/src/EXIT_FUN.c: 126:        m_RFNormalBuf[0]=0x55;
  7957  0F2B  3055               	movlw	85
  7958  0F2C  00DE               	movwf	??_SendTxData
  7959  0F2D  085E               	movf	??_SendTxData,w
  7960  0F2E  0023               	movlb	3	; select bank3
  7961  0F2F  00A0               	movwf	_m_RFNormalBuf^(0+384)
  7962  0F30                     l5242:
  7963                           
  7964                           ;../Projects/src/EXIT_FUN.c: 127:        for(i=1;i<=def_preamble;i++)m_RFNormalBuf[i]=0x
      +                          55;
  7965  0F30  0020               	movlb	0	; select bank0
  7966  0F31  01E0               	clrf	SendTxData@i
  7967  0F32  0AE0               	incf	SendTxData@i,f
  7968  0F33  2F41               	goto	l5248
  7969  0F34                     l5244:
  7970  0F34  3055               	movlw	85
  7971  0F35  00DE               	movwf	??_SendTxData
  7972  0F36  0860               	movf	SendTxData@i,w
  7973  0F37  3EA0               	addlw	(low (_m_RFNormalBuf| (0+256)))& (0+255)
  7974  0F38  0086               	movwf	6
  7975  0F39  3001               	movlw	1	; select bank3/4
  7976  0F3A  0087               	movwf	7
  7977  0F3B  085E               	movf	??_SendTxData,w
  7978  0F3C  0081               	movwf	1
  7979  0F3D                     l5246:
  7980  0F3D  3001               	movlw	1
  7981  0F3E  00DE               	movwf	??_SendTxData
  7982  0F3F  085E               	movf	??_SendTxData,w
  7983  0F40  07E0               	addwf	SendTxData@i,f
  7984  0F41                     l5248:
  7985  0F41  0860               	movf	SendTxData@i,w
  7986  0F42  0261               	subwf	SendTxData@def_preamble,w
  7987  0F43  1803               	skipnc
  7988  0F44  2F46               	goto	u2951
  7989  0F45  2F47               	goto	u2950
  7990  0F46                     u2951:
  7991  0F46  2F34               	goto	l5244
  7992  0F47                     u2950:
  7993  0F47                     l5250:
  7994                           
  7995                           ;../Projects/src/EXIT_FUN.c: 128:        m_RFNormalBuf[def_preamble+1]=0x15;
  7996  0F47  3015               	movlw	21
  7997  0F48  00DE               	movwf	??_SendTxData
  7998  0F49  0861               	movf	SendTxData@def_preamble,w
  7999  0F4A  3EA1               	addlw	(low ((_m_RFNormalBuf| (0+256)+1)))& (0+255)
  8000  0F4B  0086               	movwf	6
  8001  0F4C  3001               	movlw	1	; select bank3/4
  8002  0F4D  0087               	movwf	7
  8003  0F4E  085E               	movf	??_SendTxData,w
  8004  0F4F  0081               	movwf	1
  8005  0F50                     l5252:
  8006                           
  8007                           ;../Projects/src/EXIT_FUN.c: 129:        RB5=1;
  8008  0F50  168D               	bsf	13,5	;volatile
  8009  0F51                     l5254:
  8010                           
  8011                           ;../Projects/src/EXIT_FUN.c: 130:        if(m_RegMode==0){
  8012  0F51  084C               	movf	_m_RegMode,w
  8013  0F52  1D03               	btfss	3,2
  8014  0F53  2F55               	goto	u2961
  8015  0F54  2F56               	goto	u2960
  8016  0F55                     u2961:
  8017  0F55  2F8B               	goto	l5262
  8018  0F56                     u2960:
  8019  0F56                     l5256:
  8020                           
  8021                           ;../Projects/src/EXIT_FUN.c: 131:   txphase_end=(def_preamble+15)*8-4;
  8022  0F56  0861               	movf	SendTxData@def_preamble,w
  8023  0F57  00DE               	movwf	??_SendTxData
  8024  0F58  01DF               	clrf	??_SendTxData+1
  8025  0F59  35DE               	lslf	??_SendTxData,f
  8026  0F5A  0DDF               	rlf	??_SendTxData+1,f
  8027  0F5B  35DE               	lslf	??_SendTxData,f
  8028  0F5C  0DDF               	rlf	??_SendTxData+1,f
  8029  0F5D  35DE               	lslf	??_SendTxData,f
  8030  0F5E  0DDF               	rlf	??_SendTxData+1,f
  8031  0F5F  085E               	movf	??_SendTxData,w
  8032  0F60  3E74               	addlw	116
  8033  0F61  0021               	movlb	1	; select bank1
  8034  0F62  00C6               	movwf	_txphase_end^(0+128)
  8035  0F63  3000               	movlw	0
  8036  0F64  0020               	movlb	0	; select bank0
  8037  0F65  3D5F               	addwfc	??_SendTxData+1,w
  8038  0F66  0021               	movlb	1	; select bank1
  8039  0F67  00C7               	movwf	(_txphase_end+1)^(0+128)
  8040  0F68                     l5258:
  8041                           
  8042                           ;../Projects/src/EXIT_FUN.c: 132:   SetTxData(def_preamble+2,ID_data,Control_code);
  8043  0F68  082F               	movf	(_ID_data+3)^(0+128),w
  8044  0F69  0020               	movlb	0	; select bank0
  8045  0F6A  00D4               	movwf	SetTxData@ID_data_set+3
  8046  0F6B  0021               	movlb	1	; select bank1
  8047  0F6C  082E               	movf	(_ID_data+2)^(0+128),w
  8048  0F6D  0020               	movlb	0	; select bank0
  8049  0F6E  00D3               	movwf	SetTxData@ID_data_set+2
  8050  0F6F  0021               	movlb	1	; select bank1
  8051  0F70  082D               	movf	(_ID_data+1)^(0+128),w
  8052  0F71  0020               	movlb	0	; select bank0
  8053  0F72  00D2               	movwf	SetTxData@ID_data_set+1
  8054  0F73  0021               	movlb	1	; select bank1
  8055  0F74  082C               	movf	_ID_data^(0+128),w
  8056  0F75  0020               	movlb	0	; select bank0
  8057  0F76  00D1               	movwf	SetTxData@ID_data_set
  8058  0F77  084B               	movf	_Control_code,w
  8059  0F78  00DE               	movwf	??_SendTxData
  8060  0F79  085E               	movf	??_SendTxData,w
  8061  0F7A  00D5               	movwf	SetTxData@Control_code_set
  8062  0F7B  0861               	movf	SendTxData@def_preamble,w
  8063  0F7C  3E02               	addlw	2
  8064  0F7D  3186  26BD  318F   	fcall	_SetTxData
  8065  0F80                     l5260:
  8066                           
  8067                           ;../Projects/src/EXIT_FUN.c: 133:          m_RFNormalBuf[def_preamble+14]=0xFF;
  8068  0F80  30FF               	movlw	255
  8069  0F81  0020               	movlb	0	; select bank0
  8070  0F82  00DE               	movwf	??_SendTxData
  8071  0F83  0861               	movf	SendTxData@def_preamble,w
  8072  0F84  3EAE               	addlw	(low ((_m_RFNormalBuf| (0+256)+14)))& (0+255)
  8073  0F85  0086               	movwf	6
  8074  0F86  3001               	movlw	1	; select bank3/4
  8075  0F87  0087               	movwf	7
  8076  0F88  085E               	movf	??_SendTxData,w
  8077  0F89  0081               	movwf	1
  8078                           
  8079                           ;../Projects/src/EXIT_FUN.c: 134:        }
  8080  0F8A  2FF5               	goto	l5274
  8081  0F8B                     l5262:
  8082                           
  8083                           ;../Projects/src/EXIT_FUN.c: 136:   txphase_end=(def_preamble+27)*8-4;
  8084  0F8B  0861               	movf	SendTxData@def_preamble,w
  8085  0F8C  00DE               	movwf	??_SendTxData
  8086  0F8D  01DF               	clrf	??_SendTxData+1
  8087  0F8E  35DE               	lslf	??_SendTxData,f
  8088  0F8F  0DDF               	rlf	??_SendTxData+1,f
  8089  0F90  35DE               	lslf	??_SendTxData,f
  8090  0F91  0DDF               	rlf	??_SendTxData+1,f
  8091  0F92  35DE               	lslf	??_SendTxData,f
  8092  0F93  0DDF               	rlf	??_SendTxData+1,f
  8093  0F94  085E               	movf	??_SendTxData,w
  8094  0F95  3ED4               	addlw	212
  8095  0F96  0021               	movlb	1	; select bank1
  8096  0F97  00C6               	movwf	_txphase_end^(0+128)
  8097  0F98  3000               	movlw	0
  8098  0F99  0020               	movlb	0	; select bank0
  8099  0F9A  3D5F               	addwfc	??_SendTxData+1,w
  8100  0F9B  0021               	movlb	1	; select bank1
  8101  0F9C  00C7               	movwf	(_txphase_end+1)^(0+128)
  8102  0F9D                     l5264:
  8103                           
  8104                           ;../Projects/src/EXIT_FUN.c: 137:   SetTxData(def_preamble+2,ID_data,0x80);
  8105  0F9D  082F               	movf	(_ID_data+3)^(0+128),w
  8106  0F9E  0020               	movlb	0	; select bank0
  8107  0F9F  00D4               	movwf	SetTxData@ID_data_set+3
  8108  0FA0  0021               	movlb	1	; select bank1
  8109  0FA1  082E               	movf	(_ID_data+2)^(0+128),w
  8110  0FA2  0020               	movlb	0	; select bank0
  8111  0FA3  00D3               	movwf	SetTxData@ID_data_set+2
  8112  0FA4  0021               	movlb	1	; select bank1
  8113  0FA5  082D               	movf	(_ID_data+1)^(0+128),w
  8114  0FA6  0020               	movlb	0	; select bank0
  8115  0FA7  00D2               	movwf	SetTxData@ID_data_set+1
  8116  0FA8  0021               	movlb	1	; select bank1
  8117  0FA9  082C               	movf	_ID_data^(0+128),w
  8118  0FAA  0020               	movlb	0	; select bank0
  8119  0FAB  00D1               	movwf	SetTxData@ID_data_set
  8120  0FAC  3080               	movlw	128
  8121  0FAD  00DE               	movwf	??_SendTxData
  8122  0FAE  085E               	movf	??_SendTxData,w
  8123  0FAF  00D5               	movwf	SetTxData@Control_code_set
  8124  0FB0  0861               	movf	SendTxData@def_preamble,w
  8125  0FB1  3E02               	addlw	2
  8126  0FB2  3186  26BD  318F   	fcall	_SetTxData
  8127  0FB5                     l5266:
  8128                           
  8129                           ;../Projects/src/EXIT_FUN.c: 138:   if(m_RegMode==1)SetTxData(def_preamble+14,ID_data_ad
      +                          d,0xFF);
  8130  0FB5  0020               	movlb	0	; select bank0
  8131  0FB6  034C               	decf	_m_RegMode,w
  8132  0FB7  1D03               	btfss	3,2
  8133  0FB8  2FBA               	goto	u2971
  8134  0FB9  2FBB               	goto	u2970
  8135  0FBA                     u2971:
  8136  0FBA  2FD5               	goto	l5270
  8137  0FBB                     u2970:
  8138  0FBB                     l5268:
  8139  0FBB  0021               	movlb	1	; select bank1
  8140  0FBC  082B               	movf	(_ID_data_add+3)^(0+128),w
  8141  0FBD  0020               	movlb	0	; select bank0
  8142  0FBE  00D4               	movwf	SetTxData@ID_data_set+3
  8143  0FBF  0021               	movlb	1	; select bank1
  8144  0FC0  082A               	movf	(_ID_data_add+2)^(0+128),w
  8145  0FC1  0020               	movlb	0	; select bank0
  8146  0FC2  00D3               	movwf	SetTxData@ID_data_set+2
  8147  0FC3  0021               	movlb	1	; select bank1
  8148  0FC4  0829               	movf	(_ID_data_add+1)^(0+128),w
  8149  0FC5  0020               	movlb	0	; select bank0
  8150  0FC6  00D2               	movwf	SetTxData@ID_data_set+1
  8151  0FC7  0021               	movlb	1	; select bank1
  8152  0FC8  0828               	movf	_ID_data_add^(0+128),w
  8153  0FC9  0020               	movlb	0	; select bank0
  8154  0FCA  00D1               	movwf	SetTxData@ID_data_set
  8155  0FCB  30FF               	movlw	255
  8156  0FCC  00DE               	movwf	??_SendTxData
  8157  0FCD  085E               	movf	??_SendTxData,w
  8158  0FCE  00D5               	movwf	SetTxData@Control_code_set
  8159  0FCF  0861               	movf	SendTxData@def_preamble,w
  8160  0FD0  3E0E               	addlw	14
  8161  0FD1  3186  26BD  318F   	fcall	_SetTxData
  8162  0FD4  2FEB               	goto	l5272
  8163  0FD5                     l5270:
  8164  0FD5  0021               	movlb	1	; select bank1
  8165  0FD6  082B               	movf	(_ID_data_add+3)^(0+128),w
  8166  0FD7  0020               	movlb	0	; select bank0
  8167  0FD8  00D4               	movwf	SetTxData@ID_data_set+3
  8168  0FD9  0021               	movlb	1	; select bank1
  8169  0FDA  082A               	movf	(_ID_data_add+2)^(0+128),w
  8170  0FDB  0020               	movlb	0	; select bank0
  8171  0FDC  00D3               	movwf	SetTxData@ID_data_set+2
  8172  0FDD  0021               	movlb	1	; select bank1
  8173  0FDE  0829               	movf	(_ID_data_add+1)^(0+128),w
  8174  0FDF  0020               	movlb	0	; select bank0
  8175  0FE0  00D2               	movwf	SetTxData@ID_data_set+1
  8176  0FE1  0021               	movlb	1	; select bank1
  8177  0FE2  0828               	movf	_ID_data_add^(0+128),w
  8178  0FE3  0020               	movlb	0	; select bank0
  8179  0FE4  00D1               	movwf	SetTxData@ID_data_set
  8180  0FE5  01D5               	clrf	SetTxData@Control_code_set
  8181  0FE6  0861               	movf	SendTxData@def_preamble,w
  8182  0FE7  3E0E               	addlw	14
  8183  0FE8  3186  26BD  318F   	fcall	_SetTxData
  8184  0FEB                     l5272:
  8185                           
  8186                           ;../Projects/src/EXIT_FUN.c: 140:          m_RFNormalBuf[def_preamble+26]=0xFF;
  8187  0FEB  30FF               	movlw	255
  8188  0FEC  0020               	movlb	0	; select bank0
  8189  0FED  00DE               	movwf	??_SendTxData
  8190  0FEE  0861               	movf	SendTxData@def_preamble,w
  8191  0FEF  3EBA               	addlw	(low ((_m_RFNormalBuf| (0+256)+26)))& (0+255)
  8192  0FF0  0086               	movwf	6
  8193  0FF1  3001               	movlw	1	; select bank3/4
  8194  0FF2  0087               	movwf	7
  8195  0FF3  085E               	movf	??_SendTxData,w
  8196  0FF4  0081               	movwf	1
  8197  0FF5                     l5274:
  8198                           
  8199                           ;../Projects/src/EXIT_FUN.c: 142:        txphase=0;
  8200  0FF5  0021               	movlb	1	; select bank1
  8201  0FF6  01C8               	clrf	_txphase^(0+128)
  8202  0FF7  01C9               	clrf	(_txphase+1)^(0+128)
  8203  0FF8                     l5276:
  8204                           
  8205                           ;../Projects/src/EXIT_FUN.c: 143:        txphase_Repeat=0;
  8206  0FF8  0020               	movlb	0	; select bank0
  8207  0FF9  01CD               	clrf	_txphase_Repeat
  8208  0FFA                     l5278:
  8209                           
  8210                           ;../Projects/src/EXIT_FUN.c: 144:        ID_INT_CODE=0;
  8211  0FFA  01CE               	clrf	_ID_INT_CODE
  8212  0FFB                     l5280:
  8213                           
  8214                           ;../Projects/src/EXIT_FUN.c: 145:        FLAG_APP_TX=1;
  8215  0FFB  01CF               	clrf	_FLAG_APP_TX
  8216  0FFC  0ACF               	incf	_FLAG_APP_TX,f
  8217  0FFD                     l5282:
  8218                           
  8219                           ;../Projects/src/EXIT_FUN.c: 146:     FLAG_ADF7021_DATA_tx=1;
  8220  0FFD  01D0               	clrf	_FLAG_ADF7021_DATA_tx
  8221  0FFE  0AD0               	incf	_FLAG_ADF7021_DATA_tx,f
  8222  0FFF                     l65:
  8223  0FFF  0008               	return
  8224  1000                     __end_of_SendTxData:
  8225                           
  8226                           	psect	text31
  8227  06BD                     __ptext31:	
  8228 ;; *************** function _SetTxData *****************
  8229 ;; Defined at:
  8230 ;;		line 149 in file "../Projects/src/EXIT_FUN.c"
  8231 ;; Parameters:    Size  Location     Type
  8232 ;;  count_set       1    wreg     unsigned char 
  8233 ;;  ID_data_set     4    0[BANK0 ] struct .
  8234 ;;  Control_code    1    4[BANK0 ] unsigned char 
  8235 ;; Auto vars:     Size  Location     Type
  8236 ;;  count_set       1   10[BANK0 ] unsigned char 
  8237 ;;  unii            2   11[BANK0 ] struct .
  8238 ;;  unij            2    8[BANK0 ] struct .
  8239 ;;  unik            2    6[BANK0 ] struct .
  8240 ;; Return value:  Size  Location     Type
  8241 ;;                  1    wreg      void 
  8242 ;; Registers used:
  8243 ;;		wreg, fsr1l, fsr1h, status,2, status,0, pclath, cstack
  8244 ;; Tracked objects:
  8245 ;;		On entry : 0/0
  8246 ;;		On exit  : 0/0
  8247 ;;		Unchanged: 0/0
  8248 ;; Data sizes:     COMMON   BANK0   BANK1   BANK2   BANK3   BANK4   BANK5   BANK6   BANK7   BANK8   BANK9  BANK10  BANK1
      +1  BANK12
  8249 ;;      Params:         0       5       0       0       0       0       0       0       0       0       0       0       
      +0       0
  8250 ;;      Locals:         0       7       0       0       0       0       0       0       0       0       0       0       
      +0       0
  8251 ;;      Temps:          0       1       0       0       0       0       0       0       0       0       0       0       
      +0       0
  8252 ;;      Totals:         0      13       0       0       0       0       0       0       0       0       0       0       
      +0       0
  8253 ;;Total ram usage:       13 bytes
  8254 ;; Hardware stack levels used:    1
  8255 ;; Hardware stack levels required when called:    3
  8256 ;; This function calls:
  8257 ;;		_SetFixedLengthCode
  8258 ;; This function is called by:
  8259 ;;		_SendTxData
  8260 ;; This function uses a non-reentrant model
  8261 ;;
  8262                           
  8263                           
  8264                           ;psect for function _SetTxData
  8265  06BD                     _SetTxData:
  8266                           
  8267                           ;incstack = 0
  8268                           ; Regs used in _SetTxData: [wreg+fsr1l+fsr1h+status,2+status,0+pclath+cstack]
  8269                           ;SetTxData@count_set stored from wreg
  8270  06BD  0020               	movlb	0	; select bank0
  8271  06BE  00DB               	movwf	SetTxData@count_set
  8272  06BF                     l5148:
  8273                           
  8274                           ;../Projects/src/EXIT_FUN.c: 149: void SetTxData(unsigned char count_set ,uni_rom_id ID_
      +                          data_set,unsigned char Control_code_set);../Projects/src/EXIT_FUN.c: 150: {;../Projects/
      +                          src/EXIT_FUN.c: 151:     uni_i unii,unij,unik;;../Projects/src/EXIT_FUN.c: 153:  unii.ui
      +                           = SetFixedLengthCode(ID_data_set.IDB[3]) ;
  8275  06BF  0854               	movf	SetTxData@ID_data_set+3,w
  8276  06C0  318A  222F  3186   	fcall	_SetFixedLengthCode
  8277  06C3  0874               	movf	?_SetFixedLengthCode+1,w
  8278  06C4  0020               	movlb	0	; select bank0
  8279  06C5  00DD               	movwf	SetTxData@unii+1
  8280  06C6  0873               	movf	?_SetFixedLengthCode,w
  8281  06C7  00DC               	movwf	SetTxData@unii
  8282  06C8                     l5150:
  8283                           
  8284                           ;../Projects/src/EXIT_FUN.c: 154:  m_RFNormalBuf[count_set++] = unii.uc[0] ;
  8285  06C8  085C               	movf	SetTxData@unii,w
  8286  06C9  00D6               	movwf	??_SetTxData
  8287  06CA  085B               	movf	SetTxData@count_set,w
  8288  06CB  3EA0               	addlw	(low (_m_RFNormalBuf| (0+256)))& (0+255)
  8289  06CC  0086               	movwf	6
  8290  06CD  3001               	movlw	1	; select bank3/4
  8291  06CE  0087               	movwf	7
  8292  06CF  0856               	movf	??_SetTxData,w
  8293  06D0  0081               	movwf	1
  8294  06D1                     l5152:
  8295  06D1  3001               	movlw	1
  8296  06D2  00D6               	movwf	??_SetTxData
  8297  06D3  0856               	movf	??_SetTxData,w
  8298  06D4  07DB               	addwf	SetTxData@count_set,f
  8299  06D5                     l5154:
  8300                           
  8301                           ;../Projects/src/EXIT_FUN.c: 155:  m_RFNormalBuf[count_set++] = unii.uc[1] ;
  8302  06D5  085D               	movf	SetTxData@unii+1,w
  8303  06D6  00D6               	movwf	??_SetTxData
  8304  06D7  085B               	movf	SetTxData@count_set,w
  8305  06D8  3EA0               	addlw	(low (_m_RFNormalBuf| (0+256)))& (0+255)
  8306  06D9  0086               	movwf	6
  8307  06DA  3001               	movlw	1	; select bank3/4
  8308  06DB  0087               	movwf	7
  8309  06DC  0856               	movf	??_SetTxData,w
  8310  06DD  0081               	movwf	1
  8311  06DE                     l5156:
  8312  06DE  3001               	movlw	1
  8313  06DF  00D6               	movwf	??_SetTxData
  8314  06E0  0856               	movf	??_SetTxData,w
  8315  06E1  07DB               	addwf	SetTxData@count_set,f
  8316                           
  8317                           ;../Projects/src/EXIT_FUN.c: 156:  unii.ui = SetFixedLengthCode(ID_data_set.IDB[2]) ;
  8318  06E2  0853               	movf	SetTxData@ID_data_set+2,w
  8319  06E3  318A  222F  3186   	fcall	_SetFixedLengthCode
  8320  06E6  0874               	movf	?_SetFixedLengthCode+1,w
  8321  06E7  0020               	movlb	0	; select bank0
  8322  06E8  00DD               	movwf	SetTxData@unii+1
  8323  06E9  0873               	movf	?_SetFixedLengthCode,w
  8324  06EA  00DC               	movwf	SetTxData@unii
  8325  06EB                     l5158:
  8326                           
  8327                           ;../Projects/src/EXIT_FUN.c: 157:  m_RFNormalBuf[count_set++] = unii.uc[0] ;
  8328  06EB  085C               	movf	SetTxData@unii,w
  8329  06EC  00D6               	movwf	??_SetTxData
  8330  06ED  085B               	movf	SetTxData@count_set,w
  8331  06EE  3EA0               	addlw	(low (_m_RFNormalBuf| (0+256)))& (0+255)
  8332  06EF  0086               	movwf	6
  8333  06F0  3001               	movlw	1	; select bank3/4
  8334  06F1  0087               	movwf	7
  8335  06F2  0856               	movf	??_SetTxData,w
  8336  06F3  0081               	movwf	1
  8337  06F4                     l5160:
  8338  06F4  3001               	movlw	1
  8339  06F5  00D6               	movwf	??_SetTxData
  8340  06F6  0856               	movf	??_SetTxData,w
  8341  06F7  07DB               	addwf	SetTxData@count_set,f
  8342  06F8                     l5162:
  8343                           
  8344                           ;../Projects/src/EXIT_FUN.c: 158:  m_RFNormalBuf[count_set++] = unii.uc[1] ;
  8345  06F8  085D               	movf	SetTxData@unii+1,w
  8346  06F9  00D6               	movwf	??_SetTxData
  8347  06FA  085B               	movf	SetTxData@count_set,w
  8348  06FB  3EA0               	addlw	(low (_m_RFNormalBuf| (0+256)))& (0+255)
  8349  06FC  0086               	movwf	6
  8350  06FD  3001               	movlw	1	; select bank3/4
  8351  06FE  0087               	movwf	7
  8352  06FF  0856               	movf	??_SetTxData,w
  8353  0700  0081               	movwf	1
  8354  0701                     l5164:
  8355  0701  3001               	movlw	1
  8356  0702  00D6               	movwf	??_SetTxData
  8357  0703  0856               	movf	??_SetTxData,w
  8358  0704  07DB               	addwf	SetTxData@count_set,f
  8359                           
  8360                           ;../Projects/src/EXIT_FUN.c: 159:  unii.ui = SetFixedLengthCode(ID_data_set.IDB[1]) ;
  8361  0705  0852               	movf	SetTxData@ID_data_set+1,w
  8362  0706  318A  222F  3186   	fcall	_SetFixedLengthCode
  8363  0709  0874               	movf	?_SetFixedLengthCode+1,w
  8364  070A  0020               	movlb	0	; select bank0
  8365  070B  00DD               	movwf	SetTxData@unii+1
  8366  070C  0873               	movf	?_SetFixedLengthCode,w
  8367  070D  00DC               	movwf	SetTxData@unii
  8368  070E                     l5166:
  8369                           
  8370                           ;../Projects/src/EXIT_FUN.c: 160:  m_RFNormalBuf[count_set++] = unii.uc[0] ;
  8371  070E  085C               	movf	SetTxData@unii,w
  8372  070F  00D6               	movwf	??_SetTxData
  8373  0710  085B               	movf	SetTxData@count_set,w
  8374  0711  3EA0               	addlw	(low (_m_RFNormalBuf| (0+256)))& (0+255)
  8375  0712  0086               	movwf	6
  8376  0713  3001               	movlw	1	; select bank3/4
  8377  0714  0087               	movwf	7
  8378  0715  0856               	movf	??_SetTxData,w
  8379  0716  0081               	movwf	1
  8380  0717                     l5168:
  8381  0717  3001               	movlw	1
  8382  0718  00D6               	movwf	??_SetTxData
  8383  0719  0856               	movf	??_SetTxData,w
  8384  071A  07DB               	addwf	SetTxData@count_set,f
  8385  071B                     l5170:
  8386                           
  8387                           ;../Projects/src/EXIT_FUN.c: 161:  m_RFNormalBuf[count_set++] = unii.uc[1] ;
  8388  071B  085D               	movf	SetTxData@unii+1,w
  8389  071C  00D6               	movwf	??_SetTxData
  8390  071D  085B               	movf	SetTxData@count_set,w
  8391  071E  3EA0               	addlw	(low (_m_RFNormalBuf| (0+256)))& (0+255)
  8392  071F  0086               	movwf	6
  8393  0720  3001               	movlw	1	; select bank3/4
  8394  0721  0087               	movwf	7
  8395  0722  0856               	movf	??_SetTxData,w
  8396  0723  0081               	movwf	1
  8397  0724                     l5172:
  8398  0724  3001               	movlw	1
  8399  0725  00D6               	movwf	??_SetTxData
  8400  0726  0856               	movf	??_SetTxData,w
  8401  0727  07DB               	addwf	SetTxData@count_set,f
  8402                           
  8403                           ;../Projects/src/EXIT_FUN.c: 163:  unii.ui = SetFixedLengthCode(Control_code_set) ;
  8404  0728  0855               	movf	SetTxData@Control_code_set,w
  8405  0729  318A  222F  3186   	fcall	_SetFixedLengthCode
  8406  072C  0874               	movf	?_SetFixedLengthCode+1,w
  8407  072D  0020               	movlb	0	; select bank0
  8408  072E  00DD               	movwf	SetTxData@unii+1
  8409  072F  0873               	movf	?_SetFixedLengthCode,w
  8410  0730  00DC               	movwf	SetTxData@unii
  8411  0731                     l5174:
  8412                           
  8413                           ;../Projects/src/EXIT_FUN.c: 164:  m_RFNormalBuf[count_set++] = unii.uc[0] ;
  8414  0731  085C               	movf	SetTxData@unii,w
  8415  0732  00D6               	movwf	??_SetTxData
  8416  0733  085B               	movf	SetTxData@count_set,w
  8417  0734  3EA0               	addlw	(low (_m_RFNormalBuf| (0+256)))& (0+255)
  8418  0735  0086               	movwf	6
  8419  0736  3001               	movlw	1	; select bank3/4
  8420  0737  0087               	movwf	7
  8421  0738  0856               	movf	??_SetTxData,w
  8422  0739  0081               	movwf	1
  8423  073A                     l5176:
  8424  073A  3001               	movlw	1
  8425  073B  00D6               	movwf	??_SetTxData
  8426  073C  0856               	movf	??_SetTxData,w
  8427  073D  07DB               	addwf	SetTxData@count_set,f
  8428  073E                     l5178:
  8429                           
  8430                           ;../Projects/src/EXIT_FUN.c: 165:  m_RFNormalBuf[count_set++] = unii.uc[1] ;
  8431  073E  085D               	movf	SetTxData@unii+1,w
  8432  073F  00D6               	movwf	??_SetTxData
  8433  0740  085B               	movf	SetTxData@count_set,w
  8434  0741  3EA0               	addlw	(low (_m_RFNormalBuf| (0+256)))& (0+255)
  8435  0742  0086               	movwf	6
  8436  0743  3001               	movlw	1	; select bank3/4
  8437  0744  0087               	movwf	7
  8438  0745  0856               	movf	??_SetTxData,w
  8439  0746  0081               	movwf	1
  8440  0747                     l5180:
  8441  0747  3001               	movlw	1
  8442  0748  00D6               	movwf	??_SetTxData
  8443  0749  0856               	movf	??_SetTxData,w
  8444  074A  07DB               	addwf	SetTxData@count_set,f
  8445  074B                     l5182:
  8446                           
  8447                           ;../Projects/src/EXIT_FUN.c: 167:  unii.uc[1] = ID_data_set.IDB[1] ;
  8448  074B  0852               	movf	SetTxData@ID_data_set+1,w
  8449  074C  00D6               	movwf	??_SetTxData
  8450  074D  0856               	movf	??_SetTxData,w
  8451  074E  00DD               	movwf	SetTxData@unii+1
  8452  074F                     l5184:
  8453                           
  8454                           ;../Projects/src/EXIT_FUN.c: 168:  unii.uc[0] = Control_code_set;
  8455  074F  0855               	movf	SetTxData@Control_code_set,w
  8456  0750  00D6               	movwf	??_SetTxData
  8457  0751  0856               	movf	??_SetTxData,w
  8458  0752  00DC               	movwf	SetTxData@unii
  8459  0753                     l5186:
  8460                           
  8461                           ;../Projects/src/EXIT_FUN.c: 169:  unij.uc[1] = ID_data_set.IDB[3] ;
  8462  0753  0854               	movf	SetTxData@ID_data_set+3,w
  8463  0754  00D6               	movwf	??_SetTxData
  8464  0755  0856               	movf	??_SetTxData,w
  8465  0756  00DA               	movwf	SetTxData@unij+1
  8466  0757                     l5188:
  8467                           
  8468                           ;../Projects/src/EXIT_FUN.c: 170:  unij.uc[0] = ID_data_set.IDB[2] ;
  8469  0757  0853               	movf	SetTxData@ID_data_set+2,w
  8470  0758  00D6               	movwf	??_SetTxData
  8471  0759  0856               	movf	??_SetTxData,w
  8472  075A  00D9               	movwf	SetTxData@unij
  8473  075B                     l5190:
  8474                           
  8475                           ;../Projects/src/EXIT_FUN.c: 171:  unik.ui = unii.ui + unij.ui ;
  8476  075B  0859               	movf	SetTxData@unij,w
  8477  075C  075C               	addwf	SetTxData@unii,w
  8478  075D  00D7               	movwf	SetTxData@unik
  8479  075E  085A               	movf	SetTxData@unij+1,w
  8480  075F  3D5D               	addwfc	SetTxData@unii+1,w
  8481  0760  00D8               	movwf	SetTxData@unik+1
  8482  0761                     l5192:
  8483                           
  8484                           ;../Projects/src/EXIT_FUN.c: 172:  unii.ui = SetFixedLengthCode(unik.uc[1]) ;
  8485  0761  0858               	movf	SetTxData@unik+1,w
  8486  0762  318A  222F  3186   	fcall	_SetFixedLengthCode
  8487  0765  0874               	movf	?_SetFixedLengthCode+1,w
  8488  0766  0020               	movlb	0	; select bank0
  8489  0767  00DD               	movwf	SetTxData@unii+1
  8490  0768  0873               	movf	?_SetFixedLengthCode,w
  8491  0769  00DC               	movwf	SetTxData@unii
  8492  076A                     l5194:
  8493                           
  8494                           ;../Projects/src/EXIT_FUN.c: 173:  m_RFNormalBuf[count_set++] = unii.uc[0] ;
  8495  076A  085C               	movf	SetTxData@unii,w
  8496  076B  00D6               	movwf	??_SetTxData
  8497  076C  085B               	movf	SetTxData@count_set,w
  8498  076D  3EA0               	addlw	(low (_m_RFNormalBuf| (0+256)))& (0+255)
  8499  076E  0086               	movwf	6
  8500  076F  3001               	movlw	1	; select bank3/4
  8501  0770  0087               	movwf	7
  8502  0771  0856               	movf	??_SetTxData,w
  8503  0772  0081               	movwf	1
  8504  0773                     l5196:
  8505  0773  3001               	movlw	1
  8506  0774  00D6               	movwf	??_SetTxData
  8507  0775  0856               	movf	??_SetTxData,w
  8508  0776  07DB               	addwf	SetTxData@count_set,f
  8509                           
  8510                           ;../Projects/src/EXIT_FUN.c: 174:  m_RFNormalBuf[count_set++] = unii.uc[1] ;
  8511  0777  085D               	movf	SetTxData@unii+1,w
  8512  0778  00D6               	movwf	??_SetTxData
  8513  0779  085B               	movf	SetTxData@count_set,w
  8514  077A  3EA0               	addlw	(low (_m_RFNormalBuf| (0+256)))& (0+255)
  8515  077B  0086               	movwf	6
  8516  077C  3001               	movlw	1	; select bank3/4
  8517  077D  0087               	movwf	7
  8518  077E  0856               	movf	??_SetTxData,w
  8519  077F  0081               	movwf	1
  8520  0780                     l5198:
  8521  0780  3001               	movlw	1
  8522  0781  00D6               	movwf	??_SetTxData
  8523  0782  0856               	movf	??_SetTxData,w
  8524  0783  07DB               	addwf	SetTxData@count_set,f
  8525  0784                     l5200:
  8526                           
  8527                           ;../Projects/src/EXIT_FUN.c: 175:  unii.ui = SetFixedLengthCode(unik.uc[0]) ;
  8528  0784  0857               	movf	SetTxData@unik,w
  8529  0785  318A  222F  3186   	fcall	_SetFixedLengthCode
  8530  0788  0874               	movf	?_SetFixedLengthCode+1,w
  8531  0789  0020               	movlb	0	; select bank0
  8532  078A  00DD               	movwf	SetTxData@unii+1
  8533  078B  0873               	movf	?_SetFixedLengthCode,w
  8534  078C  00DC               	movwf	SetTxData@unii
  8535  078D                     l5202:
  8536                           
  8537                           ;../Projects/src/EXIT_FUN.c: 176:  m_RFNormalBuf[count_set++] = unii.uc[0] ;
  8538  078D  085C               	movf	SetTxData@unii,w
  8539  078E  00D6               	movwf	??_SetTxData
  8540  078F  085B               	movf	SetTxData@count_set,w
  8541  0790  3EA0               	addlw	(low (_m_RFNormalBuf| (0+256)))& (0+255)
  8542  0791  0086               	movwf	6
  8543  0792  3001               	movlw	1	; select bank3/4
  8544  0793  0087               	movwf	7
  8545  0794  0856               	movf	??_SetTxData,w
  8546  0795  0081               	movwf	1
  8547  0796                     l5204:
  8548  0796  3001               	movlw	1
  8549  0797  00D6               	movwf	??_SetTxData
  8550  0798  0856               	movf	??_SetTxData,w
  8551  0799  07DB               	addwf	SetTxData@count_set,f
  8552  079A                     l5206:
  8553                           
  8554                           ;../Projects/src/EXIT_FUN.c: 177:  m_RFNormalBuf[count_set++] = unii.uc[1] ;
  8555  079A  085D               	movf	SetTxData@unii+1,w
  8556  079B  00D6               	movwf	??_SetTxData
  8557  079C  085B               	movf	SetTxData@count_set,w
  8558  079D  3EA0               	addlw	(low (_m_RFNormalBuf| (0+256)))& (0+255)
  8559  079E  0086               	movwf	6
  8560  079F  3001               	movlw	1	; select bank3/4
  8561  07A0  0087               	movwf	7
  8562  07A1  0856               	movf	??_SetTxData,w
  8563  07A2  0081               	movwf	1
  8564  07A3                     l5208:
  8565  07A3  3001               	movlw	1
  8566  07A4  00D6               	movwf	??_SetTxData
  8567  07A5  0856               	movf	??_SetTxData,w
  8568  07A6  07DB               	addwf	SetTxData@count_set,f
  8569  07A7                     l68:
  8570  07A7  0008               	return
  8571  07A8                     __end_of_SetTxData:
  8572                           
  8573                           	psect	text32
  8574  0A2F                     __ptext32:	
  8575 ;; *************** function _SetFixedLengthCode *****************
  8576 ;; Defined at:
  8577 ;;		line 180 in file "../Projects/src/EXIT_FUN.c"
  8578 ;; Parameters:    Size  Location     Type
  8579 ;;  data            1    wreg     unsigned char 
  8580 ;; Auto vars:     Size  Location     Type
  8581 ;;  data            1    6[COMMON] unsigned char 
  8582 ;;  code            2    7[COMMON] unsigned int 
  8583 ;;  i               1    9[COMMON] unsigned char 
  8584 ;; Return value:  Size  Location     Type
  8585 ;;                  2    3[COMMON] unsigned int 
  8586 ;; Registers used:
  8587 ;;		wreg, status,2, status,0
  8588 ;; Tracked objects:
  8589 ;;		On entry : 0/0
  8590 ;;		On exit  : 0/0
  8591 ;;		Unchanged: 0/0
  8592 ;; Data sizes:     COMMON   BANK0   BANK1   BANK2   BANK3   BANK4   BANK5   BANK6   BANK7   BANK8   BANK9  BANK10  BANK1
      +1  BANK12
  8593 ;;      Params:         2       0       0       0       0       0       0       0       0       0       0       0       
      +0       0
  8594 ;;      Locals:         4       0       0       0       0       0       0       0       0       0       0       0       
      +0       0
  8595 ;;      Temps:          1       0       0       0       0       0       0       0       0       0       0       0       
      +0       0
  8596 ;;      Totals:         7       0       0       0       0       0       0       0       0       0       0       0       
      +0       0
  8597 ;;Total ram usage:        7 bytes
  8598 ;; Hardware stack levels used:    1
  8599 ;; Hardware stack levels required when called:    2
  8600 ;; This function calls:
  8601 ;;		Nothing
  8602 ;; This function is called by:
  8603 ;;		_SetTxData
  8604 ;; This function uses a non-reentrant model
  8605 ;;
  8606                           
  8607                           
  8608                           ;psect for function _SetFixedLengthCode
  8609  0A2F                     _SetFixedLengthCode:
  8610                           
  8611                           ;incstack = 0
  8612                           ; Regs used in _SetFixedLengthCode: [wreg+status,2+status,0]
  8613                           ;SetFixedLengthCode@data stored from wreg
  8614  0A2F  00F6               	movwf	SetFixedLengthCode@data
  8615  0A30                     l3234:
  8616                           
  8617                           ;../Projects/src/EXIT_FUN.c: 180: unsigned int SetFixedLengthCode(unsigned char data );.
      +                          ./Projects/src/EXIT_FUN.c: 181: {;../Projects/src/EXIT_FUN.c: 182:  unsigned int code ;;
      +                          ../Projects/src/EXIT_FUN.c: 183:  unsigned char i ;;../Projects/src/EXIT_FUN.c: 185:  fo
      +                          r (i=0; i<8; i++)
  8618  0A30  01F9               	clrf	SetFixedLengthCode@i
  8619  0A31                     l3240:
  8620                           
  8621                           ;../Projects/src/EXIT_FUN.c: 186:  {;../Projects/src/EXIT_FUN.c: 187:   code <<=2 ;
  8622  0A31  3002               	movlw	2
  8623  0A32                     u625:
  8624  0A32  35F7               	lslf	SetFixedLengthCode@code,f
  8625  0A33  0DF8               	rlf	SetFixedLengthCode@code+1,f
  8626  0A34  0B89               	decfsz	9,f
  8627  0A35  2A32               	goto	u625
  8628  0A36                     l3242:
  8629                           
  8630                           ;../Projects/src/EXIT_FUN.c: 188:   if ( data & 0x01)
  8631  0A36  1C76               	btfss	SetFixedLengthCode@data,0
  8632  0A37  2A39               	goto	u631
  8633  0A38  2A3A               	goto	u630
  8634  0A39                     u631:
  8635  0A39  2A3C               	goto	l73
  8636  0A3A                     u630:
  8637  0A3A                     l3244:
  8638                           
  8639                           ;../Projects/src/EXIT_FUN.c: 189:   {;../Projects/src/EXIT_FUN.c: 190:    code |= 0x0002
      +                           ;
  8640  0A3A  14F7               	bsf	SetFixedLengthCode@code,1
  8641                           
  8642                           ;../Projects/src/EXIT_FUN.c: 191:   }
  8643  0A3B  2A3D               	goto	l3246
  8644  0A3C                     l73:	
  8645                           ;../Projects/src/EXIT_FUN.c: 192:   else
  8646                           
  8647                           
  8648                           ;../Projects/src/EXIT_FUN.c: 193:   {;../Projects/src/EXIT_FUN.c: 194:    code |= 0x0001
      +                           ;
  8649  0A3C  1477               	bsf	SetFixedLengthCode@code,0
  8650  0A3D                     l3246:
  8651                           
  8652                           ;../Projects/src/EXIT_FUN.c: 197:   data >>= 1 ;
  8653  0A3D  1003               	clrc
  8654  0A3E  0CF6               	rrf	SetFixedLengthCode@data,f
  8655  0A3F                     l3248:
  8656                           
  8657                           ;../Projects/src/EXIT_FUN.c: 198:  }
  8658  0A3F  3001               	movlw	1
  8659  0A40  00F5               	movwf	??_SetFixedLengthCode
  8660  0A41  0875               	movf	??_SetFixedLengthCode,w
  8661  0A42  07F9               	addwf	SetFixedLengthCode@i,f
  8662  0A43                     l3250:
  8663  0A43  3008               	movlw	8
  8664  0A44  0279               	subwf	SetFixedLengthCode@i,w
  8665  0A45  1C03               	skipc
  8666  0A46  2A48               	goto	u641
  8667  0A47  2A49               	goto	u640
  8668  0A48                     u641:
  8669  0A48  2A31               	goto	l3240
  8670  0A49                     u640:
  8671  0A49                     l3252:
  8672                           
  8673                           ;../Projects/src/EXIT_FUN.c: 199:  return(code) ;
  8674  0A49  0878               	movf	SetFixedLengthCode@code+1,w
  8675  0A4A  00F4               	movwf	?_SetFixedLengthCode+1
  8676  0A4B  0877               	movf	SetFixedLengthCode@code,w
  8677  0A4C  00F3               	movwf	?_SetFixedLengthCode
  8678  0A4D                     l75:
  8679  0A4D  0008               	return
  8680  0A4E                     __end_of_SetFixedLengthCode:
  8681                           
  8682                           	psect	text33
  8683  0002                     __ptext33:	
  8684 ;; *************** function __FuncAutoTxStop *****************
  8685 ;; Defined at:
  8686 ;;		line 613 in file "../Projects/src/key_and_Other.c"
  8687 ;; Parameters:    Size  Location     Type
  8688 ;;		None
  8689 ;; Auto vars:     Size  Location     Type
  8690 ;;		None
  8691 ;; Return value:  Size  Location     Type
  8692 ;;                  1    wreg      void 
  8693 ;; Registers used:
  8694 ;;		None
  8695 ;; Tracked objects:
  8696 ;;		On entry : 0/0
  8697 ;;		On exit  : 0/0
  8698 ;;		Unchanged: 0/0
  8699 ;; Data sizes:     COMMON   BANK0   BANK1   BANK2   BANK3   BANK4   BANK5   BANK6   BANK7   BANK8   BANK9  BANK10  BANK1
      +1  BANK12
  8700 ;;      Params:         0       0       0       0       0       0       0       0       0       0       0       0       
      +0       0
  8701 ;;      Locals:         0       0       0       0       0       0       0       0       0       0       0       0       
      +0       0
  8702 ;;      Temps:          0       0       0       0       0       0       0       0       0       0       0       0       
      +0       0
  8703 ;;      Totals:         0       0       0       0       0       0       0       0       0       0       0       0       
      +0       0
  8704 ;;Total ram usage:        0 bytes
  8705 ;; Hardware stack levels used:    1
  8706 ;; Hardware stack levels required when called:    2
  8707 ;; This function calls:
  8708 ;;		Nothing
  8709 ;; This function is called by:
  8710 ;;		__KeyInTx
  8711 ;; This function uses a non-reentrant model
  8712 ;;
  8713                           
  8714                           
  8715                           ;psect for function __FuncAutoTxStop
  8716  0002                     __FuncAutoTxStop:
  8717  0002                     l659:	
  8718                           ;incstack = 0
  8719                           ; Regs used in __FuncAutoTxStop: []
  8720                           
  8721  0002  0008               	return
  8722  0003                     __end_of__FuncAutoTxStop:
  8723                           
  8724                           	psect	text34
  8725  091D                     __ptext34:	
  8726 ;; *************** function __FuncAutoTxStart *****************
  8727 ;; Defined at:
  8728 ;;		line 609 in file "../Projects/src/key_and_Other.c"
  8729 ;; Parameters:    Size  Location     Type
  8730 ;;		None
  8731 ;; Auto vars:     Size  Location     Type
  8732 ;;		None
  8733 ;; Return value:  Size  Location     Type
  8734 ;;                  1    wreg      void 
  8735 ;; Registers used:
  8736 ;;		None
  8737 ;; Tracked objects:
  8738 ;;		On entry : 0/0
  8739 ;;		On exit  : 0/0
  8740 ;;		Unchanged: 0/0
  8741 ;; Data sizes:     COMMON   BANK0   BANK1   BANK2   BANK3   BANK4   BANK5   BANK6   BANK7   BANK8   BANK9  BANK10  BANK1
      +1  BANK12
  8742 ;;      Params:         0       0       0       0       0       0       0       0       0       0       0       0       
      +0       0
  8743 ;;      Locals:         0       0       0       0       0       0       0       0       0       0       0       0       
      +0       0
  8744 ;;      Temps:          0       0       0       0       0       0       0       0       0       0       0       0       
      +0       0
  8745 ;;      Totals:         0       0       0       0       0       0       0       0       0       0       0       0       
      +0       0
  8746 ;;Total ram usage:        0 bytes
  8747 ;; Hardware stack levels used:    1
  8748 ;; Hardware stack levels required when called:    2
  8749 ;; This function calls:
  8750 ;;		Nothing
  8751 ;; This function is called by:
  8752 ;;		__KeyInTx
  8753 ;; This function uses a non-reentrant model
  8754 ;;
  8755                           
  8756                           
  8757                           ;psect for function __FuncAutoTxStart
  8758  091D                     __FuncAutoTxStart:
  8759  091D                     l656:	
  8760                           ;incstack = 0
  8761                           ; Regs used in __FuncAutoTxStart: []
  8762                           
  8763  091D  0008               	return
  8764  091E                     __end_of__FuncAutoTxStart:
  8765                           
  8766                           	psect	text35
  8767  0043                     __ptext35:	
  8768 ;; *************** function __DupliFuncSetMode *****************
  8769 ;; Defined at:
  8770 ;;		line 802 in file "../Projects/src/key_and_Other.c"
  8771 ;; Parameters:    Size  Location     Type
  8772 ;;		None
  8773 ;; Auto vars:     Size  Location     Type
  8774 ;;  m_KeyOpt        1    9[COMMON] unsigned char 
  8775 ;; Return value:  Size  Location     Type
  8776 ;;                  1    wreg      void 
  8777 ;; Registers used:
  8778 ;;		wreg, fsr0l, fsr0h, fsr1l, fsr1h, status,2, status,0, pclath, cstack
  8779 ;; Tracked objects:
  8780 ;;		On entry : 0/0
  8781 ;;		On exit  : 0/0
  8782 ;;		Unchanged: 0/0
  8783 ;; Data sizes:     COMMON   BANK0   BANK1   BANK2   BANK3   BANK4   BANK5   BANK6   BANK7   BANK8   BANK9  BANK10  BANK1
      +1  BANK12
  8784 ;;      Params:         0       0       0       0       0       0       0       0       0       0       0       0       
      +0       0
  8785 ;;      Locals:         1       0       0       0       0       0       0       0       0       0       0       0       
      +0       0
  8786 ;;      Temps:          0       2       0       0       0       0       0       0       0       0       0       0       
      +0       0
  8787 ;;      Totals:         1       2       0       0       0       0       0       0       0       0       0       0       
      +0       0
  8788 ;;Total ram usage:        3 bytes
  8789 ;; Hardware stack levels used:    1
  8790 ;; Hardware stack levels required when called:    4
  8791 ;; This function calls:
  8792 ;;		_KeyOpt_EEPROM_write
  8793 ;;		__DupliFuncClear
  8794 ;;		__ReqBuzzer
  8795 ;; This function is called by:
  8796 ;;		_key_check
  8797 ;; This function uses a non-reentrant model
  8798 ;;
  8799                           
  8800                           
  8801                           ;psect for function __DupliFuncSetMode
  8802  0043                     __DupliFuncSetMode:
  8803  0043                     l5902:	
  8804                           ;incstack = 0
  8805                           ; Regs used in __DupliFuncSetMode: [wreg-fsr1h+status,2+status,0+pclath+cstack]
  8806                           
  8807                           
  8808                           ;../Projects/src/key_and_Other.c: 804:   unsigned char m_KeyOpt;;../Projects/src/key_and
      +                          _Other.c: 805:  switch ( m_KeyOptSetMode )
  8809  0043  29CF               	goto	l6134
  8810  0044                     l5904:
  8811                           
  8812                           ;../Projects/src/key_and_Other.c: 808:    if ( !mb_NoPushWait )
  8813  0044  0840               	movf	_mb_NoPushWait,w
  8814  0045  1D03               	btfss	3,2
  8815  0046  2848               	goto	u3821
  8816  0047  2849               	goto	u3820
  8817  0048                     u3821:
  8818  0048  2852               	goto	l5912
  8819  0049                     u3820:
  8820  0049                     l5906:
  8821                           
  8822                           ;../Projects/src/key_and_Other.c: 809:    {;../Projects/src/key_and_Other.c: 810:     m_
      +                          KeyDupliSetTimeout = 1000 ;
  8823  0049  30E8               	movlw	232
  8824  004A  00A2               	movwf	_m_KeyDupliSetTimeout
  8825  004B  3003               	movlw	3
  8826  004C  00A3               	movwf	_m_KeyDupliSetTimeout+1
  8827  004D                     l5908:
  8828                           
  8829                           ;../Projects/src/key_and_Other.c: 811:     ++m_KeyOptSetMode ;
  8830  004D  3001               	movlw	1
  8831  004E  00D1               	movwf	??__DupliFuncSetMode
  8832  004F  0851               	movf	??__DupliFuncSetMode,w
  8833  0050  07BA               	addwf	_m_KeyOptSetMode,f
  8834  0051  29F8               	goto	l711
  8835  0052                     l5912:
  8836                           
  8837                           ;../Projects/src/key_and_Other.c: 814:    if ( !m_KeyDupliSetTimeout )
  8838  0052  0822               	movf	_m_KeyDupliSetTimeout,w
  8839  0053  0423               	iorwf	_m_KeyDupliSetTimeout+1,w
  8840  0054  1D03               	btfss	3,2
  8841  0055  2857               	goto	u3831
  8842  0056  2858               	goto	u3830
  8843  0057                     u3831:
  8844  0057  29F8               	goto	l711
  8845  0058                     u3830:
  8846  0058                     l5914:
  8847                           
  8848                           ;../Projects/src/key_and_Other.c: 815:    {;../Projects/src/key_and_Other.c: 816:     m_
      +                          KeyOptSetMode = 10 ;
  8849  0058  300A               	movlw	10
  8850  0059  00D1               	movwf	??__DupliFuncSetMode
  8851  005A  0851               	movf	??__DupliFuncSetMode,w
  8852  005B  00BA               	movwf	_m_KeyOptSetMode
  8853  005C  29F8               	goto	l711
  8854  005D                     l5916:
  8855                           
  8856                           ;../Projects/src/key_and_Other.c: 824:    if ( !m_KeyDupliSetTimeout )
  8857  005D  0822               	movf	_m_KeyDupliSetTimeout,w
  8858  005E  0423               	iorwf	_m_KeyDupliSetTimeout+1,w
  8859  005F  1D03               	btfss	3,2
  8860  0060  2862               	goto	u3841
  8861  0061  2863               	goto	u3840
  8862  0062                     u3841:
  8863  0062  287A               	goto	l5926
  8864  0063                     u3840:
  8865  0063                     l5918:
  8866                           
  8867                           ;../Projects/src/key_and_Other.c: 825:    {;../Projects/src/key_and_Other.c: 826:     ++
      +                          m_KeyOptSetMode;
  8868  0063  3001               	movlw	1
  8869  0064  00D1               	movwf	??__DupliFuncSetMode
  8870  0065  0851               	movf	??__DupliFuncSetMode,w
  8871  0066  07BA               	addwf	_m_KeyOptSetMode,f
  8872  0067                     l5920:
  8873                           
  8874                           ;../Projects/src/key_and_Other.c: 827:     m_KeyDupliSetTimeout = 3000 ;
  8875  0067  30B8               	movlw	184
  8876  0068  00A2               	movwf	_m_KeyDupliSetTimeout
  8877  0069  300B               	movlw	11
  8878  006A  00A3               	movwf	_m_KeyDupliSetTimeout+1
  8879  006B                     l5922:
  8880                           
  8881                           ;../Projects/src/key_and_Other.c: 829:     _ReqBuzzer(103,103,0);
  8882  006B  3067               	movlw	103
  8883  006C  00F3               	movwf	__ReqBuzzer@BEEP_on_SET
  8884  006D  3000               	movlw	0
  8885  006E  00F4               	movwf	__ReqBuzzer@BEEP_on_SET+1
  8886  006F  3067               	movlw	103
  8887  0070  00D1               	movwf	??__DupliFuncSetMode
  8888  0071  0851               	movf	??__DupliFuncSetMode,w
  8889  0072  00F5               	movwf	__ReqBuzzer@BEEP_off_SET
  8890  0073  01F6               	clrf	__ReqBuzzer@BEEP_freq_SET
  8891  0074  318A  22AE  3180   	fcall	__ReqBuzzer
  8892  0077                     l5924:
  8893                           
  8894                           ;../Projects/src/key_and_Other.c: 830:     FG_LED_on=1;
  8895  0077  0021               	movlb	1	; select bank1
  8896  0078  01D9               	clrf	_FG_LED_on^(0+128)
  8897  0079  0AD9               	incf	_FG_LED_on^(0+128),f
  8898  007A                     l5926:
  8899                           
  8900                           ;../Projects/src/key_and_Other.c: 833:    if ( m_KindOfKey != 0 && m_KindOfKey != 0xFF )
  8901  007A  0020               	movlb	0	; select bank0
  8902  007B  0842               	movf	_m_KindOfKey,w
  8903  007C  1903               	btfsc	3,2
  8904  007D  287F               	goto	u3851
  8905  007E  2880               	goto	u3850
  8906  007F                     u3851:
  8907  007F  29F8               	goto	l711
  8908  0080                     u3850:
  8909  0080                     l5928:
  8910  0080  0A42               	incf	_m_KindOfKey,w
  8911  0081  1903               	btfsc	3,2
  8912  0082  2884               	goto	u3861
  8913  0083  2885               	goto	u3860
  8914  0084                     u3861:
  8915  0084  29F8               	goto	l711
  8916  0085                     u3860:
  8917  0085                     l5930:
  8918                           
  8919                           ;../Projects/src/key_and_Other.c: 834:    {;../Projects/src/key_and_Other.c: 835:     _D
      +                          upliFuncClear() ;
  8920  0085  3189  219E  3180   	fcall	__DupliFuncClear
  8921  0088  29F8               	goto	l711
  8922  0089                     l5932:
  8923                           
  8924                           ;../Projects/src/key_and_Other.c: 840:    if ( !m_KeyDupliSetTimeout )
  8925  0089  0822               	movf	_m_KeyDupliSetTimeout,w
  8926  008A  0423               	iorwf	_m_KeyDupliSetTimeout+1,w
  8927  008B  1D03               	btfss	3,2
  8928  008C  288E               	goto	u3871
  8929  008D  288F               	goto	u3870
  8930  008E                     u3871:
  8931  008E  2890               	goto	l5938
  8932  008F                     u3870:
  8933  008F  2885               	goto	l5930
  8934  0090                     l5938:
  8935                           
  8936                           ;../Projects/src/key_and_Other.c: 846:    if ( m_KindOfKey == 0 || m_KindOfKey == 0xFF )
  8937  0090  0842               	movf	_m_KindOfKey,w
  8938  0091  1903               	btfsc	3,2
  8939  0092  2894               	goto	u3881
  8940  0093  2895               	goto	u3880
  8941  0094                     u3881:
  8942  0094  29F8               	goto	l711
  8943  0095                     u3880:
  8944  0095                     l5940:
  8945  0095  0A42               	incf	_m_KindOfKey,w
  8946  0096  1D03               	btfss	3,2
  8947  0097  2899               	goto	u3891
  8948  0098  289A               	goto	u3890
  8949  0099                     u3891:
  8950  0099  289B               	goto	l5942
  8951  009A                     u3890:
  8952  009A  29F8               	goto	l711
  8953  009B                     l5942:
  8954                           
  8955                           ;../Projects/src/key_and_Other.c: 851:    if ( m_KeyOptSetOpenStop )
  8956  009B  082B               	movf	_m_KeyOptSetOpenStop,w
  8957  009C  1903               	btfsc	3,2
  8958  009D  289F               	goto	u3901
  8959  009E  28A0               	goto	u3900
  8960  009F                     u3901:
  8961  009F  28A7               	goto	l5954
  8962  00A0                     u3900:
  8963  00A0                     l5944:
  8964                           
  8965                           ;../Projects/src/key_and_Other.c: 852:    {;../Projects/src/key_and_Other.c: 853:     if
      +                           ( m_KindOfKey == 2 )
  8966  00A0  3002               	movlw	2
  8967  00A1  0642               	xorwf	_m_KindOfKey,w
  8968  00A2  1D03               	btfss	3,2
  8969  00A3  28A5               	goto	u3911
  8970  00A4  28A6               	goto	u3910
  8971  00A5                     u3911:
  8972  00A5  2885               	goto	l5930
  8973  00A6                     u3910:
  8974  00A6  2849               	goto	l5906
  8975  00A7                     l5954:
  8976                           
  8977                           ;../Projects/src/key_and_Other.c: 866:    {;../Projects/src/key_and_Other.c: 867:     if
      +                           ( m_KindOfKey == 1 )
  8978  00A7  0342               	decf	_m_KindOfKey,w
  8979  00A8  1D03               	btfss	3,2
  8980  00A9  28AB               	goto	u3921
  8981  00AA  28AC               	goto	u3920
  8982  00AB                     u3921:
  8983  00AB  2885               	goto	l5930
  8984  00AC                     u3920:
  8985  00AC  2849               	goto	l5906
  8986  00AD                     l5964:
  8987                           
  8988                           ;../Projects/src/key_and_Other.c: 882:    if ( !m_KeyDupliSetTimeout )
  8989  00AD  0822               	movf	_m_KeyDupliSetTimeout,w
  8990  00AE  0423               	iorwf	_m_KeyDupliSetTimeout+1,w
  8991  00AF  1D03               	btfss	3,2
  8992  00B0  28B2               	goto	u3931
  8993  00B1  28B3               	goto	u3930
  8994  00B2                     u3931:
  8995  00B2  29F8               	goto	l711
  8996  00B3                     u3930:
  8997  00B3                     l5966:
  8998                           
  8999                           ;../Projects/src/key_and_Other.c: 883:    {;../Projects/src/key_and_Other.c: 884:     ++
      +                          m_KeyOptSetMode ;
  9000  00B3  3001               	movlw	1
  9001  00B4  00D1               	movwf	??__DupliFuncSetMode
  9002  00B5  0851               	movf	??__DupliFuncSetMode,w
  9003  00B6  07BA               	addwf	_m_KeyOptSetMode,f
  9004  00B7                     l5968:
  9005                           
  9006                           ;../Projects/src/key_and_Other.c: 885:     m_KeyDupliSetTimeout = 3000 ;
  9007  00B7  30B8               	movlw	184
  9008  00B8  00A2               	movwf	_m_KeyDupliSetTimeout
  9009  00B9  300B               	movlw	11
  9010  00BA  00A3               	movwf	_m_KeyDupliSetTimeout+1
  9011  00BB                     l5970:
  9012                           
  9013                           ;../Projects/src/key_and_Other.c: 887:     _ReqBuzzer(103,103,0);
  9014  00BB  3067               	movlw	103
  9015  00BC  00F3               	movwf	__ReqBuzzer@BEEP_on_SET
  9016  00BD  3000               	movlw	0
  9017  00BE  00F4               	movwf	__ReqBuzzer@BEEP_on_SET+1
  9018  00BF  3067               	movlw	103
  9019  00C0  00D1               	movwf	??__DupliFuncSetMode
  9020  00C1  0851               	movf	??__DupliFuncSetMode,w
  9021  00C2  00F5               	movwf	__ReqBuzzer@BEEP_off_SET
  9022  00C3  01F6               	clrf	__ReqBuzzer@BEEP_freq_SET
  9023  00C4  318A  22AE  3180   	fcall	__ReqBuzzer
  9024  00C7                     l5972:
  9025                           
  9026                           ;../Projects/src/key_and_Other.c: 888:     FG_LED_on=1;
  9027  00C7  0021               	movlb	1	; select bank1
  9028  00C8  01D9               	clrf	_FG_LED_on^(0+128)
  9029  00C9  0AD9               	incf	_FG_LED_on^(0+128),f
  9030  00CA  29F8               	goto	l711
  9031  00CB                     l5974:
  9032                           
  9033                           ;../Projects/src/key_and_Other.c: 898:    if ( !m_KeyDupliSetTimeout )
  9034  00CB  0822               	movf	_m_KeyDupliSetTimeout,w
  9035  00CC  0423               	iorwf	_m_KeyDupliSetTimeout+1,w
  9036  00CD  1D03               	btfss	3,2
  9037  00CE  28D0               	goto	u3941
  9038  00CF  28D1               	goto	u3940
  9039  00D0                     u3941:
  9040  00D0  28D2               	goto	l5980
  9041  00D1                     u3940:
  9042  00D1  2885               	goto	l5930
  9043  00D2                     l5980:
  9044                           
  9045                           ;../Projects/src/key_and_Other.c: 904:    if ( m_KindOfKey == 0 || m_KindOfKey == 0xFF )
  9046  00D2  0842               	movf	_m_KindOfKey,w
  9047  00D3  1903               	btfsc	3,2
  9048  00D4  28D6               	goto	u3951
  9049  00D5  28D7               	goto	u3950
  9050  00D6                     u3951:
  9051  00D6  29F8               	goto	l711
  9052  00D7                     u3950:
  9053  00D7                     l5982:
  9054  00D7  0A42               	incf	_m_KindOfKey,w
  9055  00D8  1D03               	btfss	3,2
  9056  00D9  28DB               	goto	u3961
  9057  00DA  28DC               	goto	u3960
  9058  00DB                     u3961:
  9059  00DB  28DD               	goto	l5984
  9060  00DC                     u3960:
  9061  00DC  29F8               	goto	l711
  9062  00DD                     l5984:
  9063                           
  9064                           ;../Projects/src/key_and_Other.c: 909:    if ( m_KeyOptSetOpenStop )
  9065  00DD  082B               	movf	_m_KeyOptSetOpenStop,w
  9066  00DE  1903               	btfsc	3,2
  9067  00DF  28E1               	goto	u3971
  9068  00E0  28E2               	goto	u3970
  9069  00E1                     u3971:
  9070  00E1  28F3               	goto	l5998
  9071  00E2                     u3970:
  9072  00E2                     l5986:
  9073                           
  9074                           ;../Projects/src/key_and_Other.c: 910:    {;../Projects/src/key_and_Other.c: 911:     if
      +                           ( m_KindOfKey == 2 )
  9075  00E2  3002               	movlw	2
  9076  00E3  0642               	xorwf	_m_KindOfKey,w
  9077  00E4  1D03               	btfss	3,2
  9078  00E5  28E7               	goto	u3981
  9079  00E6  28E8               	goto	u3980
  9080  00E7                     u3981:
  9081  00E7  2885               	goto	l5930
  9082  00E8                     u3980:
  9083  00E8                     l5988:
  9084                           
  9085                           ;../Projects/src/key_and_Other.c: 912:     {;../Projects/src/key_and_Other.c: 913:      
      +                          m_KeyDupliSetTimeout = 1000 ;
  9086  00E8  30E8               	movlw	232
  9087  00E9  00A2               	movwf	_m_KeyDupliSetTimeout
  9088  00EA  3003               	movlw	3
  9089  00EB  00A3               	movwf	_m_KeyDupliSetTimeout+1
  9090  00EC                     l5990:
  9091                           
  9092                           ;../Projects/src/key_and_Other.c: 914:      ++m_KeyOptSetMode ;
  9093  00EC  3001               	movlw	1
  9094  00ED  00D1               	movwf	??__DupliFuncSetMode
  9095  00EE  0851               	movf	??__DupliFuncSetMode,w
  9096  00EF  07BA               	addwf	_m_KeyOptSetMode,f
  9097  00F0                     l5992:
  9098                           
  9099                           ;../Projects/src/key_and_Other.c: 915:      mb_NoPushWait = 1 ;
  9100  00F0  01C0               	clrf	_mb_NoPushWait
  9101  00F1  0AC0               	incf	_mb_NoPushWait,f
  9102                           
  9103                           ;../Projects/src/key_and_Other.c: 916:     }
  9104  00F2  29F8               	goto	l711
  9105  00F3                     l5998:
  9106                           
  9107                           ;../Projects/src/key_and_Other.c: 924:    {;../Projects/src/key_and_Other.c: 925:     if
      +                           ( m_KindOfKey == 1 )
  9108  00F3  0342               	decf	_m_KindOfKey,w
  9109  00F4  1D03               	btfss	3,2
  9110  00F5  28F7               	goto	u3991
  9111  00F6  28F8               	goto	u3990
  9112  00F7                     u3991:
  9113  00F7  2885               	goto	l5930
  9114  00F8                     u3990:
  9115  00F8  2849               	goto	l5906
  9116  00F9                     l6008:
  9117                           
  9118                           ;../Projects/src/key_and_Other.c: 939:    if ( !m_KeyDupliSetTimeout )
  9119  00F9  0822               	movf	_m_KeyDupliSetTimeout,w
  9120  00FA  0423               	iorwf	_m_KeyDupliSetTimeout+1,w
  9121  00FB  1D03               	btfss	3,2
  9122  00FC  28FE               	goto	u4001
  9123  00FD  28FF               	goto	u4000
  9124  00FE                     u4001:
  9125  00FE  29F8               	goto	l711
  9126  00FF                     u4000:
  9127  00FF                     l6010:
  9128                           
  9129                           ;../Projects/src/key_and_Other.c: 940:    {;../Projects/src/key_and_Other.c: 941:     ++
      +                          m_KeyOptSetMode ;
  9130  00FF  3001               	movlw	1
  9131  0100  00D1               	movwf	??__DupliFuncSetMode
  9132  0101  0851               	movf	??__DupliFuncSetMode,w
  9133  0102  07BA               	addwf	_m_KeyOptSetMode,f
  9134  0103                     l6012:
  9135                           
  9136                           ;../Projects/src/key_and_Other.c: 942:     m_KeyDupliSetTimeout = 3000 ;
  9137  0103  30B8               	movlw	184
  9138  0104  00A2               	movwf	_m_KeyDupliSetTimeout
  9139  0105  300B               	movlw	11
  9140  0106  00A3               	movwf	_m_KeyDupliSetTimeout+1
  9141  0107                     l6014:
  9142                           
  9143                           ;../Projects/src/key_and_Other.c: 944:     _ReqBuzzer(103,103,2);
  9144  0107  3067               	movlw	103
  9145  0108  00F3               	movwf	__ReqBuzzer@BEEP_on_SET
  9146  0109  3000               	movlw	0
  9147  010A  00F4               	movwf	__ReqBuzzer@BEEP_on_SET+1
  9148  010B  3067               	movlw	103
  9149  010C  00D1               	movwf	??__DupliFuncSetMode
  9150  010D  0851               	movf	??__DupliFuncSetMode,w
  9151  010E  00F5               	movwf	__ReqBuzzer@BEEP_off_SET
  9152  010F  3002               	movlw	2
  9153  0110  00D2               	movwf	??__DupliFuncSetMode+1
  9154  0111  0852               	movf	??__DupliFuncSetMode+1,w
  9155  0112  00F6               	movwf	__ReqBuzzer@BEEP_freq_SET
  9156  0113  318A  22AE  3180   	fcall	__ReqBuzzer
  9157  0116  28C7               	goto	l5972
  9158  0117                     l6018:
  9159                           
  9160                           ;../Projects/src/key_and_Other.c: 955:    if ( !m_KeyDupliSetTimeout )
  9161  0117  0822               	movf	_m_KeyDupliSetTimeout,w
  9162  0118  0423               	iorwf	_m_KeyDupliSetTimeout+1,w
  9163  0119  1D03               	btfss	3,2
  9164  011A  291C               	goto	u4011
  9165  011B  291D               	goto	u4010
  9166  011C                     u4011:
  9167  011C  291E               	goto	l6024
  9168  011D                     u4010:
  9169  011D  2885               	goto	l5930
  9170  011E                     l6024:
  9171                           
  9172                           ;../Projects/src/key_and_Other.c: 961:    if ( m_KindOfKey == 0 || m_KindOfKey == 0xFF )
  9173  011E  0842               	movf	_m_KindOfKey,w
  9174  011F  1903               	btfsc	3,2
  9175  0120  2922               	goto	u4021
  9176  0121  2923               	goto	u4020
  9177  0122                     u4021:
  9178  0122  29F8               	goto	l711
  9179  0123                     u4020:
  9180  0123                     l6026:
  9181  0123  0A42               	incf	_m_KindOfKey,w
  9182  0124  1D03               	btfss	3,2
  9183  0125  2927               	goto	u4031
  9184  0126  2928               	goto	u4030
  9185  0127                     u4031:
  9186  0127  2929               	goto	l6028
  9187  0128                     u4030:
  9188  0128  29F8               	goto	l711
  9189  0129                     l6028:
  9190                           
  9191                           ;../Projects/src/key_and_Other.c: 966:    if ( m_KeyOptSetOpenStop )
  9192  0129  082B               	movf	_m_KeyOptSetOpenStop,w
  9193  012A  1903               	btfsc	3,2
  9194  012B  292D               	goto	u4041
  9195  012C  292E               	goto	u4040
  9196  012D                     u4041:
  9197  012D  2939               	goto	l6042
  9198  012E                     u4040:
  9199  012E                     l6030:
  9200                           
  9201                           ;../Projects/src/key_and_Other.c: 967:    {;../Projects/src/key_and_Other.c: 968:     if
      +                           ( m_KindOfKey == 2 )
  9202  012E  3002               	movlw	2
  9203  012F  0642               	xorwf	_m_KindOfKey,w
  9204  0130  1D03               	btfss	3,2
  9205  0131  2933               	goto	u4051
  9206  0132  2934               	goto	u4050
  9207  0133                     u4051:
  9208  0133  2885               	goto	l5930
  9209  0134                     u4050:
  9210  0134                     l6032:
  9211                           
  9212                           ;../Projects/src/key_and_Other.c: 969:     {;../Projects/src/key_and_Other.c: 970:      
      +                          m_KeyDupliSetTimeout = 10000 ;
  9213  0134  3010               	movlw	16
  9214  0135  00A2               	movwf	_m_KeyDupliSetTimeout
  9215  0136  3027               	movlw	39
  9216  0137  00A3               	movwf	_m_KeyDupliSetTimeout+1
  9217  0138  28EC               	goto	l5990
  9218  0139                     l6042:
  9219                           
  9220                           ;../Projects/src/key_and_Other.c: 981:    {;../Projects/src/key_and_Other.c: 982:     if
      +                           ( m_KindOfKey == 1 )
  9221  0139  0342               	decf	_m_KindOfKey,w
  9222  013A  1D03               	btfss	3,2
  9223  013B  293D               	goto	u4061
  9224  013C  293E               	goto	u4060
  9225  013D                     u4061:
  9226  013D  2885               	goto	l5930
  9227  013E                     u4060:
  9228  013E                     l6044:
  9229                           
  9230                           ;../Projects/src/key_and_Other.c: 983:     {;../Projects/src/key_and_Other.c: 984:      
      +                          m_KeyDupliSetTimeout = 10000 ;
  9231  013E  3010               	movlw	16
  9232  013F  00A2               	movwf	_m_KeyDupliSetTimeout
  9233  0140  3027               	movlw	39
  9234  0141  00A3               	movwf	_m_KeyDupliSetTimeout+1
  9235  0142  284D               	goto	l5908
  9236  0143                     l6052:
  9237                           
  9238                           ;../Projects/src/key_and_Other.c: 997:    if ( !m_KeyDupliSetTimeout )
  9239  0143  0822               	movf	_m_KeyDupliSetTimeout,w
  9240  0144  0423               	iorwf	_m_KeyDupliSetTimeout+1,w
  9241  0145  1D03               	btfss	3,2
  9242  0146  2948               	goto	u4071
  9243  0147  2949               	goto	u4070
  9244  0148                     u4071:
  9245  0148  294A               	goto	l6058
  9246  0149                     u4070:
  9247  0149  2885               	goto	l5930
  9248  014A                     l6058:
  9249                           
  9250                           ;../Projects/src/key_and_Other.c: 1003:    if ( m_KindOfKey == 0 || m_KindOfKey == 0xFF 
      +                          )
  9251  014A  0842               	movf	_m_KindOfKey,w
  9252  014B  1903               	btfsc	3,2
  9253  014C  294E               	goto	u4081
  9254  014D  294F               	goto	u4080
  9255  014E                     u4081:
  9256  014E  29F8               	goto	l711
  9257  014F                     u4080:
  9258  014F                     l6060:
  9259  014F  0A42               	incf	_m_KindOfKey,w
  9260  0150  1D03               	btfss	3,2
  9261  0151  2953               	goto	u4091
  9262  0152  2954               	goto	u4090
  9263  0153                     u4091:
  9264  0153  2955               	goto	l6062
  9265  0154                     u4090:
  9266  0154  29F8               	goto	l711
  9267  0155                     l6062:
  9268                           
  9269                           ;../Projects/src/key_and_Other.c: 1008:    if ( m_KeyOptSetOpenStop )
  9270  0155  082B               	movf	_m_KeyOptSetOpenStop,w
  9271  0156  1903               	btfsc	3,2
  9272  0157  2959               	goto	u4101
  9273  0158  295A               	goto	u4100
  9274  0159                     u4101:
  9275  0159  2994               	goto	l6096
  9276  015A                     u4100:
  9277  015A                     l6064:
  9278                           
  9279                           ;../Projects/src/key_and_Other.c: 1009:    {;../Projects/src/key_and_Other.c: 1010:     
      +                          if ( m_KindOfKey == 2 )
  9280  015A  3002               	movlw	2
  9281  015B  0642               	xorwf	_m_KindOfKey,w
  9282  015C  1D03               	btfss	3,2
  9283  015D  295F               	goto	u4111
  9284  015E  2960               	goto	u4110
  9285  015F                     u4111:
  9286  015F  2885               	goto	l5930
  9287  0160                     u4110:
  9288  0160                     l6066:
  9289                           
  9290                           ;../Projects/src/key_and_Other.c: 1011:     {;../Projects/src/key_and_Other.c: 1012:    
      +                            if ( m_KeyOptSetMode == 9 )
  9291  0160  3009               	movlw	9
  9292  0161  063A               	xorwf	_m_KeyOptSetMode,w
  9293  0162  1D03               	btfss	3,2
  9294  0163  2965               	goto	u4121
  9295  0164  2966               	goto	u4120
  9296  0165                     u4121:
  9297  0165  284D               	goto	l5908
  9298  0166                     u4120:
  9299  0166                     l6068:
  9300                           
  9301                           ;../Projects/src/key_and_Other.c: 1013:      {;../Projects/src/key_and_Other.c: 1014:   
      +                              m_KeyOpt = rom_KeyOpt ;
  9302  0166  087A               	movf	_rom_KeyOpt,w
  9303  0167  00D1               	movwf	??__DupliFuncSetMode
  9304  0168  0851               	movf	??__DupliFuncSetMode,w
  9305  0169  00F9               	movwf	__DupliFuncSetMode@m_KeyOpt
  9306  016A                     l6070:
  9307                           
  9308                           ;../Projects/src/key_and_Other.c: 1015:       if ( m_KeyOpt )
  9309  016A  0879               	movf	__DupliFuncSetMode@m_KeyOpt,w
  9310  016B  1903               	btfsc	3,2
  9311  016C  296E               	goto	u4131
  9312  016D  296F               	goto	u4130
  9313  016E                     u4131:
  9314  016E  2971               	goto	l763
  9315  016F                     u4130:
  9316  016F                     l6072:
  9317                           
  9318                           ;../Projects/src/key_and_Other.c: 1016:       {;../Projects/src/key_and_Other.c: 1017:  
      +                                m_KeyOpt = 0 ;
  9319  016F  01F9               	clrf	__DupliFuncSetMode@m_KeyOpt
  9320                           
  9321                           ;../Projects/src/key_and_Other.c: 1018:       }
  9322  0170  2973               	goto	l6074
  9323  0171                     l763:	
  9324                           ;../Projects/src/key_and_Other.c: 1019:       else
  9325                           
  9326                           
  9327                           ;../Projects/src/key_and_Other.c: 1020:       {;../Projects/src/key_and_Other.c: 1021:  
      +                                m_KeyOpt = 1 ;
  9328  0171  01F9               	clrf	__DupliFuncSetMode@m_KeyOpt
  9329  0172  0AF9               	incf	__DupliFuncSetMode@m_KeyOpt,f
  9330  0173                     l6074:
  9331                           
  9332                           ;../Projects/src/key_and_Other.c: 1023:       rom_KeyOpt=m_KeyOpt;
  9333  0173  0879               	movf	__DupliFuncSetMode@m_KeyOpt,w
  9334  0174  00D1               	movwf	??__DupliFuncSetMode
  9335  0175  0851               	movf	??__DupliFuncSetMode,w
  9336  0176  00FA               	movwf	_rom_KeyOpt
  9337  0177                     l6076:
  9338                           
  9339                           ;../Projects/src/key_and_Other.c: 1024:       KeyOpt_EEPROM_write();
  9340  0177  3189  21C8  3180   	fcall	_KeyOpt_EEPROM_write
  9341  017A                     l6078:
  9342                           
  9343                           ;../Projects/src/key_and_Other.c: 1028:       _ReqBuzzer(103,103,4);
  9344  017A  3067               	movlw	103
  9345  017B  00F3               	movwf	__ReqBuzzer@BEEP_on_SET
  9346  017C  3000               	movlw	0
  9347  017D  00F4               	movwf	__ReqBuzzer@BEEP_on_SET+1
  9348  017E  3067               	movlw	103
  9349  017F  0020               	movlb	0	; select bank0
  9350  0180  00D1               	movwf	??__DupliFuncSetMode
  9351  0181  0851               	movf	??__DupliFuncSetMode,w
  9352  0182  00F5               	movwf	__ReqBuzzer@BEEP_off_SET
  9353  0183  3004               	movlw	4
  9354  0184  00D2               	movwf	??__DupliFuncSetMode+1
  9355  0185  0852               	movf	??__DupliFuncSetMode+1,w
  9356  0186  00F6               	movwf	__ReqBuzzer@BEEP_freq_SET
  9357  0187  318A  22AE  3180   	fcall	__ReqBuzzer
  9358  018A                     l6080:
  9359                           
  9360                           ;../Projects/src/key_and_Other.c: 1029:                                                 
      +                          FG_LED_on=1;
  9361  018A  0021               	movlb	1	; select bank1
  9362  018B  01D9               	clrf	_FG_LED_on^(0+128)
  9363  018C  0AD9               	incf	_FG_LED_on^(0+128),f
  9364  018D                     l6082:
  9365                           
  9366                           ;../Projects/src/key_and_Other.c: 1030:       FG_d_StopKey=0;
  9367  018D  0020               	movlb	0	; select bank0
  9368  018E  01BE               	clrf	_FG_d_StopKey
  9369  018F                     l6084:
  9370                           
  9371                           ;../Projects/src/key_and_Other.c: 1031:       TB_5s=20;
  9372  018F  3014               	movlw	20
  9373  0190  00D1               	movwf	??__DupliFuncSetMode
  9374  0191  0851               	movf	??__DupliFuncSetMode,w
  9375  0192  00C5               	movwf	_TB_5s
  9376  0193  2885               	goto	l5930
  9377  0194                     l6096:
  9378                           
  9379                           ;../Projects/src/key_and_Other.c: 1044:    {;../Projects/src/key_and_Other.c: 1045:     
      +                          if ( m_KindOfKey == 1 )
  9380  0194  0342               	decf	_m_KindOfKey,w
  9381  0195  1D03               	btfss	3,2
  9382  0196  2998               	goto	u4141
  9383  0197  2999               	goto	u4140
  9384  0198                     u4141:
  9385  0198  2885               	goto	l5930
  9386  0199                     u4140:
  9387  0199                     l6098:
  9388                           
  9389                           ;../Projects/src/key_and_Other.c: 1046:     {;../Projects/src/key_and_Other.c: 1047:    
      +                            if ( m_KeyOptSetMode == 9 )
  9390  0199  3009               	movlw	9
  9391  019A  063A               	xorwf	_m_KeyOptSetMode,w
  9392  019B  1D03               	btfss	3,2
  9393  019C  299E               	goto	u4151
  9394  019D  299F               	goto	u4150
  9395  019E                     u4151:
  9396  019E  284D               	goto	l5908
  9397  019F                     u4150:
  9398  019F                     l6100:
  9399                           
  9400                           ;../Projects/src/key_and_Other.c: 1048:      {;../Projects/src/key_and_Other.c: 1049:   
      +                              m_KeyOpt = rom_KeyOpt ;
  9401  019F  087A               	movf	_rom_KeyOpt,w
  9402  01A0  00D1               	movwf	??__DupliFuncSetMode
  9403  01A1  0851               	movf	??__DupliFuncSetMode,w
  9404  01A2  00F9               	movwf	__DupliFuncSetMode@m_KeyOpt
  9405  01A3                     l6102:
  9406                           
  9407                           ;../Projects/src/key_and_Other.c: 1050:       if ( m_KeyOpt )
  9408  01A3  0879               	movf	__DupliFuncSetMode@m_KeyOpt,w
  9409  01A4  1903               	btfsc	3,2
  9410  01A5  29A7               	goto	u4161
  9411  01A6  29A8               	goto	u4160
  9412  01A7                     u4161:
  9413  01A7  29AA               	goto	l769
  9414  01A8                     u4160:
  9415  01A8                     l6104:
  9416                           
  9417                           ;../Projects/src/key_and_Other.c: 1051:       {;../Projects/src/key_and_Other.c: 1052:  
      +                                m_KeyOpt = 0 ;
  9418  01A8  01F9               	clrf	__DupliFuncSetMode@m_KeyOpt
  9419                           
  9420                           ;../Projects/src/key_and_Other.c: 1053:       }
  9421  01A9  29AC               	goto	l6106
  9422  01AA                     l769:	
  9423                           ;../Projects/src/key_and_Other.c: 1054:       else
  9424                           
  9425                           
  9426                           ;../Projects/src/key_and_Other.c: 1055:       {;../Projects/src/key_and_Other.c: 1056:  
      +                                m_KeyOpt = 1 ;
  9427  01AA  01F9               	clrf	__DupliFuncSetMode@m_KeyOpt
  9428  01AB  0AF9               	incf	__DupliFuncSetMode@m_KeyOpt,f
  9429  01AC                     l6106:
  9430                           
  9431                           ;../Projects/src/key_and_Other.c: 1058:       rom_KeyOpt=m_KeyOpt;
  9432  01AC  0879               	movf	__DupliFuncSetMode@m_KeyOpt,w
  9433  01AD  00D1               	movwf	??__DupliFuncSetMode
  9434  01AE  0851               	movf	??__DupliFuncSetMode,w
  9435  01AF  00FA               	movwf	_rom_KeyOpt
  9436  01B0                     l6108:
  9437                           
  9438                           ;../Projects/src/key_and_Other.c: 1059:       KeyOpt_EEPROM_write();
  9439  01B0  3189  21C8  3180   	fcall	_KeyOpt_EEPROM_write
  9440  01B3                     l6110:
  9441                           
  9442                           ;../Projects/src/key_and_Other.c: 1062:       _ReqBuzzer(103,103,4);
  9443  01B3  3067               	movlw	103
  9444  01B4  00F3               	movwf	__ReqBuzzer@BEEP_on_SET
  9445  01B5  3000               	movlw	0
  9446  01B6  00F4               	movwf	__ReqBuzzer@BEEP_on_SET+1
  9447  01B7  3067               	movlw	103
  9448  01B8  0020               	movlb	0	; select bank0
  9449  01B9  00D1               	movwf	??__DupliFuncSetMode
  9450  01BA  0851               	movf	??__DupliFuncSetMode,w
  9451  01BB  00F5               	movwf	__ReqBuzzer@BEEP_off_SET
  9452  01BC  3004               	movlw	4
  9453  01BD  00D2               	movwf	??__DupliFuncSetMode+1
  9454  01BE  0852               	movf	??__DupliFuncSetMode+1,w
  9455  01BF  00F6               	movwf	__ReqBuzzer@BEEP_freq_SET
  9456  01C0  318A  22AE  3180   	fcall	__ReqBuzzer
  9457  01C3                     l6112:
  9458                           
  9459                           ;../Projects/src/key_and_Other.c: 1063:                                                 
      +                          FG_LED_on=1;
  9460  01C3  0021               	movlb	1	; select bank1
  9461  01C4  01D9               	clrf	_FG_LED_on^(0+128)
  9462  01C5  0AD9               	incf	_FG_LED_on^(0+128),f
  9463  01C6                     l6114:
  9464                           
  9465                           ;../Projects/src/key_and_Other.c: 1064:       FG_d_StopKey=0;
  9466  01C6  0020               	movlb	0	; select bank0
  9467  01C7  01BE               	clrf	_FG_d_StopKey
  9468  01C8  2885               	goto	l5930
  9469  01C9                     l6126:
  9470                           
  9471                           ;../Projects/src/key_and_Other.c: 1080:    if ( !mb_NoPushWait )
  9472  01C9  0840               	movf	_mb_NoPushWait,w
  9473  01CA  1D03               	btfss	3,2
  9474  01CB  29CD               	goto	u4171
  9475  01CC  29CE               	goto	u4170
  9476  01CD                     u4171:
  9477  01CD  29F8               	goto	l711
  9478  01CE                     u4170:
  9479  01CE  2885               	goto	l5930
  9480  01CF                     l6134:
  9481  01CF  0020               	movlb	0	; select bank0
  9482  01D0  083A               	movf	_m_KeyOptSetMode,w
  9483  01D1  00D1               	movwf	??__DupliFuncSetMode
  9484  01D2  01D2               	clrf	??__DupliFuncSetMode+1
  9485                           
  9486                           ; Switch on 2 bytes has been partitioned into a top level switch of size 1, and 1 sub-sw
      +                          itches
  9487                           ; Switch size 1, requested type "simple"
  9488                           ; Number of cases is 1, Range of values is 0 to 0
  9489                           ; switch strategies available:
  9490                           ; Name         Instructions Cycles
  9491                           ; simple_byte            4     3 (average)
  9492                           ; direct_byte            8     6 (fixed)
  9493                           ; jumptable            260     6 (fixed)
  9494                           ;	Chosen strategy is simple_byte
  9495  01D3  0852               	movf	??__DupliFuncSetMode+1,w
  9496  01D4  3A00               	xorlw	0	; case 0
  9497  01D5  1903               	skipnz
  9498  01D6  29D8               	goto	l6768
  9499  01D7  29F8               	goto	l711
  9500  01D8                     l6768:
  9501                           
  9502                           ; Switch size 1, requested type "simple"
  9503                           ; Number of cases is 10, Range of values is 1 to 10
  9504                           ; switch strategies available:
  9505                           ; Name         Instructions Cycles
  9506                           ; direct_byte           29     9 (fixed)
  9507                           ; simple_byte           31    16 (average)
  9508                           ; jumptable            263     9 (fixed)
  9509                           ;	Chosen strategy is simple_byte
  9510  01D8  0851               	movf	??__DupliFuncSetMode,w
  9511  01D9  3A01               	xorlw	1	; case 1
  9512  01DA  1903               	skipnz
  9513  01DB  2844               	goto	l5904
  9514  01DC  3A03               	xorlw	3	; case 2
  9515  01DD  1903               	skipnz
  9516  01DE  285D               	goto	l5916
  9517  01DF  3A01               	xorlw	1	; case 3
  9518  01E0  1903               	skipnz
  9519  01E1  2889               	goto	l5932
  9520  01E2  3A07               	xorlw	7	; case 4
  9521  01E3  1903               	skipnz
  9522  01E4  28AD               	goto	l5964
  9523  01E5  3A01               	xorlw	1	; case 5
  9524  01E6  1903               	skipnz
  9525  01E7  28CB               	goto	l5974
  9526  01E8  3A03               	xorlw	3	; case 6
  9527  01E9  1903               	skipnz
  9528  01EA  28F9               	goto	l6008
  9529  01EB  3A01               	xorlw	1	; case 7
  9530  01EC  1903               	skipnz
  9531  01ED  2917               	goto	l6018
  9532  01EE  3A0F               	xorlw	15	; case 8
  9533  01EF  1903               	skipnz
  9534  01F0  2943               	goto	l6052
  9535  01F1  3A01               	xorlw	1	; case 9
  9536  01F2  1903               	skipnz
  9537  01F3  2943               	goto	l6052
  9538  01F4  3A03               	xorlw	3	; case 10
  9539  01F5  1903               	skipnz
  9540  01F6  29C9               	goto	l6126
  9541  01F7  29F8               	goto	l711
  9542  01F8                     l711:
  9543  01F8  0008               	return
  9544  01F9                     __end_of__DupliFuncSetMode:
  9545                           
  9546                           	psect	text36
  9547  0AAE                     __ptext36:	
  9548 ;; *************** function __ReqBuzzer *****************
  9549 ;; Defined at:
  9550 ;;		line 1289 in file "../Projects/src/key_and_Other.c"
  9551 ;; Parameters:    Size  Location     Type
  9552 ;;  BEEP_on_SET     2    3[COMMON] unsigned int 
  9553 ;;  BEEP_off_SET    1    5[COMMON] unsigned char 
  9554 ;;  BEEP_freq_SE    1    6[COMMON] unsigned char 
  9555 ;; Auto vars:     Size  Location     Type
  9556 ;;		None
  9557 ;; Return value:  Size  Location     Type
  9558 ;;                  1    wreg      void 
  9559 ;; Registers used:
  9560 ;;		wreg, status,2, status,0
  9561 ;; Tracked objects:
  9562 ;;		On entry : 0/0
  9563 ;;		On exit  : 0/0
  9564 ;;		Unchanged: 0/0
  9565 ;; Data sizes:     COMMON   BANK0   BANK1   BANK2   BANK3   BANK4   BANK5   BANK6   BANK7   BANK8   BANK9  BANK10  BANK1
      +1  BANK12
  9566 ;;      Params:         4       0       0       0       0       0       0       0       0       0       0       0       
      +0       0
  9567 ;;      Locals:         0       0       0       0       0       0       0       0       0       0       0       0       
      +0       0
  9568 ;;      Temps:          1       0       0       0       0       0       0       0       0       0       0       0       
      +0       0
  9569 ;;      Totals:         5       0       0       0       0       0       0       0       0       0       0       0       
      +0       0
  9570 ;;Total ram usage:        5 bytes
  9571 ;; Hardware stack levels used:    1
  9572 ;; Hardware stack levels required when called:    2
  9573 ;; This function calls:
  9574 ;;		Nothing
  9575 ;; This function is called by:
  9576 ;;		__FuncStop
  9577 ;;		__ReqTxdEdit
  9578 ;;		__DupliFuncSetMode
  9579 ;;		__RegistrationMode
  9580 ;;		__SetRegistrationMode
  9581 ;; This function uses a non-reentrant model
  9582 ;;
  9583                           
  9584                           
  9585                           ;psect for function __ReqBuzzer
  9586  0AAE                     __ReqBuzzer:
  9587  0AAE                     l3420:	
  9588                           ;incstack = 0
  9589                           ; Regs used in __ReqBuzzer: [wreg+status,2+status,0]
  9590                           
  9591                           
  9592                           ;../Projects/src/key_and_Other.c: 1289: void _ReqBuzzer(unsigned int BEEP_on_SET,unsigne
      +                          d char BEEP_off_SET,unsigned char BEEP_freq_SET);../Projects/src/key_and_Other.c: 1290: 
      +                          {;../Projects/src/key_and_Other.c: 1291:   if(FG_BAT==0){
  9593  0AAE  0020               	movlb	0	; select bank0
  9594  0AAF  0839               	movf	_FG_BAT,w
  9595  0AB0  1D03               	btfss	3,2
  9596  0AB1  2AB3               	goto	u731
  9597  0AB2  2AB4               	goto	u730
  9598  0AB3                     u731:
  9599  0AB3  2ACE               	goto	l818
  9600  0AB4                     u730:
  9601  0AB4                     l3422:
  9602                           
  9603                           ;../Projects/src/key_and_Other.c: 1292:      BASE_TIME_BEEP_on=BEEP_on_SET;
  9604  0AB4  0874               	movf	__ReqBuzzer@BEEP_on_SET+1,w
  9605  0AB5  0021               	movlb	1	; select bank1
  9606  0AB6  00B5               	movwf	(_BASE_TIME_BEEP_on+1)^(0+128)
  9607  0AB7  0873               	movf	__ReqBuzzer@BEEP_on_SET,w
  9608  0AB8  00B4               	movwf	_BASE_TIME_BEEP_on^(0+128)
  9609                           
  9610                           ;../Projects/src/key_and_Other.c: 1293:      BASE_TIME_BEEP_off=BEEP_off_SET;
  9611  0AB9  0875               	movf	__ReqBuzzer@BEEP_off_SET,w
  9612  0ABA  00F7               	movwf	??__ReqBuzzer
  9613  0ABB  0877               	movf	??__ReqBuzzer,w
  9614  0ABC  0020               	movlb	0	; select bank0
  9615  0ABD  00B8               	movwf	_BASE_TIME_BEEP_off
  9616                           
  9617                           ;../Projects/src/key_and_Other.c: 1294:      TIME_BEEP_on=BASE_TIME_BEEP_on;
  9618  0ABE  0021               	movlb	1	; select bank1
  9619  0ABF  0835               	movf	(_BASE_TIME_BEEP_on+1)^(0+128),w
  9620  0AC0  00B3               	movwf	(_TIME_BEEP_on+1)^(0+128)
  9621  0AC1  0834               	movf	_BASE_TIME_BEEP_on^(0+128),w
  9622  0AC2  00B2               	movwf	_TIME_BEEP_on^(0+128)
  9623                           
  9624                           ;../Projects/src/key_and_Other.c: 1295:      TIME_BEEP_off=BASE_TIME_BEEP_off;
  9625  0AC3  0020               	movlb	0	; select bank0
  9626  0AC4  0838               	movf	_BASE_TIME_BEEP_off,w
  9627  0AC5  00F7               	movwf	??__ReqBuzzer
  9628  0AC6  0877               	movf	??__ReqBuzzer,w
  9629  0AC7  0021               	movlb	1	; select bank1
  9630  0AC8  00DA               	movwf	_TIME_BEEP_off^(0+128)
  9631                           
  9632                           ;../Projects/src/key_and_Other.c: 1296:      TIME_BEEP_freq=BEEP_freq_SET;
  9633  0AC9  0876               	movf	__ReqBuzzer@BEEP_freq_SET,w
  9634  0ACA  00F7               	movwf	??__ReqBuzzer
  9635  0ACB  0877               	movf	??__ReqBuzzer,w
  9636  0ACC  0020               	movlb	0	; select bank0
  9637  0ACD  00B7               	movwf	_TIME_BEEP_freq
  9638  0ACE                     l818:
  9639  0ACE  0008               	return
  9640  0ACF                     __end_of__ReqBuzzer:
  9641                           
  9642                           	psect	text37
  9643  099E                     __ptext37:	
  9644 ;; *************** function __DupliFuncClear *****************
  9645 ;; Defined at:
  9646 ;;		line 664 in file "../Projects/src/key_and_Other.c"
  9647 ;; Parameters:    Size  Location     Type
  9648 ;;		None
  9649 ;; Auto vars:     Size  Location     Type
  9650 ;;		None
  9651 ;; Return value:  Size  Location     Type
  9652 ;;                  1    wreg      void 
  9653 ;; Registers used:
  9654 ;;		wreg, status,2, status,0
  9655 ;; Tracked objects:
  9656 ;;		On entry : 0/0
  9657 ;;		On exit  : 0/0
  9658 ;;		Unchanged: 0/0
  9659 ;; Data sizes:     COMMON   BANK0   BANK1   BANK2   BANK3   BANK4   BANK5   BANK6   BANK7   BANK8   BANK9  BANK10  BANK1
      +1  BANK12
  9660 ;;      Params:         0       0       0       0       0       0       0       0       0       0       0       0       
      +0       0
  9661 ;;      Locals:         0       0       0       0       0       0       0       0       0       0       0       0       
      +0       0
  9662 ;;      Temps:          1       0       0       0       0       0       0       0       0       0       0       0       
      +0       0
  9663 ;;      Totals:         1       0       0       0       0       0       0       0       0       0       0       0       
      +0       0
  9664 ;;Total ram usage:        1 bytes
  9665 ;; Hardware stack levels used:    1
  9666 ;; Hardware stack levels required when called:    2
  9667 ;; This function calls:
  9668 ;;		Nothing
  9669 ;; This function is called by:
  9670 ;;		__KeyInTx
  9671 ;;		__FuncOpenStop
  9672 ;;		__FuncOpenReg
  9673 ;;		__FuncCloseReg
  9674 ;;		__FuncVentReg
  9675 ;;		__FuncStopReg
  9676 ;;		__FuncReg
  9677 ;;		__FuncStop
  9678 ;;		__DupliFuncSetMode
  9679 ;; This function uses a non-reentrant model
  9680 ;;
  9681                           
  9682                           
  9683                           ;psect for function __DupliFuncClear
  9684  099E                     __DupliFuncClear:
  9685  099E                     l3516:	
  9686                           ;incstack = 0
  9687                           ; Regs used in __DupliFuncClear: [wreg+status,2+status,0]
  9688                           
  9689                           
  9690                           ;../Projects/src/key_and_Other.c: 666:  m_KeyOptSetMode = 0 ;
  9691  099E  0020               	movlb	0	; select bank0
  9692  099F  01BA               	clrf	_m_KeyOptSetMode
  9693  09A0                     l3518:
  9694                           
  9695                           ;../Projects/src/key_and_Other.c: 667:  m_KeyOpenCount = 2 ;
  9696  09A0  3002               	movlw	2
  9697  09A1  00F3               	movwf	??__DupliFuncClear
  9698  09A2  0873               	movf	??__DupliFuncClear,w
  9699  09A3  0021               	movlb	1	; select bank1
  9700  09A4  00D8               	movwf	_m_KeyOpenCount^(0+128)
  9701  09A5                     l3520:
  9702                           
  9703                           ;../Projects/src/key_and_Other.c: 668:  m_KeyCloseCount = 2 ;
  9704  09A5  3002               	movlw	2
  9705  09A6  00F3               	movwf	??__DupliFuncClear
  9706  09A7  0873               	movf	??__DupliFuncClear,w
  9707  09A8  00D7               	movwf	_m_KeyCloseCount^(0+128)
  9708  09A9                     l3522:
  9709                           
  9710                           ;../Projects/src/key_and_Other.c: 671:  if ( m_KeyDupli1stTimer )
  9711  09A9  0020               	movlb	0	; select bank0
  9712  09AA  0820               	movf	_m_KeyDupli1stTimer,w
  9713  09AB  0421               	iorwf	_m_KeyDupli1stTimer+1,w
  9714  09AC  1903               	btfsc	3,2
  9715  09AD  29AF               	goto	u821
  9716  09AE  29B0               	goto	u820
  9717  09AF                     u821:
  9718  09AF  29B2               	goto	l672
  9719  09B0                     u820:
  9720  09B0                     l3524:
  9721                           
  9722                           ;../Projects/src/key_and_Other.c: 672:  {;../Projects/src/key_and_Other.c: 673:   m_KeyD
      +                          upli1stTimer = 0 ;
  9723  09B0  01A0               	clrf	_m_KeyDupli1stTimer
  9724  09B1  01A1               	clrf	_m_KeyDupli1stTimer+1
  9725  09B2                     l672:
  9726  09B2  0008               	return
  9727  09B3                     __end_of__DupliFuncClear:
  9728                           
  9729                           	psect	text38
  9730  09C8                     __ptext38:	
  9731 ;; *************** function _KeyOpt_EEPROM_write *****************
  9732 ;; Defined at:
  9733 ;;		line 202 in file "../Projects/src/eeprom.c"
  9734 ;; Parameters:    Size  Location     Type
  9735 ;;		None
  9736 ;; Auto vars:     Size  Location     Type
  9737 ;;		None
  9738 ;; Return value:  Size  Location     Type
  9739 ;;                  1    wreg      void 
  9740 ;; Registers used:
  9741 ;;		wreg, fsr1l, fsr1h, status,2, status,0, pclath, cstack
  9742 ;; Tracked objects:
  9743 ;;		On entry : 0/0
  9744 ;;		On exit  : 0/0
  9745 ;;		Unchanged: 0/0
  9746 ;; Data sizes:     COMMON   BANK0   BANK1   BANK2   BANK3   BANK4   BANK5   BANK6   BANK7   BANK8   BANK9  BANK10  BANK1
      +1  BANK12
  9747 ;;      Params:         0       0       0       0       0       0       0       0       0       0       0       0       
      +0       0
  9748 ;;      Locals:         0       0       0       0       0       0       0       0       0       0       0       0       
      +0       0
  9749 ;;      Temps:          1       0       0       0       0       0       0       0       0       0       0       0       
      +0       0
  9750 ;;      Totals:         1       0       0       0       0       0       0       0       0       0       0       0       
      +0       0
  9751 ;;Total ram usage:        1 bytes
  9752 ;; Hardware stack levels used:    1
  9753 ;; Hardware stack levels required when called:    3
  9754 ;; This function calls:
  9755 ;;		_LockFlash
  9756 ;;		_UnlockFlash
  9757 ;;		_WriteByteToFLASH
  9758 ;; This function is called by:
  9759 ;;		__DupliFuncSetMode
  9760 ;; This function uses a non-reentrant model
  9761 ;;
  9762                           
  9763                           
  9764                           ;psect for function _KeyOpt_EEPROM_write
  9765  09C8                     _KeyOpt_EEPROM_write:
  9766  09C8                     l3584:	
  9767                           ;incstack = 0
  9768                           ; Regs used in _KeyOpt_EEPROM_write: [wreg+fsr1l+fsr1h+status,2+status,0+pclath+cstack]
  9769                           
  9770                           
  9771                           ;../Projects/src/eeprom.c: 231:      UnlockFlash( ((unsigned char)0x01 ) );
  9772  09C8  3001               	movlw	1
  9773  09C9  3189  211C  3189   	fcall	_UnlockFlash
  9774  09CC                     l3586:
  9775                           
  9776                           ;../Projects/src/eeprom.c: 232:  WriteByteToFLASH( 0x1000 +0x70, rom_KeyOpt);
  9777  09CC  3000               	movlw	0
  9778  09CD  00F6               	movwf	WriteByteToFLASH@Addr+3
  9779  09CE  3000               	movlw	0
  9780  09CF  00F5               	movwf	WriteByteToFLASH@Addr+2
  9781  09D0  3010               	movlw	16
  9782  09D1  00F4               	movwf	WriteByteToFLASH@Addr+1
  9783  09D2  3070               	movlw	112
  9784  09D3  00F3               	movwf	WriteByteToFLASH@Addr
  9785  09D4  087A               	movf	_rom_KeyOpt,w
  9786  09D5  00F8               	movwf	??_KeyOpt_EEPROM_write
  9787  09D6  0878               	movf	??_KeyOpt_EEPROM_write,w
  9788  09D7  00F7               	movwf	WriteByteToFLASH@Dat
  9789  09D8  3189  212E  3189   	fcall	_WriteByteToFLASH
  9790  09DB                     l3588:
  9791                           
  9792                           ;../Projects/src/eeprom.c: 233:      LockFlash( ((unsigned char)0x01 ) );
  9793  09DB  3001               	movlw	1
  9794  09DC  3189  211B  3189   	fcall	_LockFlash
  9795  09DF                     l205:
  9796  09DF  0008               	return
  9797  09E0                     __end_of_KeyOpt_EEPROM_write:
  9798                           
  9799                           	psect	text39
  9800  092E                     __ptext39:	
  9801 ;; *************** function _WriteByteToFLASH *****************
  9802 ;; Defined at:
  9803 ;;		line 127 in file "../Projects/src/eeprom.c"
  9804 ;; Parameters:    Size  Location     Type
  9805 ;;  Addr            4    3[COMMON] unsigned long 
  9806 ;;  Dat             1    7[COMMON] unsigned char 
  9807 ;; Auto vars:     Size  Location     Type
  9808 ;;		None
  9809 ;; Return value:  Size  Location     Type
  9810 ;;                  1    wreg      void 
  9811 ;; Registers used:
  9812 ;;		wreg, fsr1l, fsr1h
  9813 ;; Tracked objects:
  9814 ;;		On entry : 0/0
  9815 ;;		On exit  : 0/0
  9816 ;;		Unchanged: 0/0
  9817 ;; Data sizes:     COMMON   BANK0   BANK1   BANK2   BANK3   BANK4   BANK5   BANK6   BANK7   BANK8   BANK9  BANK10  BANK1
      +1  BANK12
  9818 ;;      Params:         5       0       0       0       0       0       0       0       0       0       0       0       
      +0       0
  9819 ;;      Locals:         0       0       0       0       0       0       0       0       0       0       0       0       
      +0       0
  9820 ;;      Temps:          0       0       0       0       0       0       0       0       0       0       0       0       
      +0       0
  9821 ;;      Totals:         5       0       0       0       0       0       0       0       0       0       0       0       
      +0       0
  9822 ;;Total ram usage:        5 bytes
  9823 ;; Hardware stack levels used:    1
  9824 ;; Hardware stack levels required when called:    2
  9825 ;; This function calls:
  9826 ;;		Nothing
  9827 ;; This function is called by:
  9828 ;;		_KeyOpt_EEPROM_write
  9829 ;;		_eeprom_save
  9830 ;;		_PC_PRG
  9831 ;; This function uses a non-reentrant model
  9832 ;;
  9833                           
  9834                           
  9835                           ;psect for function _WriteByteToFLASH
  9836  092E                     _WriteByteToFLASH:
  9837  092E                     l3514:	
  9838                           ;incstack = 0
  9839                           ; Regs used in _WriteByteToFLASH: [wregfsr1]
  9840                           
  9841                           
  9842                           ;../Projects/src/eeprom.c: 128:  *(( __far unsigned char * ) Addr ) = Dat;
  9843  092E  0873               	movf	WriteByteToFLASH@Addr,w
  9844  092F  0086               	movwf	6
  9845  0930  0874               	movf	WriteByteToFLASH@Addr+1,w
  9846  0931  0087               	movwf	7
  9847  0932  0877               	movf	WriteByteToFLASH@Dat,w
  9848  0933  0081               	movwf	1
  9849  0934                     l189:
  9850  0934  0008               	return
  9851  0935                     __end_of_WriteByteToFLASH:
  9852                           
  9853                           	psect	text40
  9854  091C                     __ptext40:	
  9855 ;; *************** function _UnlockFlash *****************
  9856 ;; Defined at:
  9857 ;;		line 115 in file "../Projects/src/eeprom.c"
  9858 ;; Parameters:    Size  Location     Type
  9859 ;;  Type            1    wreg     unsigned char 
  9860 ;; Auto vars:     Size  Location     Type
  9861 ;;  Type            1    0[COMMON] unsigned char 
  9862 ;; Return value:  Size  Location     Type
  9863 ;;                  1    wreg      void 
  9864 ;; Registers used:
  9865 ;;		wreg
  9866 ;; Tracked objects:
  9867 ;;		On entry : 0/0
  9868 ;;		On exit  : 0/0
  9869 ;;		Unchanged: 0/0
  9870 ;; Data sizes:     COMMON   BANK0   BANK1   BANK2   BANK3   BANK4   BANK5   BANK6   BANK7   BANK8   BANK9  BANK10  BANK1
      +1  BANK12
  9871 ;;      Params:         0       0       0       0       0       0       0       0       0       0       0       0       
      +0       0
  9872 ;;      Locals:         0       0       0       0       0       0       0       0       0       0       0       0       
      +0       0
  9873 ;;      Temps:          0       0       0       0       0       0       0       0       0       0       0       0       
      +0       0
  9874 ;;      Totals:         0       0       0       0       0       0       0       0       0       0       0       0       
      +0       0
  9875 ;;Total ram usage:        0 bytes
  9876 ;; Hardware stack levels used:    1
  9877 ;; Hardware stack levels required when called:    2
  9878 ;; This function calls:
  9879 ;;		Nothing
  9880 ;; This function is called by:
  9881 ;;		_KeyOpt_EEPROM_write
  9882 ;;		_eeprom_save
  9883 ;;		_PC_PRG
  9884 ;; This function uses a non-reentrant model
  9885 ;;
  9886                           
  9887                           
  9888                           ;psect for function _UnlockFlash
  9889  091C                     _UnlockFlash:
  9890  091C                     l180:	
  9891                           ;incstack = 0
  9892                           ; Regs used in _UnlockFlash: [wreg]
  9893                           
  9894  091C  0008               	return
  9895  091D                     __end_of_UnlockFlash:
  9896                           
  9897                           	psect	text41
  9898  091B                     __ptext41:	
  9899 ;; *************** function _LockFlash *****************
  9900 ;; Defined at:
  9901 ;;		line 119 in file "../Projects/src/eeprom.c"
  9902 ;; Parameters:    Size  Location     Type
  9903 ;;  Type            1    wreg     unsigned char 
  9904 ;; Auto vars:     Size  Location     Type
  9905 ;;  Type            1    0[COMMON] unsigned char 
  9906 ;; Return value:  Size  Location     Type
  9907 ;;                  1    wreg      void 
  9908 ;; Registers used:
  9909 ;;		wreg
  9910 ;; Tracked objects:
  9911 ;;		On entry : 0/0
  9912 ;;		On exit  : 0/0
  9913 ;;		Unchanged: 0/0
  9914 ;; Data sizes:     COMMON   BANK0   BANK1   BANK2   BANK3   BANK4   BANK5   BANK6   BANK7   BANK8   BANK9  BANK10  BANK1
      +1  BANK12
  9915 ;;      Params:         0       0       0       0       0       0       0       0       0       0       0       0       
      +0       0
  9916 ;;      Locals:         0       0       0       0       0       0       0       0       0       0       0       0       
      +0       0
  9917 ;;      Temps:          0       0       0       0       0       0       0       0       0       0       0       0       
      +0       0
  9918 ;;      Totals:         0       0       0       0       0       0       0       0       0       0       0       0       
      +0       0
  9919 ;;Total ram usage:        0 bytes
  9920 ;; Hardware stack levels used:    1
  9921 ;; Hardware stack levels required when called:    2
  9922 ;; This function calls:
  9923 ;;		Nothing
  9924 ;; This function is called by:
  9925 ;;		_KeyOpt_EEPROM_write
  9926 ;;		_eeprom_save
  9927 ;;		_PC_PRG
  9928 ;; This function uses a non-reentrant model
  9929 ;;
  9930                           
  9931                           
  9932                           ;psect for function _LockFlash
  9933  091B                     _LockFlash:
  9934  091B                     l183:	
  9935                           ;incstack = 0
  9936                           ; Regs used in _LockFlash: [wreg]
  9937                           
  9938  091B  0008               	return
  9939  091C                     __end_of_LockFlash:
  9940                           
  9941                           	psect	text42
  9942  091A                     __ptext42:	
  9943 ;; *************** function _ClearWDT *****************
  9944 ;; Defined at:
  9945 ;;		line 25 in file "../Projects/src/initial.c"
  9946 ;; Parameters:    Size  Location     Type
  9947 ;;		None
  9948 ;; Auto vars:     Size  Location     Type
  9949 ;;		None
  9950 ;; Return value:  Size  Location     Type
  9951 ;;                  1    wreg      void 
  9952 ;; Registers used:
  9953 ;;		None
  9954 ;; Tracked objects:
  9955 ;;		On entry : 0/0
  9956 ;;		On exit  : 0/0
  9957 ;;		Unchanged: 0/0
  9958 ;; Data sizes:     COMMON   BANK0   BANK1   BANK2   BANK3   BANK4   BANK5   BANK6   BANK7   BANK8   BANK9  BANK10  BANK1
      +1  BANK12
  9959 ;;      Params:         0       0       0       0       0       0       0       0       0       0       0       0       
      +0       0
  9960 ;;      Locals:         0       0       0       0       0       0       0       0       0       0       0       0       
      +0       0
  9961 ;;      Temps:          0       0       0       0       0       0       0       0       0       0       0       0       
      +0       0
  9962 ;;      Totals:         0       0       0       0       0       0       0       0       0       0       0       0       
      +0       0
  9963 ;;Total ram usage:        0 bytes
  9964 ;; Hardware stack levels used:    1
  9965 ;; Hardware stack levels required when called:    2
  9966 ;; This function calls:
  9967 ;;		Nothing
  9968 ;; This function is called by:
  9969 ;;		_key_check
  9970 ;;		_test_mode_control
  9971 ;;		_main
  9972 ;;		_PC_PRG
  9973 ;; This function uses a non-reentrant model
  9974 ;;
  9975                           
  9976                           
  9977                           ;psect for function _ClearWDT
  9978  091A                     _ClearWDT:
  9979  091A                     l278:	
  9980                           ;incstack = 0
  9981                           ; Regs used in _ClearWDT: []
  9982                           
  9983  091A  0008               	return
  9984  091B                     __end_of_ClearWDT:
  9985                           
  9986                           	psect	text43
  9987  0C44                     __ptext43:	
  9988 ;; *************** function _eeprom_sys_load *****************
  9989 ;; Defined at:
  9990 ;;		line 143 in file "../Projects/src/eeprom.c"
  9991 ;; Parameters:    Size  Location     Type
  9992 ;;		None
  9993 ;; Auto vars:     Size  Location     Type
  9994 ;;  i               1    0[BANK0 ] unsigned char 
  9995 ;;  j               1    0        unsigned char 
  9996 ;; Return value:  Size  Location     Type
  9997 ;;                  1    wreg      void 
  9998 ;; Registers used:
  9999 ;;		wreg, fsr0l, fsr0h, fsr1l, fsr1h, status,2, status,0, pclath
 10000 ;; Tracked objects:
 10001 ;;		On entry : 0/0
 10002 ;;		On exit  : 0/0
 10003 ;;		Unchanged: 0/0
 10004 ;; Data sizes:     COMMON   BANK0   BANK1   BANK2   BANK3   BANK4   BANK5   BANK6   BANK7   BANK8   BANK9  BANK10  BANK1
      +1  BANK12
 10005 ;;      Params:         0       0       0       0       0       0       0       0       0       0       0       0       
      +0       0
 10006 ;;      Locals:         0       1       0       0       0       0       0       0       0       0       0       0       
      +0       0
 10007 ;;      Temps:          7       0       0       0       0       0       0       0       0       0       0       0       
      +0       0
 10008 ;;      Totals:         7       1       0       0       0       0       0       0       0       0       0       0       
      +0       0
 10009 ;;Total ram usage:        8 bytes
 10010 ;; Hardware stack levels used:    1
 10011 ;; Hardware stack levels required when called:    2
 10012 ;; This function calls:
 10013 ;;		Nothing
 10014 ;; This function is called by:
 10015 ;;		_main
 10016 ;; This function uses a non-reentrant model
 10017 ;;
 10018                           
 10019                           
 10020                           ;psect for function _eeprom_sys_load
 10021  0C44                     _eeprom_sys_load:
 10022  0C44                     l6140:	
 10023                           ;incstack = 0
 10024                           ; Regs used in _eeprom_sys_load: [wreg-fsr1h+status,2+status,0+pclath]
 10025                           
 10026                           
 10027                           ;../Projects/src/eeprom.c: 173:    unsigned char i,j;;../Projects/src/eeprom.c: 186:   I
      +                          D_data.IDL=0x01;
 10028  0C44  3000               	movlw	0
 10029  0C45  0021               	movlb	1	; select bank1
 10030  0C46  00AF               	movwf	(_ID_data+3)^(0+128)
 10031  0C47  3000               	movlw	0
 10032  0C48  00AE               	movwf	(_ID_data+2)^(0+128)
 10033  0C49  3000               	movlw	0
 10034  0C4A  00AD               	movwf	(_ID_data+1)^(0+128)
 10035  0C4B  3001               	movlw	1
 10036  0C4C  00AC               	movwf	_ID_data^(0+128)
 10037  0C4D                     l6142:
 10038                           
 10039                           ;../Projects/src/eeprom.c: 188:   for (i=0;i<4;i++)
 10040  0C4D  0020               	movlb	0	; select bank0
 10041  0C4E  01D1               	clrf	eeprom_sys_load@i
 10042  0C4F                     l6148:
 10043                           
 10044                           ;../Projects/src/eeprom.c: 189:   {;../Projects/src/eeprom.c: 196:  ROM_adf7012_value[i]
      +                          =Default_adf7012_value[i];
 10045  0C4F  0851               	movf	eeprom_sys_load@i,w
 10046  0C50  00F3               	movwf	??_eeprom_sys_load
 10047  0C51  01F4               	clrf	??_eeprom_sys_load+1
 10048  0C52  35F3               	lslf	??_eeprom_sys_load,f
 10049  0C53  0DF4               	rlf	??_eeprom_sys_load+1,f
 10050  0C54  35F3               	lslf	??_eeprom_sys_load,f
 10051  0C55  0DF4               	rlf	??_eeprom_sys_load+1,f
 10052  0C56  3011               	movlw	low (_Default_adf7012_value| (0+32768))
 10053  0C57  0773               	addwf	??_eeprom_sys_load,w
 10054  0C58  0084               	movwf	4
 10055  0C59  3090               	movlw	high (_Default_adf7012_value| (0+32768))
 10056  0C5A  3D74               	addwfc	??_eeprom_sys_load+1,w
 10057  0C5B  0085               	movwf	5
 10058  0C5C  3F00               	moviw [0]fsr0
 10059  0C5D  00F5               	movwf	??_eeprom_sys_load+2
 10060  0C5E  3F01               	moviw [1]fsr0
 10061  0C5F  00F6               	movwf	??_eeprom_sys_load+3
 10062  0C60  3F02               	moviw [2]fsr0
 10063  0C61  00F7               	movwf	??_eeprom_sys_load+4
 10064  0C62  3F03               	moviw [3]fsr0
 10065  0C63  00F8               	movwf	??_eeprom_sys_load+5
 10066  0C64  0851               	movf	eeprom_sys_load@i,w
 10067  0C65  00F9               	movwf	??_eeprom_sys_load+6
 10068  0C66  3001               	movlw	1
 10069  0C67                     u4185:
 10070  0C67  35F9               	lslf	??_eeprom_sys_load+6,f
 10071  0C68  3EFF               	addlw	-1
 10072  0C69  1D03               	skipz
 10073  0C6A  2C67               	goto	u4185
 10074  0C6B  3579               	lslf	??_eeprom_sys_load+6,w
 10075  0C6C  3EDB               	addlw	(low (_ROM_adf7012_value| 0))& (0+255)
 10076  0C6D  0086               	movwf	6
 10077  0C6E  0187               	clrf	7
 10078  0C6F  0875               	movf	??_eeprom_sys_load+2,w
 10079  0C70  3FC0               	movwi [0]fsr1
 10080  0C71  0876               	movf	??_eeprom_sys_load+3,w
 10081  0C72  3FC1               	movwi [1]fsr1
 10082  0C73  0877               	movf	??_eeprom_sys_load+4,w
 10083  0C74  3FC2               	movwi [2]fsr1
 10084  0C75  0878               	movf	??_eeprom_sys_load+5,w
 10085  0C76  3FC3               	movwi [3]fsr1
 10086  0C77                     l6150:
 10087                           
 10088                           ;../Projects/src/eeprom.c: 197:   }
 10089  0C77  3001               	movlw	1
 10090  0C78  00F3               	movwf	??_eeprom_sys_load
 10091  0C79  0873               	movf	??_eeprom_sys_load,w
 10092  0C7A  07D1               	addwf	eeprom_sys_load@i,f
 10093  0C7B                     l6152:
 10094  0C7B  3004               	movlw	4
 10095  0C7C  0251               	subwf	eeprom_sys_load@i,w
 10096  0C7D  1C03               	skipc
 10097  0C7E  2C80               	goto	u4191
 10098  0C7F  2C81               	goto	u4190
 10099  0C80                     u4191:
 10100  0C80  2C4F               	goto	l6148
 10101  0C81                     u4190:
 10102  0C81                     l202:
 10103  0C81  0008               	return
 10104  0C82                     __end_of_eeprom_sys_load:
 10105                           
 10106                           	psect	text44
 10107  0B76                     __ptext44:	
 10108 ;; *************** function __Init_RAM *****************
 10109 ;; Defined at:
 10110 ;;		line 79 in file "../Projects/src/initial.c"
 10111 ;; Parameters:    Size  Location     Type
 10112 ;;		None
 10113 ;; Auto vars:     Size  Location     Type
 10114 ;;		None
 10115 ;; Return value:  Size  Location     Type
 10116 ;;                  1    wreg      void 
 10117 ;; Registers used:
 10118 ;;		wreg, status,2, status,0, pclath, cstack
 10119 ;; Tracked objects:
 10120 ;;		On entry : 0/0
 10121 ;;		On exit  : 0/0
 10122 ;;		Unchanged: 0/0
 10123 ;; Data sizes:     COMMON   BANK0   BANK1   BANK2   BANK3   BANK4   BANK5   BANK6   BANK7   BANK8   BANK9  BANK10  BANK1
      +1  BANK12
 10124 ;;      Params:         0       0       0       0       0       0       0       0       0       0       0       0       
      +0       0
 10125 ;;      Locals:         0       0       0       0       0       0       0       0       0       0       0       0       
      +0       0
 10126 ;;      Temps:          1       0       0       0       0       0       0       0       0       0       0       0       
      +0       0
 10127 ;;      Totals:         1       0       0       0       0       0       0       0       0       0       0       0       
      +0       0
 10128 ;;Total ram usage:        1 bytes
 10129 ;; Hardware stack levels used:    1
 10130 ;; Hardware stack levels required when called:    3
 10131 ;; This function calls:
 10132 ;;		__ClearSpecialMultiKeyState
 10133 ;;		__SetKeyChatterCount
 10134 ;; This function is called by:
 10135 ;;		_main
 10136 ;; This function uses a non-reentrant model
 10137 ;;
 10138                           
 10139                           
 10140                           ;psect for function __Init_RAM
 10141  0B76                     __Init_RAM:
 10142  0B76                     l4462:	
 10143                           ;incstack = 0
 10144                           ; Regs used in __Init_RAM: [wreg+status,2+status,0+pclath+cstack]
 10145                           
 10146                           
 10147                           ;../Projects/src/initial.c: 81:   TB_100ms = 100;
 10148  0B76  3064               	movlw	100
 10149  0B77  00F3               	movwf	??__Init_RAM
 10150  0B78  0873               	movf	??__Init_RAM,w
 10151  0B79  0020               	movlb	0	; select bank0
 10152  0B7A  00C7               	movwf	_TB_100ms
 10153                           
 10154                           ;../Projects/src/initial.c: 83:   TB_51s=26;
 10155  0B7B  301A               	movlw	26
 10156  0B7C  00F3               	movwf	??__Init_RAM
 10157  0B7D  0873               	movf	??__Init_RAM,w
 10158  0B7E  00C6               	movwf	_TB_51s
 10159  0B7F                     l4464:
 10160                           
 10161                           ;../Projects/src/initial.c: 84:   TB_5s=TB_51s-1;
 10162  0B7F  0846               	movf	_TB_51s,w
 10163  0B80  3EFF               	addlw	255
 10164  0B81  00F3               	movwf	??__Init_RAM
 10165  0B82  0873               	movf	??__Init_RAM,w
 10166  0B83  00C5               	movwf	_TB_5s
 10167  0B84                     l4466:
 10168                           
 10169                           ;../Projects/src/initial.c: 90:  _SetKeyChatterCount() ;
 10170  0B84  3189  2144  318B   	fcall	__SetKeyChatterCount
 10171  0B87                     l4468:
 10172                           
 10173                           ;../Projects/src/initial.c: 91:  m_KeyNew = m_KeyOld = 0xFF ;
 10174  0B87  30FF               	movlw	255
 10175  0B88  0020               	movlb	0	; select bank0
 10176  0B89  00C3               	movwf	_m_KeyOld
 10177  0B8A  00F3               	movwf	??__Init_RAM
 10178  0B8B  0873               	movf	??__Init_RAM,w
 10179  0B8C  00C4               	movwf	_m_KeyNew
 10180  0B8D                     l4470:
 10181                           
 10182                           ;../Projects/src/initial.c: 92:  m_KindOfKey = 0 ;
 10183  0B8D  01C2               	clrf	_m_KindOfKey
 10184  0B8E                     l4472:
 10185                           
 10186                           ;../Projects/src/initial.c: 94:  mb_NoPush = 1 ;
 10187  0B8E  01C1               	clrf	_mb_NoPush
 10188  0B8F  0AC1               	incf	_mb_NoPush,f
 10189  0B90                     l4474:
 10190                           
 10191                           ;../Projects/src/initial.c: 95:  mb_NoPushWait = 0 ;
 10192  0B90  01C0               	clrf	_mb_NoPushWait
 10193  0B91                     l4476:
 10194                           
 10195                           ;../Projects/src/initial.c: 96:  _ClearSpecialMultiKeyState() ;
 10196  0B91  3189  2127  318B   	fcall	__ClearSpecialMultiKeyState
 10197  0B94                     l4478:
 10198                           
 10199                           ;../Projects/src/initial.c: 97:  m_TimerKey = 0 ;
 10200  0B94  0020               	movlb	0	; select bank0
 10201  0B95  01A4               	clrf	_m_TimerKey
 10202  0B96  01A5               	clrf	_m_TimerKey+1
 10203  0B97                     l4480:
 10204                           
 10205                           ;../Projects/src/initial.c: 98:  m_TimerKeyMonitor = 0 ;
 10206  0B97  0021               	movlb	1	; select bank1
 10207  0B98  01C0               	clrf	_m_TimerKeyMonitor^(0+128)
 10208  0B99  01C1               	clrf	(_m_TimerKeyMonitor+1)^(0+128)
 10209  0B9A                     l293:
 10210  0B9A  0008               	return
 10211  0B9B                     __end_of__Init_RAM:
 10212                           
 10213                           	psect	text45
 10214  0944                     __ptext45:	
 10215 ;; *************** function __SetKeyChatterCount *****************
 10216 ;; Defined at:
 10217 ;;		line 633 in file "../Projects/src/key_and_Other.c"
 10218 ;; Parameters:    Size  Location     Type
 10219 ;;		None
 10220 ;; Auto vars:     Size  Location     Type
 10221 ;;		None
 10222 ;; Return value:  Size  Location     Type
 10223 ;;                  1    wreg      void 
 10224 ;; Registers used:
 10225 ;;		wreg, status,2
 10226 ;; Tracked objects:
 10227 ;;		On entry : 0/0
 10228 ;;		On exit  : 0/0
 10229 ;;		Unchanged: 0/0
 10230 ;; Data sizes:     COMMON   BANK0   BANK1   BANK2   BANK3   BANK4   BANK5   BANK6   BANK7   BANK8   BANK9  BANK10  BANK1
      +1  BANK12
 10231 ;;      Params:         0       0       0       0       0       0       0       0       0       0       0       0       
      +0       0
 10232 ;;      Locals:         0       0       0       0       0       0       0       0       0       0       0       0       
      +0       0
 10233 ;;      Temps:          0       0       0       0       0       0       0       0       0       0       0       0       
      +0       0
 10234 ;;      Totals:         0       0       0       0       0       0       0       0       0       0       0       0       
      +0       0
 10235 ;;Total ram usage:        0 bytes
 10236 ;; Hardware stack levels used:    1
 10237 ;; Hardware stack levels required when called:    2
 10238 ;; This function calls:
 10239 ;;		Nothing
 10240 ;; This function is called by:
 10241 ;;		__Init_RAM
 10242 ;;		__KeyInTx
 10243 ;; This function uses a non-reentrant model
 10244 ;;
 10245                           
 10246                           
 10247                           ;psect for function __SetKeyChatterCount
 10248  0944                     __SetKeyChatterCount:
 10249  0944                     l3590:	
 10250                           ;incstack = 0
 10251                           ; Regs used in __SetKeyChatterCount: [wreg+status,2]
 10252                           
 10253                           
 10254                           ;../Projects/src/key_and_Other.c: 635:  m_ChatterCount = 1 ;
 10255  0944  3001               	movlw	1
 10256  0945  0021               	movlb	1	; select bank1
 10257  0946  00B6               	movwf	_m_ChatterCount^(0+128)
 10258  0947  3000               	movlw	0
 10259  0948  00B7               	movwf	(_m_ChatterCount^(0+128)+1)
 10260  0949                     l3592:
 10261                           
 10262                           ;../Projects/src/key_and_Other.c: 636:  m_TimerKey = 0 ;
 10263  0949  0020               	movlb	0	; select bank0
 10264  094A  01A4               	clrf	_m_TimerKey
 10265  094B  01A5               	clrf	_m_TimerKey+1
 10266  094C                     l665:
 10267  094C  0008               	return
 10268  094D                     __end_of__SetKeyChatterCount:
 10269                           
 10270                           	psect	text46
 10271  0927                     __ptext46:	
 10272 ;; *************** function __ClearSpecialMultiKeyState *****************
 10273 ;; Defined at:
 10274 ;;		line 647 in file "../Projects/src/key_and_Other.c"
 10275 ;; Parameters:    Size  Location     Type
 10276 ;;		None
 10277 ;; Auto vars:     Size  Location     Type
 10278 ;;		None
 10279 ;; Return value:  Size  Location     Type
 10280 ;;                  1    wreg      void 
 10281 ;; Registers used:
 10282 ;;		status,2
 10283 ;; Tracked objects:
 10284 ;;		On entry : 0/0
 10285 ;;		On exit  : 0/0
 10286 ;;		Unchanged: 0/0
 10287 ;; Data sizes:     COMMON   BANK0   BANK1   BANK2   BANK3   BANK4   BANK5   BANK6   BANK7   BANK8   BANK9  BANK10  BANK1
      +1  BANK12
 10288 ;;      Params:         0       0       0       0       0       0       0       0       0       0       0       0       
      +0       0
 10289 ;;      Locals:         0       0       0       0       0       0       0       0       0       0       0       0       
      +0       0
 10290 ;;      Temps:          0       0       0       0       0       0       0       0       0       0       0       0       
      +0       0
 10291 ;;      Totals:         0       0       0       0       0       0       0       0       0       0       0       0       
      +0       0
 10292 ;;Total ram usage:        0 bytes
 10293 ;; Hardware stack levels used:    1
 10294 ;; Hardware stack levels required when called:    2
 10295 ;; This function calls:
 10296 ;;		Nothing
 10297 ;; This function is called by:
 10298 ;;		__Init_RAM
 10299 ;;		__KeyInTx
 10300 ;;		__FuncOpenStop
 10301 ;;		__FuncReg
 10302 ;;		__FuncNoPush
 10303 ;;		__GetNoPushState
 10304 ;; This function uses a non-reentrant model
 10305 ;;
 10306                           
 10307                           
 10308                           ;psect for function __ClearSpecialMultiKeyState
 10309  0927                     __ClearSpecialMultiKeyState:
 10310  0927                     l3424:	
 10311                           ;incstack = 0
 10312                           ; Regs used in __ClearSpecialMultiKeyState: [status,2]
 10313                           
 10314                           
 10315                           ;../Projects/src/key_and_Other.c: 649:  mb_RegSw = 0 ;
 10316  0927  0020               	movlb	0	; select bank0
 10317  0928  01B0               	clrf	_mb_RegSw
 10318                           
 10319                           ;../Projects/src/key_and_Other.c: 650:  mb_RegStopSw = 0 ;
 10320  0929  01B2               	clrf	_mb_RegStopSw
 10321                           
 10322                           ;../Projects/src/key_and_Other.c: 651:  mb_RegOpenSw = 0 ;
 10323  092A  01B5               	clrf	_mb_RegOpenSw
 10324                           
 10325                           ;../Projects/src/key_and_Other.c: 652:  mb_RegCloseSw = 0 ;
 10326  092B  01B4               	clrf	_mb_RegCloseSw
 10327                           
 10328                           ;../Projects/src/key_and_Other.c: 653:  mb_RegVentSw = 0 ;
 10329  092C  01B3               	clrf	_mb_RegVentSw
 10330  092D                     l668:
 10331  092D  0008               	return
 10332  092E                     __end_of__ClearSpecialMultiKeyState:
 10333                           
 10334                           	psect	text47
 10335  0919                     __ptext47:	
 10336 ;; *************** function _WDT_init *****************
 10337 ;; Defined at:
 10338 ;;		line 21 in file "../Projects/src/initial.c"
 10339 ;; Parameters:    Size  Location     Type
 10340 ;;		None
 10341 ;; Auto vars:     Size  Location     Type
 10342 ;;		None
 10343 ;; Return value:  Size  Location     Type
 10344 ;;                  1    wreg      void 
 10345 ;; Registers used:
 10346 ;;		None
 10347 ;; Tracked objects:
 10348 ;;		On entry : 0/0
 10349 ;;		On exit  : 0/0
 10350 ;;		Unchanged: 0/0
 10351 ;; Data sizes:     COMMON   BANK0   BANK1   BANK2   BANK3   BANK4   BANK5   BANK6   BANK7   BANK8   BANK9  BANK10  BANK1
      +1  BANK12
 10352 ;;      Params:         0       0       0       0       0       0       0       0       0       0       0       0       
      +0       0
 10353 ;;      Locals:         0       0       0       0       0       0       0       0       0       0       0       0       
      +0       0
 10354 ;;      Temps:          0       0       0       0       0       0       0       0       0       0       0       0       
      +0       0
 10355 ;;      Totals:         0       0       0       0       0       0       0       0       0       0       0       0       
      +0       0
 10356 ;;Total ram usage:        0 bytes
 10357 ;; Hardware stack levels used:    1
 10358 ;; Hardware stack levels required when called:    2
 10359 ;; This function calls:
 10360 ;;		Nothing
 10361 ;; This function is called by:
 10362 ;;		_main
 10363 ;; This function uses a non-reentrant model
 10364 ;;
 10365                           
 10366                           
 10367                           ;psect for function _WDT_init
 10368  0919                     _WDT_init:
 10369  0919                     l275:	
 10370                           ;incstack = 0
 10371                           ; Regs used in _WDT_init: []
 10372                           
 10373  0919  0008               	return
 10374  091A                     __end_of_WDT_init:
 10375                           
 10376                           	psect	text48
 10377  0A8D                     __ptext48:	
 10378 ;; *************** function _VHF_GPIO_INIT *****************
 10379 ;; Defined at:
 10380 ;;		line 45 in file "../Projects/src/initial.c"
 10381 ;; Parameters:    Size  Location     Type
 10382 ;;		None
 10383 ;; Auto vars:     Size  Location     Type
 10384 ;;		None
 10385 ;; Return value:  Size  Location     Type
 10386 ;;                  1    wreg      void 
 10387 ;; Registers used:
 10388 ;;		wreg, status,2
 10389 ;; Tracked objects:
 10390 ;;		On entry : 0/0
 10391 ;;		On exit  : 0/0
 10392 ;;		Unchanged: 0/0
 10393 ;; Data sizes:     COMMON   BANK0   BANK1   BANK2   BANK3   BANK4   BANK5   BANK6   BANK7   BANK8   BANK9  BANK10  BANK1
      +1  BANK12
 10394 ;;      Params:         0       0       0       0       0       0       0       0       0       0       0       0       
      +0       0
 10395 ;;      Locals:         0       0       0       0       0       0       0       0       0       0       0       0       
      +0       0
 10396 ;;      Temps:          0       0       0       0       0       0       0       0       0       0       0       0       
      +0       0
 10397 ;;      Totals:         0       0       0       0       0       0       0       0       0       0       0       0       
      +0       0
 10398 ;;Total ram usage:        0 bytes
 10399 ;; Hardware stack levels used:    1
 10400 ;; Hardware stack levels required when called:    2
 10401 ;; This function calls:
 10402 ;;		Nothing
 10403 ;; This function is called by:
 10404 ;;		_main
 10405 ;; This function uses a non-reentrant model
 10406 ;;
 10407                           
 10408                           
 10409                           ;psect for function _VHF_GPIO_INIT
 10410  0A8D                     _VHF_GPIO_INIT:
 10411  0A8D                     l4430:	
 10412                           ;incstack = 0
 10413                           ; Regs used in _VHF_GPIO_INIT: [wreg+status,2]
 10414                           
 10415                           
 10416                           ;../Projects/src/initial.c: 47:   ANSELA=0X00;
 10417  0A8D  0023               	movlb	3	; select bank3
 10418  0A8E  018C               	clrf	12	;volatile
 10419                           
 10420                           ;../Projects/src/initial.c: 48:   ANSELB=0X00;
 10421  0A8F  018D               	clrf	13	;volatile
 10422                           
 10423                           ;../Projects/src/initial.c: 49:   ANSELC=0X00;
 10424  0A90  018E               	clrf	14	;volatile
 10425  0A91                     l4432:
 10426                           
 10427                           ;../Projects/src/initial.c: 51:   nWPUEN=0;
 10428  0A91  0021               	movlb	1	; select bank1
 10429  0A92  1395               	bcf	21,7	;volatile
 10430  0A93                     l4434:
 10431                           
 10432                           ;../Projects/src/initial.c: 52:   TRISA=0B00010100;
 10433  0A93  3014               	movlw	20
 10434  0A94  008C               	movwf	12	;volatile
 10435  0A95                     l4436:
 10436                           
 10437                           ;../Projects/src/initial.c: 53:   WPUA =0B00010100;
 10438  0A95  3014               	movlw	20
 10439  0A96  0024               	movlb	4	; select bank4
 10440  0A97  008C               	movwf	12	;volatile
 10441  0A98                     l4438:
 10442                           
 10443                           ;../Projects/src/initial.c: 54:   TRISB=0B01010000;
 10444  0A98  3050               	movlw	80
 10445  0A99  0021               	movlb	1	; select bank1
 10446  0A9A  008D               	movwf	13	;volatile
 10447  0A9B                     l4440:
 10448                           
 10449                           ;../Projects/src/initial.c: 55:   WPUB =0B11010000;
 10450  0A9B  30D0               	movlw	208
 10451  0A9C  0024               	movlb	4	; select bank4
 10452  0A9D  008D               	movwf	13	;volatile
 10453  0A9E                     l4442:
 10454                           
 10455                           ;../Projects/src/initial.c: 56:   TRISC=0B00111010;
 10456  0A9E  303A               	movlw	58
 10457  0A9F  0021               	movlb	1	; select bank1
 10458  0AA0  008E               	movwf	14	;volatile
 10459  0AA1                     l4444:
 10460                           
 10461                           ;../Projects/src/initial.c: 57:   WPUC =0B00111100;
 10462  0AA1  303C               	movlw	60
 10463  0AA2  0024               	movlb	4	; select bank4
 10464  0AA3  008E               	movwf	14	;volatile
 10465  0AA4                     l4446:
 10466                           
 10467                           ;../Projects/src/initial.c: 59:   RB5=0;
 10468  0AA4  0020               	movlb	0	; select bank0
 10469  0AA5  128D               	bcf	13,5	;volatile
 10470  0AA6                     l4448:
 10471                           
 10472                           ;../Projects/src/initial.c: 61:   RB6=0;
 10473  0AA6  130D               	bcf	13,6	;volatile
 10474  0AA7                     l4450:
 10475                           
 10476                           ;../Projects/src/initial.c: 63:   RC7=0;
 10477  0AA7  138E               	bcf	14,7	;volatile
 10478  0AA8                     l4452:
 10479                           
 10480                           ;../Projects/src/initial.c: 65:   RC6=0;
 10481  0AA8  130E               	bcf	14,6	;volatile
 10482  0AA9                     l4454:
 10483                           
 10484                           ;../Projects/src/initial.c: 67:   RC2=0;
 10485  0AA9  110E               	bcf	14,2	;volatile
 10486  0AAA                     l4456:
 10487                           
 10488                           ;../Projects/src/initial.c: 72:   RC0=0;
 10489  0AAA  100E               	bcf	14,0	;volatile
 10490  0AAB                     l4458:
 10491                           
 10492                           ;../Projects/src/initial.c: 74:   RA5=0;
 10493  0AAB  128C               	bcf	12,5	;volatile
 10494  0AAC                     l4460:
 10495                           
 10496                           ;../Projects/src/initial.c: 76:   RB7=0;
 10497  0AAC  138D               	bcf	13,7	;volatile
 10498  0AAD                     l290:
 10499  0AAD  0008               	return
 10500  0AAE                     __end_of_VHF_GPIO_INIT:
 10501                           
 10502                           	psect	text49
 10503  0918                     __ptext49:	
 10504 ;; *************** function _UART1_INIT *****************
 10505 ;; Defined at:
 10506 ;;		line 22 in file "../Projects/src/uart.c"
 10507 ;; Parameters:    Size  Location     Type
 10508 ;;		None
 10509 ;; Auto vars:     Size  Location     Type
 10510 ;;		None
 10511 ;; Return value:  Size  Location     Type
 10512 ;;                  1    wreg      void 
 10513 ;; Registers used:
 10514 ;;		None
 10515 ;; Tracked objects:
 10516 ;;		On entry : 0/0
 10517 ;;		On exit  : 0/0
 10518 ;;		Unchanged: 0/0
 10519 ;; Data sizes:     COMMON   BANK0   BANK1   BANK2   BANK3   BANK4   BANK5   BANK6   BANK7   BANK8   BANK9  BANK10  BANK1
      +1  BANK12
 10520 ;;      Params:         0       0       0       0       0       0       0       0       0       0       0       0       
      +0       0
 10521 ;;      Locals:         0       0       0       0       0       0       0       0       0       0       0       0       
      +0       0
 10522 ;;      Temps:          0       0       0       0       0       0       0       0       0       0       0       0       
      +0       0
 10523 ;;      Totals:         0       0       0       0       0       0       0       0       0       0       0       0       
      +0       0
 10524 ;;Total ram usage:        0 bytes
 10525 ;; Hardware stack levels used:    1
 10526 ;; Hardware stack levels required when called:    2
 10527 ;; This function calls:
 10528 ;;		Nothing
 10529 ;; This function is called by:
 10530 ;;		_main
 10531 ;; This function uses a non-reentrant model
 10532 ;;
 10533                           
 10534                           
 10535                           ;psect for function _UART1_INIT
 10536  0918                     _UART1_INIT:
 10537  0918                     l1138:	
 10538                           ;incstack = 0
 10539                           ; Regs used in _UART1_INIT: []
 10540                           
 10541  0918  0008               	return
 10542  0919                     __end_of_UART1_INIT:
 10543                           
 10544                           	psect	text50
 10545  0958                     __ptext50:	
 10546 ;; *************** function _TIM4_Init *****************
 10547 ;; Defined at:
 10548 ;;		line 38 in file "../Projects/src/Timer.c"
 10549 ;; Parameters:    Size  Location     Type
 10550 ;;		None
 10551 ;; Auto vars:     Size  Location     Type
 10552 ;;		None
 10553 ;; Return value:  Size  Location     Type
 10554 ;;                  1    wreg      void 
 10555 ;; Registers used:
 10556 ;;		wreg, status,2
 10557 ;; Tracked objects:
 10558 ;;		On entry : 0/0
 10559 ;;		On exit  : 0/0
 10560 ;;		Unchanged: 0/0
 10561 ;; Data sizes:     COMMON   BANK0   BANK1   BANK2   BANK3   BANK4   BANK5   BANK6   BANK7   BANK8   BANK9  BANK10  BANK1
      +1  BANK12
 10562 ;;      Params:         0       0       0       0       0       0       0       0       0       0       0       0       
      +0       0
 10563 ;;      Locals:         0       0       0       0       0       0       0       0       0       0       0       0       
      +0       0
 10564 ;;      Temps:          0       0       0       0       0       0       0       0       0       0       0       0       
      +0       0
 10565 ;;      Totals:         0       0       0       0       0       0       0       0       0       0       0       0       
      +0       0
 10566 ;;Total ram usage:        0 bytes
 10567 ;; Hardware stack levels used:    1
 10568 ;; Hardware stack levels required when called:    2
 10569 ;; This function calls:
 10570 ;;		Nothing
 10571 ;; This function is called by:
 10572 ;;		_main
 10573 ;; This function uses a non-reentrant model
 10574 ;;
 10575                           
 10576                           
 10577                           ;psect for function _TIM4_Init
 10578  0958                     _TIM4_Init:
 10579  0958                     l4390:	
 10580                           ;incstack = 0
 10581                           ; Regs used in _TIM4_Init: [wreg+status,2]
 10582                           
 10583                           
 10584                           ;../Projects/src/Timer.c: 39:  TMR2=0X00;
 10585  0958  0020               	movlb	0	; select bank0
 10586  0959  019A               	clrf	26	;volatile
 10587  095A                     l4392:
 10588                           
 10589                           ;../Projects/src/Timer.c: 40:  PR2=0X64;
 10590  095A  3064               	movlw	100
 10591  095B  009B               	movwf	27	;volatile
 10592  095C                     l4394:
 10593                           
 10594                           ;../Projects/src/Timer.c: 41:  TMR2IF=0;
 10595  095C  1091               	bcf	17,1	;volatile
 10596  095D                     l4396:
 10597                           
 10598                           ;../Projects/src/Timer.c: 43:  TMR2IE=1;
 10599  095D  0021               	movlb	1	; select bank1
 10600  095E  1491               	bsf	17,1	;volatile
 10601  095F                     l4398:
 10602                           
 10603                           ;../Projects/src/Timer.c: 44:  T2CON=0B01001101;
 10604  095F  304D               	movlw	77
 10605  0960  0020               	movlb	0	; select bank0
 10606  0961  009C               	movwf	28	;volatile
 10607  0962                     l98:
 10608  0962  0008               	return
 10609  0963                     __end_of_TIM4_Init:
 10610                           
 10611                           	psect	text51
 10612  093C                     __ptext51:	
 10613 ;; *************** function _SysClock_Init *****************
 10614 ;; Defined at:
 10615 ;;		line 31 in file "../Projects/src/initial.c"
 10616 ;; Parameters:    Size  Location     Type
 10617 ;;		None
 10618 ;; Auto vars:     Size  Location     Type
 10619 ;;		None
 10620 ;; Return value:  Size  Location     Type
 10621 ;;                  1    wreg      void 
 10622 ;; Registers used:
 10623 ;;		wreg
 10624 ;; Tracked objects:
 10625 ;;		On entry : 0/0
 10626 ;;		On exit  : 0/0
 10627 ;;		Unchanged: 0/0
 10628 ;; Data sizes:     COMMON   BANK0   BANK1   BANK2   BANK3   BANK4   BANK5   BANK6   BANK7   BANK8   BANK9  BANK10  BANK1
      +1  BANK12
 10629 ;;      Params:         0       0       0       0       0       0       0       0       0       0       0       0       
      +0       0
 10630 ;;      Locals:         0       0       0       0       0       0       0       0       0       0       0       0       
      +0       0
 10631 ;;      Temps:          0       0       0       0       0       0       0       0       0       0       0       0       
      +0       0
 10632 ;;      Totals:         0       0       0       0       0       0       0       0       0       0       0       0       
      +0       0
 10633 ;;Total ram usage:        0 bytes
 10634 ;; Hardware stack levels used:    1
 10635 ;; Hardware stack levels required when called:    2
 10636 ;; This function calls:
 10637 ;;		Nothing
 10638 ;; This function is called by:
 10639 ;;		_main
 10640 ;; This function uses a non-reentrant model
 10641 ;;
 10642                           
 10643                           
 10644                           ;psect for function _SysClock_Init
 10645  093C                     _SysClock_Init:
 10646  093C                     l4428:	
 10647                           ;incstack = 0
 10648                           ; Regs used in _SysClock_Init: [wreg]
 10649                           
 10650                           
 10651                           ;../Projects/src/initial.c: 33:   OSCCON=0x78;
 10652  093C  3078               	movlw	120
 10653  093D  0021               	movlb	1	; select bank1
 10654  093E  0099               	movwf	25	;volatile
 10655  093F                     l281:	
 10656                           ;../Projects/src/initial.c: 34:   while(!HFIOFR);
 10657                           
 10658  093F  1E1A               	btfss	26,4	;volatile
 10659  0940  2942               	goto	u2141
 10660  0941  2943               	goto	u2140
 10661  0942                     u2141:
 10662  0942  293F               	goto	l281
 10663  0943                     u2140:
 10664  0943                     l284:
 10665  0943  0008               	return
 10666  0944                     __end_of_SysClock_Init:
 10667                           
 10668                           	psect	text52
 10669  0917                     __ptext52:	
 10670 ;; *************** function _START_AD_SAMPLER *****************
 10671 ;; Defined at:
 10672 ;;		line 21 in file "../Projects/src/ad.c"
 10673 ;; Parameters:    Size  Location     Type
 10674 ;;		None
 10675 ;; Auto vars:     Size  Location     Type
 10676 ;;		None
 10677 ;; Return value:  Size  Location     Type
 10678 ;;                  1    wreg      void 
 10679 ;; Registers used:
 10680 ;;		None
 10681 ;; Tracked objects:
 10682 ;;		On entry : 0/0
 10683 ;;		On exit  : 0/0
 10684 ;;		Unchanged: 0/0
 10685 ;; Data sizes:     COMMON   BANK0   BANK1   BANK2   BANK3   BANK4   BANK5   BANK6   BANK7   BANK8   BANK9  BANK10  BANK1
      +1  BANK12
 10686 ;;      Params:         0       0       0       0       0       0       0       0       0       0       0       0       
      +0       0
 10687 ;;      Locals:         0       0       0       0       0       0       0       0       0       0       0       0       
      +0       0
 10688 ;;      Temps:          0       0       0       0       0       0       0       0       0       0       0       0       
      +0       0
 10689 ;;      Totals:         0       0       0       0       0       0       0       0       0       0       0       0       
      +0       0
 10690 ;;Total ram usage:        0 bytes
 10691 ;; Hardware stack levels used:    1
 10692 ;; Hardware stack levels required when called:    2
 10693 ;; This function calls:
 10694 ;;		Nothing
 10695 ;; This function is called by:
 10696 ;;		_main
 10697 ;;		_ADC2_EOC_INT
 10698 ;; This function uses a non-reentrant model
 10699 ;;
 10700                           
 10701                           
 10702                           ;psect for function _START_AD_SAMPLER
 10703  0917                     _START_AD_SAMPLER:
 10704  0917                     l118:	
 10705                           ;incstack = 0
 10706                           ; Regs used in _START_AD_SAMPLER: []
 10707                           
 10708  0917  0008               	return
 10709  0918                     __end_of_START_AD_SAMPLER:
 10710                           
 10711                           	psect	text53
 10712  0916                     __ptext53:	
 10713 ;; *************** function _InitialFlashReg *****************
 10714 ;; Defined at:
 10715 ;;		line 110 in file "../Projects/src/eeprom.c"
 10716 ;; Parameters:    Size  Location     Type
 10717 ;;		None
 10718 ;; Auto vars:     Size  Location     Type
 10719 ;;		None
 10720 ;; Return value:  Size  Location     Type
 10721 ;;                  1    wreg      void 
 10722 ;; Registers used:
 10723 ;;		None
 10724 ;; Tracked objects:
 10725 ;;		On entry : 0/0
 10726 ;;		On exit  : 0/0
 10727 ;;		Unchanged: 0/0
 10728 ;; Data sizes:     COMMON   BANK0   BANK1   BANK2   BANK3   BANK4   BANK5   BANK6   BANK7   BANK8   BANK9  BANK10  BANK1
      +1  BANK12
 10729 ;;      Params:         0       0       0       0       0       0       0       0       0       0       0       0       
      +0       0
 10730 ;;      Locals:         0       0       0       0       0       0       0       0       0       0       0       0       
      +0       0
 10731 ;;      Temps:          0       0       0       0       0       0       0       0       0       0       0       0       
      +0       0
 10732 ;;      Totals:         0       0       0       0       0       0       0       0       0       0       0       0       
      +0       0
 10733 ;;Total ram usage:        0 bytes
 10734 ;; Hardware stack levels used:    1
 10735 ;; Hardware stack levels required when called:    2
 10736 ;; This function calls:
 10737 ;;		Nothing
 10738 ;; This function is called by:
 10739 ;;		_main
 10740 ;; This function uses a non-reentrant model
 10741 ;;
 10742                           
 10743                           
 10744                           ;psect for function _InitialFlashReg
 10745  0916                     _InitialFlashReg:
 10746  0916                     l177:	
 10747                           ;incstack = 0
 10748                           ; Regs used in _InitialFlashReg: []
 10749                           
 10750  0916  0008               	return
 10751  0917                     __end_of_InitialFlashReg:
 10752                           
 10753                           	psect	text54
 10754  094D                     __ptext54:	
 10755 ;; *************** function _EXIT_init *****************
 10756 ;; Defined at:
 10757 ;;		line 22 in file "../Projects/src/EXIT_FUN.c"
 10758 ;; Parameters:    Size  Location     Type
 10759 ;;		None
 10760 ;; Auto vars:     Size  Location     Type
 10761 ;;		None
 10762 ;; Return value:  Size  Location     Type
 10763 ;;                  1    wreg      void 
 10764 ;; Registers used:
 10765 ;;		wreg, status,2
 10766 ;; Tracked objects:
 10767 ;;		On entry : 0/0
 10768 ;;		On exit  : 0/0
 10769 ;;		Unchanged: 0/0
 10770 ;; Data sizes:     COMMON   BANK0   BANK1   BANK2   BANK3   BANK4   BANK5   BANK6   BANK7   BANK8   BANK9  BANK10  BANK1
      +1  BANK12
 10771 ;;      Params:         0       0       0       0       0       0       0       0       0       0       0       0       
      +0       0
 10772 ;;      Locals:         0       0       0       0       0       0       0       0       0       0       0       0       
      +0       0
 10773 ;;      Temps:          0       0       0       0       0       0       0       0       0       0       0       0       
      +0       0
 10774 ;;      Totals:         0       0       0       0       0       0       0       0       0       0       0       0       
      +0       0
 10775 ;;Total ram usage:        0 bytes
 10776 ;; Hardware stack levels used:    1
 10777 ;; Hardware stack levels required when called:    2
 10778 ;; This function calls:
 10779 ;;		Nothing
 10780 ;; This function is called by:
 10781 ;;		_main
 10782 ;; This function uses a non-reentrant model
 10783 ;;
 10784                           
 10785                           
 10786                           ;psect for function _EXIT_init
 10787  094D                     _EXIT_init:
 10788  094D                     l4350:	
 10789                           ;incstack = 0
 10790                           ; Regs used in _EXIT_init: [wreg+status,2]
 10791                           
 10792                           
 10793                           ;../Projects/src/EXIT_FUN.c: 23:   IOCAP=0b00000000;
 10794  094D  0027               	movlb	7	; select bank7
 10795  094E  0191               	clrf	17	;volatile
 10796  094F                     l4352:
 10797                           
 10798                           ;../Projects/src/EXIT_FUN.c: 24:   IOCAN=0b00000100;
 10799  094F  3004               	movlw	4
 10800  0950  0092               	movwf	18	;volatile
 10801  0951                     l4354:
 10802                           
 10803                           ;../Projects/src/EXIT_FUN.c: 25:   IOCIE=1;
 10804  0951  158B               	bsf	11,3	;volatile
 10805  0952                     l43:	
 10806                           ;../Projects/src/EXIT_FUN.c: 26:   while(!FVRRDY);
 10807                           
 10808  0952  0022               	movlb	2	; select bank2
 10809  0953  1F17               	btfss	23,6	;volatile
 10810  0954  2956               	goto	u2001
 10811  0955  2957               	goto	u2000
 10812  0956                     u2001:
 10813  0956  2952               	goto	l43
 10814  0957                     u2000:
 10815  0957                     l46:
 10816  0957  0008               	return
 10817  0958                     __end_of_EXIT_init:
 10818                           
 10819                           	psect	text55
 10820  0C06                     __ptext55:	
 10821 ;; *************** function _AD_control *****************
 10822 ;; Defined at:
 10823 ;;		line 42 in file "../Projects/src/ad.c"
 10824 ;; Parameters:    Size  Location     Type
 10825 ;;		None
 10826 ;; Auto vars:     Size  Location     Type
 10827 ;;		None
 10828 ;; Return value:  Size  Location     Type
 10829 ;;                  1    wreg      void 
 10830 ;; Registers used:
 10831 ;;		wreg, status,2, status,0
 10832 ;; Tracked objects:
 10833 ;;		On entry : 0/0
 10834 ;;		On exit  : 0/0
 10835 ;;		Unchanged: 0/0
 10836 ;; Data sizes:     COMMON   BANK0   BANK1   BANK2   BANK3   BANK4   BANK5   BANK6   BANK7   BANK8   BANK9  BANK10  BANK1
      +1  BANK12
 10837 ;;      Params:         0       0       0       0       0       0       0       0       0       0       0       0       
      +0       0
 10838 ;;      Locals:         0       0       0       0       0       0       0       0       0       0       0       0       
      +0       0
 10839 ;;      Temps:          1       0       0       0       0       0       0       0       0       0       0       0       
      +0       0
 10840 ;;      Totals:         1       0       0       0       0       0       0       0       0       0       0       0       
      +0       0
 10841 ;;Total ram usage:        1 bytes
 10842 ;; Hardware stack levels used:    1
 10843 ;; Hardware stack levels required when called:    2
 10844 ;; This function calls:
 10845 ;;		Nothing
 10846 ;; This function is called by:
 10847 ;;		_main
 10848 ;; This function uses a non-reentrant model
 10849 ;;
 10850                           
 10851                           
 10852                           ;psect for function _AD_control
 10853  0C06                     _AD_control:
 10854  0C06                     l4400:	
 10855                           ;incstack = 0
 10856                           ; Regs used in _AD_control: [wreg+status,2+status,0]
 10857                           
 10858                           
 10859                           ;../Projects/src/ad.c: 43:       if(TIME_power_on_AD)
 10860  0C06  0021               	movlb	1	; select bank1
 10861  0C07  0842               	movf	_TIME_power_on_AD^(0+128),w
 10862  0C08  0443               	iorwf	(_TIME_power_on_AD+1)^(0+128),w
 10863  0C09  1903               	btfsc	3,2
 10864  0C0A  2C0C               	goto	u2081
 10865  0C0B  2C0D               	goto	u2080
 10866  0C0C                     u2081:
 10867  0C0C  2C43               	goto	l130
 10868  0C0D                     u2080:
 10869  0C0D                     l4402:
 10870                           
 10871                           ;../Projects/src/ad.c: 44:       {;../Projects/src/ad.c: 45:           if(BAT_Voltage_va
      +                          lue>2400)BAT_out=0;
 10872  0C0D  0823               	movf	(_BAT_Voltage_value+3)^(0+128),w
 10873  0C0E  1D03               	btfss	3,2
 10874  0C0F  2C1B               	goto	u2090
 10875  0C10  0822               	movf	(_BAT_Voltage_value+2)^(0+128),w
 10876  0C11  1D03               	btfss	3,2
 10877  0C12  2C1B               	goto	u2090
 10878  0C13  3061               	movlw	97
 10879  0C14  0220               	subwf	_BAT_Voltage_value^(0+128),w
 10880  0C15  3009               	movlw	9
 10881  0C16  3B21               	subwfb	(_BAT_Voltage_value+1)^(0+128),w
 10882  0C17  1C03               	btfss	3,0
 10883  0C18  2C1A               	goto	u2091
 10884  0C19  2C1B               	goto	u2090
 10885  0C1A                     u2091:
 10886  0C1A  2C1E               	goto	l4406
 10887  0C1B                     u2090:
 10888  0C1B                     l4404:
 10889  0C1B  0020               	movlb	0	; select bank0
 10890  0C1C  01C8               	clrf	_BAT_out
 10891  0C1D  2C43               	goto	l130
 10892  0C1E                     l4406:
 10893  0C1E  0823               	movf	(_BAT_Voltage_value+3)^(0+128),w
 10894  0C1F  1D03               	btfss	3,2
 10895  0C20  2C2B               	goto	u2101
 10896  0C21  0822               	movf	(_BAT_Voltage_value+2)^(0+128),w
 10897  0C22  1D03               	btfss	3,2
 10898  0C23  2C2B               	goto	u2101
 10899  0C24  3061               	movlw	97
 10900  0C25  0220               	subwf	_BAT_Voltage_value^(0+128),w
 10901  0C26  3009               	movlw	9
 10902  0C27  3B21               	subwfb	(_BAT_Voltage_value+1)^(0+128),w
 10903  0C28  1803               	btfsc	3,0
 10904  0C29  2C2B               	goto	u2101
 10905  0C2A  2C2C               	goto	u2100
 10906  0C2B                     u2101:
 10907  0C2B  2C3E               	goto	l4412
 10908  0C2C                     u2100:
 10909  0C2C                     l4408:
 10910  0C2C  0823               	movf	(_BAT_Voltage_value+3)^(0+128),w
 10911  0C2D  1D03               	btfss	3,2
 10912  0C2E  2C3A               	goto	u2110
 10913  0C2F  0822               	movf	(_BAT_Voltage_value+2)^(0+128),w
 10914  0C30  1D03               	btfss	3,2
 10915  0C31  2C3A               	goto	u2110
 10916  0C32  3099               	movlw	153
 10917  0C33  0220               	subwf	_BAT_Voltage_value^(0+128),w
 10918  0C34  3008               	movlw	8
 10919  0C35  3B21               	subwfb	(_BAT_Voltage_value+1)^(0+128),w
 10920  0C36  1C03               	btfss	3,0
 10921  0C37  2C39               	goto	u2111
 10922  0C38  2C3A               	goto	u2110
 10923  0C39                     u2111:
 10924  0C39  2C3E               	goto	l4412
 10925  0C3A                     u2110:
 10926  0C3A                     l4410:
 10927  0C3A  0020               	movlb	0	; select bank0
 10928  0C3B  01C8               	clrf	_BAT_out
 10929  0C3C  0AC8               	incf	_BAT_out,f
 10930  0C3D  2C43               	goto	l130
 10931  0C3E                     l4412:
 10932  0C3E  3002               	movlw	2
 10933  0C3F  00F3               	movwf	??_AD_control
 10934  0C40  0873               	movf	??_AD_control,w
 10935  0C41  0020               	movlb	0	; select bank0
 10936  0C42  00C8               	movwf	_BAT_out
 10937  0C43                     l130:
 10938  0C43  0008               	return
 10939  0C44                     __end_of_AD_control:
 10940                           
 10941                           	psect	intentry
 10942  0004                     __pintentry:	
 10943 ;; *************** function _ISR *****************
 10944 ;; Defined at:
 10945 ;;		line 118 in file "../Projects/src/main.c"
 10946 ;; Parameters:    Size  Location     Type
 10947 ;;		None
 10948 ;; Auto vars:     Size  Location     Type
 10949 ;;		None
 10950 ;; Return value:  Size  Location     Type
 10951 ;;                  1    wreg      void 
 10952 ;; Registers used:
 10953 ;;		wreg, fsr1l, fsr1h, status,2, status,0, pclath, cstack
 10954 ;; Tracked objects:
 10955 ;;		On entry : 0/0
 10956 ;;		On exit  : 0/0
 10957 ;;		Unchanged: 0/0
 10958 ;; Data sizes:     COMMON   BANK0   BANK1   BANK2   BANK3   BANK4   BANK5   BANK6   BANK7   BANK8   BANK9  BANK10  BANK1
      +1  BANK12
 10959 ;;      Params:         0       0       0       0       0       0       0       0       0       0       0       0       
      +0       0
 10960 ;;      Locals:         0       0       0       0       0       0       0       0       0       0       0       0       
      +0       0
 10961 ;;      Temps:          0       0       0       0       0       0       0       0       0       0       0       0       
      +0       0
 10962 ;;      Totals:         0       0       0       0       0       0       0       0       0       0       0       0       
      +0       0
 10963 ;;Total ram usage:        0 bytes
 10964 ;; Hardware stack levels used:    1
 10965 ;; Hardware stack levels required when called:    1
 10966 ;; This function calls:
 10967 ;;		_EXTI_PORTA1
 10968 ;; This function is called by:
 10969 ;;		Interrupt level 1
 10970 ;; This function uses a non-reentrant model
 10971 ;;
 10972                           
 10973  0004                     _ISR:
 10974                           
 10975                           ;incstack = 0
 10976  0004  147E               	bsf	int$flags,0	;set compiler interrupt flag (level 1)
 10977                           
 10978                           ; Regs used in _ISR: [wreg+fsr1l+fsr1h+status,2+status,0+pclath+cstack]
 10979  0005  3180               	pagesel	$
 10980  0006                     i1l4764:
 10981  0006  138B               	bcf	11,7	;volatile
 10982  0007  1C0B               	btfss	11,0	;volatile
 10983  0008  280A               	goto	u261_21
 10984  0009  280B               	goto	u261_20
 10985  000A                     u261_21:
 10986  000A  2811               	goto	i1l4772
 10987  000B                     u261_20:
 10988  000B                     i1l4766:
 10989  000B  318C  24D5  3180   	fcall	_EXTI_PORTA1
 10990  000E                     i1l4768:
 10991  000E  0027               	movlb	7	; select bank7
 10992  000F  0193               	clrf	19	;volatile
 10993  0010                     i1l4770:
 10994  0010  100B               	bcf	11,0	;volatile
 10995  0011                     i1l4772:
 10996  0011  0020               	movlb	0	; select bank0
 10997  0012  1C91               	btfss	17,1	;volatile
 10998  0013  2815               	goto	u262_21
 10999  0014  2816               	goto	u262_20
 11000  0015                     u262_21:
 11001  0015  2819               	goto	i1l930
 11002  0016                     u262_20:
 11003  0016                     i1l4774:
 11004  0016  01CA               	clrf	_FG_1ms
 11005  0017  0ACA               	incf	_FG_1ms,f
 11006  0018  1091               	bcf	17,1	;volatile
 11007  0019                     i1l930:
 11008  0019  178B               	bsf	11,7	;volatile
 11009  001A                     i1l931:
 11010  001A  107E               	bcf	int$flags,0	;clear compiler interrupt flag (level 1)
 11011  001B  0009               	retfie
 11012  001C                     __end_of_ISR:
 11013                           
 11014                           	psect	text57
 11015  0CD5                     __ptext57:	
 11016 ;; *************** function _EXTI_PORTA1 *****************
 11017 ;; Defined at:
 11018 ;;		line 29 in file "../Projects/src/EXIT_FUN.c"
 11019 ;; Parameters:    Size  Location     Type
 11020 ;;		None
 11021 ;; Auto vars:     Size  Location     Type
 11022 ;;		None
 11023 ;; Return value:  Size  Location     Type
 11024 ;;                  1    wreg      void 
 11025 ;; Registers used:
 11026 ;;		wreg, fsr1l, fsr1h, status,2, status,0
 11027 ;; Tracked objects:
 11028 ;;		On entry : 0/0
 11029 ;;		On exit  : 0/0
 11030 ;;		Unchanged: 0/0
 11031 ;; Data sizes:     COMMON   BANK0   BANK1   BANK2   BANK3   BANK4   BANK5   BANK6   BANK7   BANK8   BANK9  BANK10  BANK1
      +1  BANK12
 11032 ;;      Params:         0       0       0       0       0       0       0       0       0       0       0       0       
      +0       0
 11033 ;;      Locals:         0       0       0       0       0       0       0       0       0       0       0       0       
      +0       0
 11034 ;;      Temps:          3       0       0       0       0       0       0       0       0       0       0       0       
      +0       0
 11035 ;;      Totals:         3       0       0       0       0       0       0       0       0       0       0       0       
      +0       0
 11036 ;;Total ram usage:        3 bytes
 11037 ;; Hardware stack levels used:    1
 11038 ;; This function calls:
 11039 ;;		Nothing
 11040 ;; This function is called by:
 11041 ;;		_ISR
 11042 ;; This function uses a non-reentrant model
 11043 ;;
 11044                           
 11045                           
 11046                           ;psect for function _EXTI_PORTA1
 11047  0CD5                     _EXTI_PORTA1:
 11048  0CD5                     i1l4356:	
 11049                           ;incstack = 0
 11050                           ; Regs used in _EXTI_PORTA1: [wreg+fsr1l+fsr1h+status,2+status,0]
 11051                           
 11052                           
 11053                           ;../Projects/src/EXIT_FUN.c: 31:   RC0=FLAG_ADF7021_DATA_tx;
 11054  0CD5  0020               	movlb	0	; select bank0
 11055  0CD6  1850               	btfsc	_FLAG_ADF7021_DATA_tx,0
 11056  0CD7  2CD9               	goto	u201_21
 11057  0CD8  2CDC               	goto	u201_20
 11058  0CD9                     u201_21:
 11059  0CD9  0020               	movlb	0	; select bank0
 11060  0CDA  140E               	bsf	14,0	;volatile
 11061  0CDB  2CDE               	goto	u202_24
 11062  0CDC                     u201_20:
 11063  0CDC  0020               	movlb	0	; select bank0
 11064  0CDD  100E               	bcf	14,0	;volatile
 11065  0CDE                     u202_24:
 11066  0CDE                     i1l4358:
 11067                           
 11068                           ;../Projects/src/EXIT_FUN.c: 32:   if(FLAG_APP_TX==1){
 11069  0CDE  034F               	decf	_FLAG_APP_TX,w
 11070  0CDF  1D03               	btfss	3,2
 11071  0CE0  2CE2               	goto	u203_21
 11072  0CE1  2CE3               	goto	u203_20
 11073  0CE2                     u203_21:
 11074  0CE2  2D2E               	goto	i1l55
 11075  0CE3                     u203_20:
 11076  0CE3                     i1l4360:
 11077                           
 11078                           ;../Projects/src/EXIT_FUN.c: 33:     if(txphase%8==0)ID_INT_CODE=m_RFNormalBuf[txphase/8
      +                          ];
 11079  0CE3  3007               	movlw	7
 11080  0CE4  0021               	movlb	1	; select bank1
 11081  0CE5  0548               	andwf	_txphase^(0+128),w
 11082  0CE6  00F0               	movwf	??_EXTI_PORTA1
 11083  0CE7  3000               	movlw	0
 11084  0CE8  0549               	andwf	(_txphase+1)^(0+128),w
 11085  0CE9  00F1               	movwf	??_EXTI_PORTA1+1
 11086  0CEA  0870               	movf	??_EXTI_PORTA1,w
 11087  0CEB  0471               	iorwf	??_EXTI_PORTA1+1,w
 11088  0CEC  1D03               	btfss	3,2
 11089  0CED  2CEF               	goto	u204_21
 11090  0CEE  2CF0               	goto	u204_20
 11091  0CEF                     u204_21:
 11092  0CEF  2D04               	goto	i1l4364
 11093  0CF0                     u204_20:
 11094  0CF0                     i1l4362:
 11095  0CF0  0849               	movf	(_txphase+1)^(0+128),w
 11096  0CF1  00F1               	movwf	??_EXTI_PORTA1+1
 11097  0CF2  0848               	movf	_txphase^(0+128),w
 11098  0CF3  00F0               	movwf	??_EXTI_PORTA1
 11099  0CF4  36F1               	lsrf	??_EXTI_PORTA1+1,f
 11100  0CF5  0CF0               	rrf	??_EXTI_PORTA1,f
 11101  0CF6  36F1               	lsrf	??_EXTI_PORTA1+1,f
 11102  0CF7  0CF0               	rrf	??_EXTI_PORTA1,f
 11103  0CF8  36F1               	lsrf	??_EXTI_PORTA1+1,f
 11104  0CF9  0CF0               	rrf	??_EXTI_PORTA1,f
 11105  0CFA  0870               	movf	??_EXTI_PORTA1,w
 11106  0CFB  3EA0               	addlw	(low (_m_RFNormalBuf| (0+256)))& (0+255)
 11107  0CFC  0086               	movwf	6
 11108  0CFD  3001               	movlw	1	; select bank3/4
 11109  0CFE  0087               	movwf	7
 11110  0CFF  0801               	movf	1,w
 11111  0D00  00F2               	movwf	??_EXTI_PORTA1+2
 11112  0D01  0872               	movf	??_EXTI_PORTA1+2,w
 11113  0D02  0020               	movlb	0	; select bank0
 11114  0D03  00CE               	movwf	_ID_INT_CODE
 11115  0D04                     i1l4364:
 11116                           
 11117                           ;../Projects/src/EXIT_FUN.c: 34:     if (ID_INT_CODE & 0x80)FLAG_ADF7021_DATA_tx=1;
 11118  0D04  0020               	movlb	0	; select bank0
 11119  0D05  1FCE               	btfss	_ID_INT_CODE,7
 11120  0D06  2D08               	goto	u205_21
 11121  0D07  2D09               	goto	u205_20
 11122  0D08                     u205_21:
 11123  0D08  2D0C               	goto	i1l4368
 11124  0D09                     u205_20:
 11125  0D09                     i1l4366:
 11126  0D09  01D0               	clrf	_FLAG_ADF7021_DATA_tx
 11127  0D0A  0AD0               	incf	_FLAG_ADF7021_DATA_tx,f
 11128  0D0B  2D0D               	goto	i1l4370
 11129  0D0C                     i1l4368:
 11130  0D0C  01D0               	clrf	_FLAG_ADF7021_DATA_tx
 11131  0D0D                     i1l4370:
 11132                           
 11133                           ;../Projects/src/EXIT_FUN.c: 36:     ID_INT_CODE<<=1;
 11134  0D0D  1003               	clrc
 11135  0D0E  0DCE               	rlf	_ID_INT_CODE,f
 11136  0D0F                     i1l4372:
 11137                           
 11138                           ;../Projects/src/EXIT_FUN.c: 37:     txphase++;
 11139  0D0F  3001               	movlw	1
 11140  0D10  0021               	movlb	1	; select bank1
 11141  0D11  07C8               	addwf	_txphase^(0+128),f
 11142  0D12  3000               	movlw	0
 11143  0D13  3DC9               	addwfc	(_txphase+1)^(0+128),f
 11144  0D14                     i1l4374:
 11145                           
 11146                           ;../Projects/src/EXIT_FUN.c: 39:         if(txphase>=txphase_end){
 11147  0D14  0847               	movf	(_txphase_end+1)^(0+128),w
 11148  0D15  0249               	subwf	(_txphase+1)^(0+128),w
 11149  0D16  1D03               	skipz
 11150  0D17  2D1A               	goto	u206_25
 11151  0D18  0846               	movf	_txphase_end^(0+128),w
 11152  0D19  0248               	subwf	_txphase^(0+128),w
 11153  0D1A                     u206_25:
 11154  0D1A  1C03               	skipc
 11155  0D1B  2D1D               	goto	u206_21
 11156  0D1C  2D1E               	goto	u206_20
 11157  0D1D                     u206_21:
 11158  0D1D  2D2E               	goto	i1l55
 11159  0D1E                     u206_20:
 11160  0D1E                     i1l4376:
 11161                           
 11162                           ;../Projects/src/EXIT_FUN.c: 40:         txphase=0;
 11163  0D1E  01C8               	clrf	_txphase^(0+128)
 11164  0D1F  01C9               	clrf	(_txphase+1)^(0+128)
 11165  0D20                     i1l4378:
 11166                           
 11167                           ;../Projects/src/EXIT_FUN.c: 41:         txphase_Repeat++;
 11168  0D20  3001               	movlw	1
 11169  0D21  00F0               	movwf	??_EXTI_PORTA1
 11170  0D22  0870               	movf	??_EXTI_PORTA1,w
 11171  0D23  0020               	movlb	0	; select bank0
 11172  0D24  07CD               	addwf	_txphase_Repeat,f
 11173  0D25                     i1l4380:
 11174                           
 11175                           ;../Projects/src/EXIT_FUN.c: 43:  if(txphase_Repeat>=1){FLAG_APP_TX=0;RB5=0;RC2=0;RC0=0;
      +                          }
 11176  0D25  084D               	movf	_txphase_Repeat,w
 11177  0D26  1903               	btfsc	3,2
 11178  0D27  2D29               	goto	u207_21
 11179  0D28  2D2A               	goto	u207_20
 11180  0D29                     u207_21:
 11181  0D29  2D2E               	goto	i1l55
 11182  0D2A                     u207_20:
 11183  0D2A                     i1l4382:
 11184  0D2A  01CF               	clrf	_FLAG_APP_TX
 11185  0D2B                     i1l4384:
 11186  0D2B  128D               	bcf	13,5	;volatile
 11187  0D2C                     i1l4386:
 11188  0D2C  110E               	bcf	14,2	;volatile
 11189  0D2D                     i1l4388:
 11190  0D2D  100E               	bcf	14,0	;volatile
 11191  0D2E                     i1l55:
 11192  0D2E  0008               	return
 11193  0D2F                     __end_of_EXTI_PORTA1:
 11194  007E                     btemp	set	126	;btemp
 11195  007E                     int$flags	set	126
 11196  007E                     wtemp0	set	126
 11197                           
 11198                           	psect	config
 11199                           
 11200                           ;Config register CONFIG1 @ 0x8007
 11201                           ;	Oscillator Selection
 11202                           ;	FOSC = INTOSC, INTOSC oscillator: I/O function on CLKIN pin
 11203                           ;	Watchdog Timer Enable
 11204                           ;	WDTE = OFF, WDT disabled
 11205                           ;	Power-up Timer Enable
 11206                           ;	PWRTE = ON, PWRT enabled
 11207                           ;	MCLR Pin Function Select
 11208                           ;	MCLRE = OFF, MCLR/VPP pin function is digital input
 11209                           ;	Flash Program Memory Code Protection
 11210                           ;	CP = OFF, Program memory code protection is disabled
 11211                           ;	Data Memory Code Protection
 11212                           ;	CPD = OFF, Data memory code protection is disabled
 11213                           ;	Brown-out Reset Enable
 11214                           ;	BOREN = OFF, Brown-out Reset disabled
 11215                           ;	Clock Out Enable
 11216                           ;	CLKOUTEN = OFF, CLKOUT function is disabled. I/O or oscillator function on the CLKOUT 
      +                          pin
 11217                           ;	Internal/External Switchover
 11218                           ;	IESO = OFF, Internal/External Switchover mode is disabled
 11219                           ;	Fail-Safe Clock Monitor Enable
 11220                           ;	FCMEN = OFF, Fail-Safe Clock Monitor is disabled
 11221  8007                     	org	32775
 11222  8007  0984               	dw	2436
 11223                           
 11224                           ;Config register CONFIG2 @ 0x8008
 11225                           ;	Flash Memory Self-Write Protection
 11226                           ;	WRT = OFF, Write protection off
 11227                           ;	PLL Enable
 11228                           ;	PLLEN = OFF, 4x PLL disabled
 11229                           ;	Stack Overflow/Underflow Reset Enable
 11230                           ;	STVREN = OFF, Stack Overflow or Underflow will not cause a Reset
 11231                           ;	Brown-out Reset Voltage Selection
 11232                           ;	BORV = LO, Brown-out Reset Voltage (Vbor), low trip point selected.
 11233                           ;	Low-Voltage Programming Enable
 11234                           ;	LVP = OFF, High-voltage on MCLR/VPP must be used for programming
 11235  8008                     	org	32776
 11236  8008  1CFF               	dw	7423

Data Sizes:
    Strings     0
    Constant    33
    Data        0
    BSS         208
    Persistent  32
    Stack       0

Auto Spaces:
    Space          Size  Autos    Used
    COMMON           14     10      11
    BANK0            80     31      80
    BANK1            80      0      77
    BANK2            80      0      41
    BANK3            80      0      40
    BANK4            80      0       0
    BANK5            80      0       0
    BANK6            80      0       0
    BANK7            80      0       0
    BANK8            80      0       0
    BANK9            80      0       0
    BANK10           80      0       0
    BANK11           80      0       0
    BANK12           48      0       0

Pointer List with Targets:

    atol_de@m_RegID_x	PTR unsigned char  size(1) Largest target is 9
		 -> m_RegID(BANK2[9]), 

    dd_write_7021_reg@reg_bytes	PTR unsigned char  size(1) Largest target is 16
		 -> dd_set_TX_mode@register_value(BANK0[4]), ROM_adf7012_value(BANK1[16]), dd_set_ADF7021_Power_on_Init@register_value(BANK0[4]), 


Critical Paths under _main in COMMON

    _main->_eeprom_sys_load
    _dd_set_ADF7021_Power_on_test->_Delayus
    _key_check->__DupliFuncSetMode
    _atol_de->___lmul
    _dd_set_ADF7021_Power_on_Init->_dd_write_7021_reg
    __FuncReg->__SetRegistrationMode
    __SetRegistrationMode->__ReqBuzzer
    _dd_set_TX_mode->_dd_write_7021_reg
    _SetTxData->_SetFixedLengthCode
    __DupliFuncSetMode->_KeyOpt_EEPROM_write
    _KeyOpt_EEPROM_write->_WriteByteToFLASH

Critical Paths under _ISR in COMMON

    _ISR->_EXTI_PORTA1

Critical Paths under _main in BANK0

    _main->_key_check
    _test_mode_control->_dd_set_TX_mode
    _key_check->__KeyInTx
    __RegistrationMode->__ReqTxdEdit
    __RegistrationMode->_atol_de
    _atol_de->___lmul
    __KeyInTx->__FuncCloseReg
    __KeyInTx->__FuncOpenReg
    __KeyInTx->__FuncStop
    __KeyInTx->__FuncStopReg
    __KeyInTx->__FuncVentReg
    __FuncVentReg->__Pass3secKey
    __FuncStopReg->__Pass3secKey
    __FuncStop->__ReqTxdEdit
    __FuncOpenStop->__ReqTxdEdit
    __FuncOpenReg->__Pass3secKey
    __FuncCloseReg->__Pass3secKey
    __Pass3secKey->__ReqTxdEdit
    __ReqTxdEdit->_SendTxData
    _SendTxData->_SetTxData

Critical Paths under _ISR in BANK0

    None.

Critical Paths under _main in BANK1

    None.

Critical Paths under _ISR in BANK1

    None.

Critical Paths under _main in BANK2

    None.

Critical Paths under _ISR in BANK2

    None.

Critical Paths under _main in BANK3

    None.

Critical Paths under _ISR in BANK3

    None.

Critical Paths under _main in BANK4

    None.

Critical Paths under _ISR in BANK4

    None.

Critical Paths under _main in BANK5

    None.

Critical Paths under _ISR in BANK5

    None.

Critical Paths under _main in BANK6

    None.

Critical Paths under _ISR in BANK6

    None.

Critical Paths under _main in BANK7

    None.

Critical Paths under _ISR in BANK7

    None.

Critical Paths under _main in BANK8

    None.

Critical Paths under _ISR in BANK8

    None.

Critical Paths under _main in BANK9

    None.

Critical Paths under _ISR in BANK9

    None.

Critical Paths under _main in BANK10

    None.

Critical Paths under _ISR in BANK10

    None.

Critical Paths under _main in BANK11

    None.

Critical Paths under _ISR in BANK11

    None.

Critical Paths under _main in BANK12

    None.

Critical Paths under _ISR in BANK12

    None.

Call Graph Tables:

 ---------------------------------------------------------------------------------
 (Depth) Function   	        Calls       Base Space   Used Autos Params    Refs
 ---------------------------------------------------------------------------------
 (0) _main                                                 2     2      0   77161
                                             29 BANK0      2     2      0
                         _AD_control
                           _ClearWDT
                            _Delayus
                          _EXIT_init
                    _InitialFlashReg
                   _START_AD_SAMPLER
                      _SysClock_Init
                          _TIM4_Init
                         _UART1_INIT
                      _VHF_GPIO_INIT
                           _WDT_init
                          __Init_RAM
                    _eeprom_sys_load
                          _key_check
                  _test_mode_control
                       _time_control
 ---------------------------------------------------------------------------------
 (1) _time_control                                         0     0      0       0
 ---------------------------------------------------------------------------------
 (1) _test_mode_control                                    0     0      0    1057
                           _ClearWDT
                          _UART1_end
       _dd_set_ADF7021_Power_on_test
                     _dd_set_TX_mode
 ---------------------------------------------------------------------------------
 (2) _dd_set_ADF7021_Power_on_test                         0     0      0      68
                            _Delayus
 ---------------------------------------------------------------------------------
 (2) _UART1_end                                            0     0      0       0
 ---------------------------------------------------------------------------------
 (1) _key_check                                            1     1      0   75835
                                             28 BANK0      1     1      0
                           _ClearWDT
                  __DupliFuncSetMode
                           __KeyInTx
                  __RegistrationMode
 ---------------------------------------------------------------------------------
 (2) __RegistrationMode                                    2     2      0   12698
                                             23 BANK0      2     2      0
                        __GetRegMode
                           __IdClear
                         __ReqBuzzer
                        __ReqTxdEdit
                            _atol_de
 ---------------------------------------------------------------------------------
 (3) _atol_de                                             15    11      4     634
                                              8 BANK0     15    11      4
                             ___lmul
 ---------------------------------------------------------------------------------
 (4) ___lmul                                              12     4      8     316
                                              3 COMMON     4     4      0
                                              0 BANK0      8     0      8
 ---------------------------------------------------------------------------------
 (2) __KeyInTx                                             3     3      0   57641
                                             25 BANK0      3     3      0
         __ClearSpecialMultiKeyState
                    __DupliFuncClear
                   __FuncAutoTxStart
                    __FuncAutoTxStop
                      __FuncCloseReg
                        __FuncNoPush
                       __FuncOpenReg
                      __FuncOpenStop
                           __FuncReg
                          __FuncStop
                       __FuncStopReg
                       __FuncVentReg
                __SetKeyChatterCount
                              __SwIn
       _dd_set_ADF7021_Power_on_Init
 ---------------------------------------------------------------------------------
 (3) _dd_set_ADF7021_Power_on_Init                         4     4      0     819
                                              0 BANK0      4     4      0
                  _dd_write_7021_reg
 ---------------------------------------------------------------------------------
 (3) __SwIn                                                1     1      0      22
                                              3 COMMON     1     1      0
 ---------------------------------------------------------------------------------
 (3) __FuncVentReg                                         1     1      0    8085
                                             24 BANK0      1     1      0
                    __DupliFuncClear
                       __Pass3secKey
 ---------------------------------------------------------------------------------
 (3) __FuncStopReg                                         1     1      0    8085
                                             24 BANK0      1     1      0
                    __DupliFuncClear
                       __Pass3secKey
 ---------------------------------------------------------------------------------
 (3) __FuncStop                                            2     2      0   11996
                                             23 BANK0      2     2      0
                    __DupliFuncClear
                    __GetNoPushState
                         __ReqBuzzer
                        __ReqTxdEdit
 ---------------------------------------------------------------------------------
 (4) __GetNoPushState                                      0     0      0       0
         __ClearSpecialMultiKeyState
 ---------------------------------------------------------------------------------
 (3) __FuncReg                                             1     1      0    4032
                                              0 BANK0      1     1      0
         __ClearSpecialMultiKeyState
                    __DupliFuncClear
               __SetRegistrationMode
 ---------------------------------------------------------------------------------
 (4) __SetRegistrationMode                                 2     2      0    4032
                                              8 COMMON     2     2      0
                        __GetRegMode
                           __IdClear
                         __ReqBuzzer
 ---------------------------------------------------------------------------------
 (3) __IdClear                                             2     2      0      68
                                              3 COMMON     2     2      0
 ---------------------------------------------------------------------------------
 (3) __GetRegMode                                          0     0      0       0
 ---------------------------------------------------------------------------------
 (3) __FuncOpenStop                                        1     1      0    8054
                                             23 BANK0      1     1      0
         __ClearSpecialMultiKeyState
                    __DupliFuncClear
                        __ReqTxdEdit
 ---------------------------------------------------------------------------------
 (3) __FuncOpenReg                                         1     1      0    8085
                                             24 BANK0      1     1      0
                    __DupliFuncClear
                       __Pass3secKey
 ---------------------------------------------------------------------------------
 (3) __FuncNoPush                                          1     1      0       0
                                              3 COMMON     1     1      0
         __ClearSpecialMultiKeyState
 ---------------------------------------------------------------------------------
 (3) __FuncCloseReg                                        1     1      0    8085
                                             24 BANK0      1     1      0
                    __DupliFuncClear
                       __Pass3secKey
 ---------------------------------------------------------------------------------
 (4) __Pass3secKey                                         1     1      0    8085
                                             23 BANK0      1     1      0
                        __ReqTxdEdit
 ---------------------------------------------------------------------------------
 (3) __ReqTxdEdit                                          6     5      1    8054
                                             17 BANK0      6     5      1
                         _SendTxData
                         __ReqBuzzer
            _dd_set_ADF7021_Power_on
                     _dd_set_TX_mode
 ---------------------------------------------------------------------------------
 (2) _dd_set_TX_mode                                       4     4      0     989
                                              0 BANK0      4     4      0
                            _Delayus
                  _dd_write_7021_reg
 ---------------------------------------------------------------------------------
 (3) _dd_write_7021_reg                                    6     6      0     782
                                              3 COMMON     6     6      0
 ---------------------------------------------------------------------------------
 (3) _Delayus                                              3     3      0      68
                                              3 COMMON     3     3      0
 ---------------------------------------------------------------------------------
 (4) _dd_set_ADF7021_Power_on                              0     0      0       0
 ---------------------------------------------------------------------------------
 (4) _SendTxData                                           4     4      0    2487
                                             13 BANK0      4     4      0
                          _SetTxData
 ---------------------------------------------------------------------------------
 (5) _SetTxData                                           13     8      5    2106
                                              0 BANK0     13     8      5
                 _SetFixedLengthCode
 ---------------------------------------------------------------------------------
 (6) _SetFixedLengthCode                                   7     5      2      94
                                              3 COMMON     7     5      2
 ---------------------------------------------------------------------------------
 (3) __FuncAutoTxStop                                      0     0      0       0
 ---------------------------------------------------------------------------------
 (3) __FuncAutoTxStart                                     0     0      0       0
 ---------------------------------------------------------------------------------
 (2) __DupliFuncSetMode                                    3     3      0    5496
                                              9 COMMON     1     1      0
                                              0 BANK0      2     2      0
                _KeyOpt_EEPROM_write
                    __DupliFuncClear
                         __ReqBuzzer
 ---------------------------------------------------------------------------------
 (4) __ReqBuzzer                                           5     1      4    3942
                                              3 COMMON     5     1      4
 ---------------------------------------------------------------------------------
 (4) __DupliFuncClear                                      1     1      0       0
                                              3 COMMON     1     1      0
 ---------------------------------------------------------------------------------
 (3) _KeyOpt_EEPROM_write                                  1     1      0    1412
                                              8 COMMON     1     1      0
                          _LockFlash
                        _UnlockFlash
                   _WriteByteToFLASH
 ---------------------------------------------------------------------------------
 (4) _WriteByteToFLASH                                     5     0      5    1412
                                              3 COMMON     5     0      5
 ---------------------------------------------------------------------------------
 (4) _UnlockFlash                                          1     1      0       0
 ---------------------------------------------------------------------------------
 (4) _LockFlash                                            1     1      0       0
 ---------------------------------------------------------------------------------
 (2) _ClearWDT                                             0     0      0       0
 ---------------------------------------------------------------------------------
 (1) _eeprom_sys_load                                      9     9      0     130
                                              3 COMMON     7     7      0
                                              0 BANK0      1     1      0
 ---------------------------------------------------------------------------------
 (1) __Init_RAM                                            1     1      0       0
                                              3 COMMON     1     1      0
         __ClearSpecialMultiKeyState
                __SetKeyChatterCount
 ---------------------------------------------------------------------------------
 (3) __SetKeyChatterCount                                  0     0      0       0
 ---------------------------------------------------------------------------------
 (5) __ClearSpecialMultiKeyState                           0     0      0       0
 ---------------------------------------------------------------------------------
 (1) _WDT_init                                             0     0      0       0
 ---------------------------------------------------------------------------------
 (1) _VHF_GPIO_INIT                                        0     0      0       0
 ---------------------------------------------------------------------------------
 (1) _UART1_INIT                                           0     0      0       0
 ---------------------------------------------------------------------------------
 (1) _TIM4_Init                                            0     0      0       0
 ---------------------------------------------------------------------------------
 (1) _SysClock_Init                                        0     0      0       0
 ---------------------------------------------------------------------------------
 (1) _START_AD_SAMPLER                                     0     0      0       0
 ---------------------------------------------------------------------------------
 (1) _InitialFlashReg                                      0     0      0       0
 ---------------------------------------------------------------------------------
 (1) _EXIT_init                                            0     0      0       0
 ---------------------------------------------------------------------------------
 (1) _AD_control                                           1     1      0       0
                                              3 COMMON     1     1      0
 ---------------------------------------------------------------------------------
 Estimated maximum stack depth 6
 ---------------------------------------------------------------------------------
 (Depth) Function   	        Calls       Base Space   Used Autos Params    Refs
 ---------------------------------------------------------------------------------
 (9) _ISR                                                  0     0      0       0
                        _EXTI_PORTA1
 ---------------------------------------------------------------------------------
 (10) _EXTI_PORTA1                                         3     3      0       0
                                              0 COMMON     3     3      0
 ---------------------------------------------------------------------------------
 Estimated maximum stack depth 10
 ---------------------------------------------------------------------------------

 Call Graph Graphs:

 _main (ROOT)
   _AD_control
   _ClearWDT
   _Delayus
   _EXIT_init
   _InitialFlashReg
   _START_AD_SAMPLER
   _SysClock_Init
   _TIM4_Init
   _UART1_INIT
   _VHF_GPIO_INIT
   _WDT_init
   __Init_RAM
     __ClearSpecialMultiKeyState
     __SetKeyChatterCount
   _eeprom_sys_load
   _key_check
     _ClearWDT
     __DupliFuncSetMode
       _KeyOpt_EEPROM_write
         _LockFlash
         _UnlockFlash
         _WriteByteToFLASH
       __DupliFuncClear
       __ReqBuzzer
     __KeyInTx
       __ClearSpecialMultiKeyState
       __DupliFuncClear
       __FuncAutoTxStart
       __FuncAutoTxStop
       __FuncCloseReg
         __DupliFuncClear
         __Pass3secKey
           __ReqTxdEdit
             _SendTxData
               _SetTxData
                 _SetFixedLengthCode
             __ReqBuzzer
             _dd_set_ADF7021_Power_on
             _dd_set_TX_mode
               _Delayus
               _dd_write_7021_reg
       __FuncNoPush
         __ClearSpecialMultiKeyState
       __FuncOpenReg
         __DupliFuncClear
         __Pass3secKey
           __ReqTxdEdit
             _SendTxData
               _SetTxData
                 _SetFixedLengthCode
             __ReqBuzzer
             _dd_set_ADF7021_Power_on
             _dd_set_TX_mode
               _Delayus
               _dd_write_7021_reg
       __FuncOpenStop
         __ClearSpecialMultiKeyState
         __DupliFuncClear
         __ReqTxdEdit
           _SendTxData
             _SetTxData
               _SetFixedLengthCode
           __ReqBuzzer
           _dd_set_ADF7021_Power_on
           _dd_set_TX_mode
             _Delayus
             _dd_write_7021_reg
       __FuncReg
         __ClearSpecialMultiKeyState
         __DupliFuncClear
         __SetRegistrationMode
           __GetRegMode
           __IdClear
           __ReqBuzzer
       __FuncStop
         __DupliFuncClear
         __GetNoPushState
           __ClearSpecialMultiKeyState
         __ReqBuzzer
         __ReqTxdEdit
           _SendTxData
             _SetTxData
               _SetFixedLengthCode
           __ReqBuzzer
           _dd_set_ADF7021_Power_on
           _dd_set_TX_mode
             _Delayus
             _dd_write_7021_reg
       __FuncStopReg
         __DupliFuncClear
         __Pass3secKey
           __ReqTxdEdit
             _SendTxData
               _SetTxData
                 _SetFixedLengthCode
             __ReqBuzzer
             _dd_set_ADF7021_Power_on
             _dd_set_TX_mode
               _Delayus
               _dd_write_7021_reg
       __FuncVentReg
         __DupliFuncClear
         __Pass3secKey
           __ReqTxdEdit
             _SendTxData
               _SetTxData
                 _SetFixedLengthCode
             __ReqBuzzer
             _dd_set_ADF7021_Power_on
             _dd_set_TX_mode
               _Delayus
               _dd_write_7021_reg
       __SetKeyChatterCount
       __SwIn
       _dd_set_ADF7021_Power_on_Init
         _dd_write_7021_reg
     __RegistrationMode
       __GetRegMode
       __IdClear
       __ReqBuzzer
       __ReqTxdEdit
         _SendTxData
           _SetTxData
             _SetFixedLengthCode
         __ReqBuzzer
         _dd_set_ADF7021_Power_on
         _dd_set_TX_mode
           _Delayus
           _dd_write_7021_reg
       _atol_de
         ___lmul
   _test_mode_control
     _ClearWDT
     _UART1_end
     _dd_set_ADF7021_Power_on_test
       _Delayus
     _dd_set_TX_mode
       _Delayus
       _dd_write_7021_reg
   _time_control

 _ISR (ROOT)
   _EXTI_PORTA1

 Address spaces:
Name               Size   Autos  Total    Cost      Usage
BIGRAM             3F0      0       0       0        0.0%
EEDATA             100      0       0       0        0.0%
NULL                 0      0       0       0        0.0%
CODE                 0      0       0       0        0.0%
BITCOMMON            E      0       0       1        0.0%
BITSFR0              0      0       0       1        0.0%
SFR0                 0      0       0       1        0.0%
COMMON               E      A       B       2       78.6%
BITSFR1              0      0       0       2        0.0%
SFR1                 0      0       0       2        0.0%
BITSFR2              0      0       0       3        0.0%
SFR2                 0      0       0       3        0.0%
STACK                0      0       0       3        0.0%
BITBANK0            50      0       0       4        0.0%
BITSFR3              0      0       0       4        0.0%
SFR3                 0      0       0       4        0.0%
BANK0               50     1F      50       5      100.0%
BITSFR4              0      0       0       5        0.0%
SFR4                 0      0       0       5        0.0%
BITBANK1            50      0       0       6        0.0%
BITSFR5              0      0       0       6        0.0%
SFR5                 0      0       0       6        0.0%
BANK1               50      0      4D       7       96.2%
BITSFR6              0      0       0       7        0.0%
SFR6                 0      0       0       7        0.0%
BITBANK2            50      0       0       8        0.0%
BITSFR7              0      0       0       8        0.0%
SFR7                 0      0       0       8        0.0%
BANK2               50      0      29       9       51.2%
BITSFR8              0      0       0       9        0.0%
SFR8                 0      0       0       9        0.0%
BITBANK3            50      0       0      10        0.0%
BITSFR9              0      0       0      10        0.0%
SFR9                 0      0       0      10        0.0%
BANK3               50      0      28      11       50.0%
BITSFR10             0      0       0      11        0.0%
SFR10                0      0       0      11        0.0%
BITBANK4            50      0       0      12        0.0%
BITSFR11             0      0       0      12        0.0%
SFR11                0      0       0      12        0.0%
BANK4               50      0       0      13        0.0%
BITSFR12             0      0       0      13        0.0%
SFR12                0      0       0      13        0.0%
BITBANK5            50      0       0      14        0.0%
BITSFR13             0      0       0      14        0.0%
SFR13                0      0       0      14        0.0%
BANK5               50      0       0      15        0.0%
BITSFR14             0      0       0      15        0.0%
SFR14                0      0       0      15        0.0%
BITBANK6            50      0       0      16        0.0%
BITSFR15             0      0       0      16        0.0%
SFR15                0      0       0      16        0.0%
BANK6               50      0       0      17        0.0%
BITSFR16             0      0       0      17        0.0%
SFR16                0      0       0      17        0.0%
BITBANK7            50      0       0      18        0.0%
BITSFR17             0      0       0      18        0.0%
SFR17                0      0       0      18        0.0%
BANK7               50      0       0      19        0.0%
BITSFR18             0      0       0      19        0.0%
SFR18                0      0       0      19        0.0%
BITSFR19             0      0       0      20        0.0%
SFR19                0      0       0      20        0.0%
ABS                  0      0      F9      20        0.0%
BITBANK8            50      0       0      21        0.0%
BITSFR20             0      0       0      21        0.0%
SFR20                0      0       0      21        0.0%
BANK8               50      0       0      22        0.0%
BITSFR21             0      0       0      22        0.0%
SFR21                0      0       0      22        0.0%
BITBANK9            50      0       0      23        0.0%
BITSFR22             0      0       0      23        0.0%
SFR22                0      0       0      23        0.0%
BANK9               50      0       0      24        0.0%
BITSFR23             0      0       0      24        0.0%
SFR23                0      0       0      24        0.0%
BITBANK10           50      0       0      25        0.0%
BITSFR24             0      0       0      25        0.0%
SFR24                0      0       0      25        0.0%
BANK10              50      0       0      26        0.0%
BITSFR25             0      0       0      26        0.0%
SFR25                0      0       0      26        0.0%
BITBANK11           50      0       0      27        0.0%
BITSFR26             0      0       0      27        0.0%
SFR26                0      0       0      27        0.0%
BANK11              50      0       0      28        0.0%
BITSFR27             0      0       0      28        0.0%
SFR27                0      0       0      28        0.0%
BITBANK12           30      0       0      29        0.0%
BITSFR28             0      0       0      29        0.0%
SFR28                0      0       0      29        0.0%
BANK12              30      0       0      30        0.0%
BITSFR29             0      0       0      30        0.0%
SFR29                0      0       0      30        0.0%
BITSFR30             0      0       0      31        0.0%
SFR30                0      0       0      31        0.0%
DATA                 0      0      F9      31        0.0%
BITSFR31             0      0       0      32        0.0%
SFR31                0      0       0      32        0.0%


Microchip Technology PIC Macro Assembler V2.20 build 20200408173844 
Symbol Table                                                                                   Tue May 26 14:13:09 2020

                          __FuncAutoTxStart 091D                                 ?_AD_control 0070  
                                        l43 0952                                          l46 0957  
                                        l73 0A3C                                          l65 0FFF  
                                        l75 0A4D                                          l68 07A7  
                                        l98 0962                   ??_dd_set_ADF7021_Power_on 0073  
                                       l130 0C43                                         l202 0C81  
                                       l205 09DF                                         l118 0917  
                                       l150 0BEA                                         l151 0C05  
                                       l146 0C01                                         l147 0BE2  
                                       l155 0A6C                                         l163 0A2E  
                                       l180 091C                                         l148 0BF6  
                                       l149 0BE9                                         l166 07FF  
                                       l183 091B                                         l159 093B  
                                       l600 0B31                                         l177 0916  
                                       l281 093F                                         l290 0AAD  
                                       l610 0A13                                         l275 0919  
                                       l284 0943                                         l532 0A8C  
                                       l293 0B9A                                         l189 0934  
                                       l605 0B10                                         l525 0E97  
                                       l278 091A                                         l711 01F8  
                                       l615 0D5B                                         l631 05C4  
                                       l616 0D90                                         l640 0538  
                                       l632 0510                                         l544 02C9  
                                       l297 0971                                         l705 04B3  
                                       l641 053B                                         l529 0A7B  
                                       l810 09F8                                         l802 0B75  
                                       l538 03A1                                         l299 097C  
                                       l628 04F1                                         l805 0920  
                                       l549 02AD                                         l662 099D  
                                       l590 0B53                                         l638 0531  
                                       l814 096D                                         l574 0344  
                                       l672 09B2                                         l656 091D  
                                       l568 033B                                         l832 0E0D  
                                       l912 0ECB                                         l665 094C  
                                       l681 04B2                                         l585 09C7  
                                       l818 0ACE                                         l690 0400  
                                       l763 0171                                         l659 0002  
                                       l595 0AEF                                         l668 092D  
                                       l676 098C                                         l679 03D8  
                                       l769 01AA                                         l777 06BC  
                                       l798 0CD4                                         _GIE 005F  
                                       _RA2 0062                                         _RA3 0063  
                                       _RC0 0070                                         _RA4 0064  
                                       _RA5 0065                                         _RC2 0072  
                                       _RB4 006C                                         _RB5 006D  
                                       _RC3 0073                                         _RB6 006E  
                                       _RC4 0074                                         _RB7 006F  
                                       _RC5 0075                                         _RC6 0076  
                                       _RC7 0077                                         _PR2 001B  
                                       _ISR 0004                                         u630 0A3A  
                                       u631 0A39                                         u640 0A49  
                                       u720 093A                                         u641 0A48  
                                       u625 0A32                                         u721 0939  
                                       u730 0AB4                                         u810 09F6  
                                       u731 0AB3                                         u811 09F5  
                                       u820 09B0                                         u821 09AF  
                                       u920 096C                                         u921 096B  
                                       u850 0B5D                                         u851 0B5C  
                                       u860 0983                                         u861 0982  
                 SetTxData@Control_code_set 0055                                         wreg 0009  
                                      ?_ISR 0070                                        l1141 0003  
                                      l1138 0918                                        l1346 0BCE  
                                      l3240 0A31                                        l3250 0A43  
                                      l3242 0A36                                        l3234 0A30  
                                      l3420 0AAE                                        l3252 0A49  
                                      l3244 0A3A                                        l3500 09E0  
                                      l3422 0AB4                                        l3246 0A3D  
                                      l3510 09F0                                        l4400 0C06  
                                      l3424 0927                                        l3520 09A5  
                                      l3248 0A3F                                        l5200 0784  
                                      l3512 09F6                                        l4410 0C3A  
                                      l4402 0C0D                                        l3514 092E  
                                      l3522 09A9                                        l6010 00FF  
                                      l5202 078D                                        l5210 0BD0  
                                      l3506 09E3                                        l4412 0C3E  
                                      l4404 0C1B                                        l3524 09B0  
                                      l3516 099E                                        l6100 019F  
                                      l6012 0103                                        l5204 0796  
                                      l5220 0BDE                                        l5212 0BD3  
                                      l5300 07E6                                        l3508 09EC  
                                      l3540 0B5E                                        l4406 0C1E  
                                      l4350 094D                                        l4430 0A8D  
                                      l3518 09A0                                        l6110 01B3  
                                      l6102 01A3                                        l6030 012E  
                                      l6014 0107                                        l5206 079A  
                                      l5150 06C8                                        l5230 0BF7  
                                      l5302 07EA                                        l5310 03AA  
                                      l3542 0B63                                        l3550 0983  
                                      l4408 0C2C                                        l4352 094F  
                                      l4440 0A9B                                        l4432 0A91  
                                      l6112 01C3                                        l6104 01A8  
                                      l6032 0134                                        l6024 011E  
                                      l6008 00F9                                        l5208 07A3  
                                      l5160 06F4                                        l5152 06D1  
                                      l5240 0F26                                        l3392 0935  
                                      l5232 0BFB                                        l5304 07F7  
                                      l5320 03E4                                        l5312 03AF  
                                      l3544 0B66                                        l3536 0B55  
                                      l6200 0E80                                        l4354 0951  
                                      l4450 0AA7                                        l4442 0A9E  
                                      l4434 0A93                                        l6114 01C6  
                                      l6106 01AC                                        l6042 0139  
                                      l6026 0123                                        l6018 0117  
                                      l5170 071B                                        l5162 06F8  
                                      l5154 06D5                                        l5250 0F47  
                                      l5242 0F30                                        l3394 093A  
                                      l5234 096F                                        l5226 0BE7  
                                      l5218 0BD4                                        l5306 07FB  
                                      l5330 03FB                                        l5322 03E9  
                                      l5314 03B5                                        l3546 0B70  
                                      l5410 0D2F                                        l3554 0985  
                                      l5402 0A4E                                        l6210 0E94  
                                      l6202 0E84                                        l4428 093C  
                                      l4460 0AAC                                        l4452 0AA8  
                                      l4444 0AA1                                        l4436 0A95  
                                      l6140 0C44                                        l6108 01B0  
                                      l6060 014F                                        l6052 0143  
                                      l6044 013E                                        l6028 0129  
                                      l5180 0747                                        l5172 0724  
                                      l5164 0701                                        l5156 06DE  
                                      l5148 06BF                                        l5260 0F80  
                                      l5252 0F50                                        l5244 0F34  
                                      l5236 0972                                        l5228 0BEB  
                                      l5340 0417                                        l5332 0403  
                                      l5324 03EC                                        l5316 03D3  
                                      l5308 03A4                                        l5420 0D40  
                                      l5412 0D32                                        l3556 0988  
                                      l3548 097D                                        l5500 0518  
                                      l5404 0A53                                        l6204 0E87  
                                      l6220 0D9F                                        l6212 0D91  
                                      l4540 0A6D                                        l4390 0958  
                                      l4454 0AA9                                        l4446 0AA4  
                                      l4438 0A98                                        l3590 0944  
                                      l4470 0B8D                                        l4462 0B76  
                                      l6150 0C77                                        l6142 0C4D  
                                      l6126 01C9                                        l6070 016A  
                                      l6062 0155                                        l6134 01CF  
                                      l5190 075B                                        l5182 074B  
                                      l5174 0731                                        l5166 070E  
                                      l5158 06EB                                        l5270 0FD5  
                                      l5262 0F8B                                        l5254 0F51  
                                      l5246 0F3D                                        l5238 0976  
                                      l5350 0456                                        l5342 041C  
                                      l5334 0408                                        l5326 03F1  
                                      l5318 03DF                                        l5430 0D57  
                                      l5422 0D43                                        l5414 0D38  
                                      l3558 098B                                        l5510 0526  
                                      l5502 051A                                        l5406 0A54  
                                      l6230 0DAC                                        l6222 0DA2  
                                      l6214 0D92                                        l4550 0A85  
                                      l4542 0A73                                        l6310 0E9B  
                                      l4392 095A                                        l4456 0AAA  
                                      l4448 0AA6                                        l3592 0949  
                                      l4480 0B97                                        l4472 0B8E  
                                      l4464 0B7F                                        l6152 0C7B  
                                      l3584 09C8                                        l6080 018A  
                                      l6072 016F                                        l6064 015A  
                                      l5192 0761                                        l5184 074F  
                                      l5176 073A                                        l5168 0717  
                                      l5280 0FFB                                        l5272 0FEB  
                                      l5264 0F9D                                        l5256 0F56  
                                      l5248 0F41                                        l5352 0464  
                                      l5336 040D                                        l5328 03F6  
                                      l5360 048A                                        l5600 0B3C  
                                      l3496 091E                                        l5440 0D73  
                                      l5424 0D47                                        l5416 0D39  
                                      l5512 052B                                        l5504 051F  
                                      l5408 0A68                                        l6208 0E8E  
                                      l6160 0E1A                                        l6240 0DBC  
                                      l6232 0DAD                                        l6224 0DA5  
                                      l6216 0D95                                        l4552 0A8A  
                                      l4544 0A74                                        l6320 0EAA  
                                      l6312 0E9E                                        l4394 095C  
                                      l4458 0AAB                                        l4474 0B90  
                                      l4466 0B84                                        l3586 09CC  
                                      l6082 018D                                        l6074 0173  
                                      l6066 0160                                        l6058 014A  
                                      l5194 076A                                        l5186 0753  
                                      l5178 073E                                        l5282 0FFD  
                                      l5266 0FB5                                        l5274 0FF5  
                                      l5258 0F68                                        l5290 07C0  
                                      l5354 0474                                        l5362 04A3  
                                      l5338 0412                                        l5346 0421  
                                      l5602 0B3E                                        l5450 0D8B  
                                      l5426 0D4E                                        l5434 0D66  
                                      l5418 0D3D                                        l5530 055F  
                                      l5514 0533                                        l5522 053E  
                                      l3594 0964                                        l6170 0E2E  
                                      l6162 0E1D                                        l6154 0E0E  
                                      l6250 0DCF                                        l6234 0DB1  
                                      l6242 0DBD                                        l6226 0DA7  
                                      l6218 0D9A                                        l4546 0A79  
                                      l6330 0EB5                                        l6322 0EAD  
                                      l6314 0EA1                                        l6306 0E98  
                                      l4396 095D                                        l4476 0B91  
                                      l4468 0B87                                        l6148 0C4F  
                                      l3588 09DB                                        l6084 018F  
                                      l6076 0177                                        l6068 0166  
                                      l5196 0773                                        l5188 0757  
                                      l5276 0FF8                                        l5268 0FBB  
                                      l5292 07CD                                        l5284 07A8  
                                      l5364 04A6                                        l5356 047F  
                                      l5348 0449                                        l5380 0A01  
                                      l3860 0992                                        l5604 0B42  
                                      l5612 0B4F                                        l5436 0D6D  
                                      l5428 0D54                                        l5444 0D76  
                                      l5540 0577                                        l5532 0568  
                                      l5524 0551                                        l5460 04BC  
                                      l5508 0521                                        l5620 0AFB  
                                      l3596 0967                                        l6180 0E4A  
                                      l6172 0E34                                        l6164 0E21  
                                      l6156 0E14                                        l6260 0DDF  
                                      l6252 0DD1                                        l6244 0DC2  
                                      l6236 0DB7                                        l6228 0DA8  
                                      l4548 0A80                                        l6340 0EC1  
                                      l6324 0EB0                                        l6316 0EA4  
                                      l6308 0E98                                        l4398 095F  
                                      l4478 0B94                                        l6078 017A  
                                      l5198 0780                                        l5278 0FFA  
                                      l5294 07D1                                        l5286 07B8  
                                      l5366 04A9                                        l5382 0A0B  
                                      l3862 0995                                        l5606 0B47  
                                      l5446 0D7B                                        l5438 0D71  
                                      l5550 058F                                        l5542 057D  
                                      l5526 0556                                        l5470 04D7  
                                      l5462 04C2                                        l5622 0AFF  
                                      l5630 0B0C                                        l5614 0AF0  
                                      l3598 096C                                        l5710 0241  
                                      l5702 0206                                        l5390 0BA3  
                                      l6190 0E60                                        l6182 0E4E  
                                      l6174 0E38                                        l6166 0E23  
                                      l6158 0E15                                        l6270 0DF4  
                                      l6262 0DE1                                        l6254 0DD4  
                                      l6246 0DC4                                        l6238 0DBB  
                                      l6350 0EDB                                        l6342 0ECD  
                                      l6326 0EB3                                        l6318 0EA7  
                                      l6096 0194                                        l5296 07D5  
                                      l5288 07BC                                        l5368 04AC  
                                      l5384 0A10                                        l5640 0ADE  
                                      l5632 0ACF                                        l3864 0998  
                                      l5608 0B4A                                        l5448 0D81  
                                      l5560 05A2                                        l5552 0593  
                                      l5544 0580                                        l5536 056C  
                                      l5528 055C                                        l5480 04EE  
                                      l5472 04DE                                        l5464 04C7  
                                      l5624 0B04                                        l5616 0AF3  
                                      l5800 0331                                        l5720 0257  
                                      l5712 0246                                        l5704 0230  
                                      l5392 0BA8                                        l6192 0E66  
                                      l6184 0E55                                        l6176 0E3F  
                                      l6168 0E2A                                        l6280 0E06  
                                      l6264 0DE6                                        l6272 0DF7  
                                      l6256 0DD7                                        l6248 0DC9  
                                      l6360 0EEF                                        l6352 0EDE  
                                      l6344 0ED0                                        l6336 0EB8  
                                      l6328 0EB4                                        l6098 0199  
                                      l5298 07E2                                        l5378 09FB  
                                      l5642 0AE3                                        l5634 0AD2  
                                      l3866 0999                                        l3858 098D  
                                      l5562 05A5                                        l5546 0589  
                                      l5538 0571                                        l5490 0509  
                                      l5474 04E4                                        l5466 04CC  
                                      l5458 04B4                                        l5626 0B07  
                                      l5618 0AF9                                        l5650 0B11  
                                      l5810 0344                                        l5730 0272  
                                      l5722 025B                                        l5706 0237  
                                      l5394 0BB0                                        l6194 0E74  
                                      l6186 0E5A                                        l6178 0E43  
                                      l6282 0E08                                        l6274 0DFC  
                                      l6266 0DEB                                        l6258 0DDA  
                                      l6370 0F04                                        l6362 0EF4  
                                      l6354 0EE1                                        l6346 0ED3  
                                      l6338 0EBC                                        l5644 0AE6  
                                      l5636 0AD8                                        l5564 05AD  
                                      l5556 0597                                        l5548 058C  
                                      l5572 05B4                                        l5492 050C  
                                      l5484 04F3                                        l5476 04E9  
                                      l5468 04D2                                        l5660 0B25  
                                      l5652 0B14                                        l5820 0358  
                                      l5812 0348                                        l5804 0337  
                                      l5740 028B                                        l5732 0276  
                                      l5724 0261                                        l5708 023B  
                                      l5716 024B                                        l5396 0BB7  
                                      l5388 0B9B                                        l6196 0E76  
                                      l6188 0E5B                                        l6284 0E09  
                                      l6268 0DF1                                        l6276 0DFE  
                                      l6380 0F1A                                        l6372 0F06  
                                      l6364 0EFC                                        l6356 0EE4  
                                      l6348 0ED8                                        l5902 0043  
                                      l5638 0ADA                                        l5590 09C3  
                                      l5582 09B3                                        l5566 05B0  
                                      l5558 059C                                        l5494 0514  
                                      l5486 0500                                        l5478 04ED  
                                      l5662 0B28                                        l5654 0B1A  
                                      l5822 035C                                        l5814 034C  
                                      l5806 033B                                        l5742 0291  
                                      l5750 02BE                                        l5734 0279  
                                      l5726 0268                                        l5398 0BC6  
                                      l5670 0C8C                                        l6198 0E79  
                                      l6286 0E0A                                        l6278 0E03  
                                      l6382 0F20                                        l6374 0F0C  
                                      l6366 0F02                                        l6358 0EEA  
                                      l5920 0067                                        l5912 0052  
                                      l5904 0044                                        l5648 0AEB  
                                      l5592 09C5                                        l5584 09B6  
                                      l5496 0515                                        l5488 0503  
                                      l5656 0B1C                                        l5824 0360  
                                      l5816 0350                                        l5808 0340  
                                      l5760 02CB                                        l5752 02C4  
                                      l5744 0293                                        l5736 027F  
                                      l5728 026C                                        l5680 0CC2  
                                      l5840 05CE                                        l6288 0E0C  
                                      l6376 0F10                                        l6368 0F03  
                                      l5930 0085                                        l5922 006B  
                                      l5914 0058                                        l5906 0049  
                                      l5594 0B32                                        l5586 09B8  
                                      l5498 0516                                        l5658 0B20  
                                      l5666 0B2D                                        l5818 0354  
                                      l5770 02F1                                        l5762 02D8  
                                      l5746 029A                                        l5738 0284  
                                      l5754 02C9                                        l5682 0CC6  
                                      l5850 05F3                                        l5842 05D4  
                                      l5690 0A19                                        l6378 0F15  
                                      l5940 0095                                        l5932 0089  
                                      l5924 0077                                        l5916 005D  
                                      l5908 004D                                        l5596 0B35  
                                      l5588 09C0                                        l5828 0364  
                                      l5780 0302                                        l5764 02DD  
                                      l5748 02A4                                        l5684 0CCC  
                                      l5676 0C8D                                        l5668 0C84  
                                      l5860 061A                                        l5852 05F7  
                                      l5844 05D7                                        l5836 05C5  
                                      l5692 0A1A                                        l5942 009B  
                                      l5918 0063                                        l5926 007A  
                                      l5598 0B37                                        l5790 0313  
                                      l5782 0305                                        l5774 02F8  
                                      l5766 02E1                                        l5694 01F9  
                                      l5678 0C99                                        l5870 0644  
                                      l5862 0623                                        l5854 0607  
                                      l5846 05DE                                        l5944 00A0  
                                      l5928 0080                                        l6760 0546  
                                      l5792 0319                                        l5776 02FE  
                                      l5768 02E7                                        l5696 01FB  
                                      l5880 0660                                        l5864 062F  
                                      l5856 0609                                        l5848 05F1  
                                      l5688 0A14                                        l5970 00BB  
                                      l5954 00A7                                        l5938 0090  
                                      l6762 05BC                                        l5794 031F  
                                      l5778 02FF                                        l5786 0309  
                                      l5698 01FF                                        l5890 0699  
                                      l5874 0652                                        l5866 0635  
                                      l5858 060B                                        l5980 00D2  
                                      l5972 00C7                                        l5964 00AD  
                                      l6764 0429                                        l5796 0325  
                                      l5788 030E                                        l6756 06AE  
                                      l5892 06A2                                        l5884 0667  
                                      l5876 0655                                        l5868 063F  
                                      l5990 00EC                                        l5982 00D7  
                                      l5974 00CB                                        l5966 00B3  
                                      l6766 0492                                        l6758 036C  
                                      l5798 032B                                        l5886 067B  
                                      l6768 01D8                                        l5992 00F0  
                                      l5984 00DD                                        l5968 00B7  
                                      l5888 0688                                        l5896 06A5  
                                      l5986 00E2                                        l5988 00E8  
                                      l5998 00F3                                        u2000 0957  
                                      u2001 0956                                        u2100 0C2C  
                                      u2101 0C2B                                        u2110 0C3A  
                                      u2111 0C39                                        u3000 03B5  
                                      u3001 03B4                                        u3010 03D3  
                                      u3011 03D2                                        u2140 0943  
                                      u3020 03DF                                        u3100 0BC6  
                                      u2300 0A85                                        u2141 0942  
                                      u3021 03DE                                        u3101 0BC5  
                                      u2301 0A84                                        u3030 03E4  
                                      u3110 0A53                                        u2310 0A8A  
                                      u3031 03E3                                        u3015 03CF  
                                      u3111 0A52                                        u2311 0A89  
                                      u2080 0C0D                                        u4000 00FF  
                                      u3040 03E9                                        u3120 0D38  
                                      u3200 04C2                                        u2081 0C0C  
                                      u4001 00FE                                        u3041 03E8  
                                      u3121 0D37                                        u3201 04C1  
                                      u2090 0C1B                                        u4010 011D  
                                      u3050 0A01                                        u3130 0D4E  
                                      u3210 04C7                                        u2091 0C1A  
                                      u4011 011C                                        u3051 0A00  
                                      u3131 0D4D                                        u3211 04C6  
                                      u4100 015A                                        u4020 0123  
                                      u3060 0A0B                                        u3140 0D54  
                                      u3300 052B                                        u3220 04CC  
                                      u4101 0159                                        u4021 0122  
                                      u3061 0A0A                                        u3141 0D53  
                                      u3301 052A                                        u3221 04CB  
                                      u4110 0160                                        u4030 0128  
                                      u3150 0D6D                                        u3310 0530  
                                      u3230 04D2                                        u3070 0BA8  
                                      u2270 0A73                                        u4111 015F  
                                      u4031 0127                                        u3151 0D6C  
                                      u3311 052F                                        u3231 04D1  
                                      u3071 0BA7                                        u2271 0A72  
                                      u4120 0166                                        u4040 012E  
                                      u3400 0B47                                        u3160 0D7B  
                                      u3320 0556                                        u3240 04D7  
                                      u4200 0E14                                        u2280 0A79  
                                      u4121 0165                                        u4041 012D  
                                      u3401 0B46                                        u3161 0D7A  
                                      u3321 0555                                        u3241 04D6  
                                      u4201 0E13                                        u2281 0A78  
                                      u4130 016F                                        u4050 0134  
                                      u3170 0D81                                        u3330 055C  
                                      u3250 04DE                                        u3410 0AF9  
                                      u4210 0E1A                                        u2290 0A80  
                                      u4131 016E                                        u4051 0133  
                                      u3171 0D80                                        u3331 055B  
                                      u3251 04DD                                        u3411 0AF8  
                                      u4211 0E19                                        u2291 0A7F  
                                      u4140 0199                                        u4060 013E  
                                      u3180 0D8B                                        u3340 0571  
                                      u3260 04E4                                        u3420 0B04  
                                      u3500 0237                                        u4300 0E80  
                                      u4220 0E2A                                        u4141 0198  
                                      u4061 013D                                        u3181 0D8A  
                                      u3341 0570                                        u3261 04E3  
                                      u3421 0B03                                        u3501 0236  
                                      u3085 0BB1                                        u4301 0E7F  
                                      u4221 0E29                                        u4150 019F  
                                      u4070 0149                                        u3430 0AD8  
                                      u3350 0576                                        u3270 04E9  
                                      u3190 04BC                                        u3510 0256  
                                      u4310 0E8D                                        u4230 0E34  
                                      u4151 019E                                        u4071 0148  
                                      u3431 0AD7                                        u3351 0575  
                                      u3271 04E8                                        u3191 04BB  
                                      u3511 0255                                        u3095 0BB8  
                                      u4311 0E8C                                        u4231 0E33  
                                      u4160 01A8                                        u4080 014F  
                                      u3440 0AE3                                        u3360 057D  
                                      u3280 0509                                        u3600 02C4  
                                      u3520 0261                                        u4240 0E3F  
                                      u4400 0DDF                                        u4320 0D9A  
                                      u4161 01A7                                        u4081 014E  
                                      u3441 0AE2                                        u3361 057C  
                                      u3281 0508                                        u3601 02C3  
                                      u3521 0260                                        u4241 0E3E  
                                      u4401 0DDE                                        u4321 0D99  
                                      u4170 01CE                                        u4090 0154  
                                      u3370 059C                                        u3290 051F  
                                      u3450 0B1A                                        u3610 02D8  
                                      u3530 0268                                        u4250 0E4A  
                                      u4410 0DE6                                        u4330 0D9F  
                                      u4171 01CD                                        u4091 0153  
                                      u3371 059B                                        u3291 051E  
                                      u3451 0B19                                        u3611 02D7  
                                      u3531 0267                                        u4251 0E49  
                                      u4411 0DE5                                        u4331 0D9E  
                                      u3380 05A2                                        u3460 0B25  
                                      u3700 032B                                        u3620 02E7  
                                      u3540 0272                                        u4260 0E55  
                                      u4420 0DEB                                        u4340 0DAC  
                                      u4500 0EEF                                        u3381 05A1  
                                      u3461 0B24                                        u3701 032A  
                                      u3621 02E6                                        u3541 0271  
                                      u4261 0E54                                        u4421 0DEA  
                                      u4341 0DAB                                        u4501 0EEE  
                                      u4190 0C81                                        u2910 0BE7  
                                      u3390 0B3C                                        u3710 0331  
                                      u3630 02F7                                        u3550 027F  
                                      u3470 0CCC                                        u4270 0E60  
                                      u4430 0DF1                                        u4350 0DB1  
                                      u4510 0EF4                                        u4191 0C80  
                                      u2911 0BE6                                        u3391 0B3B  
                                      u3711 0330                                        u3631 02F6  
                                      u3551 027E                                        u3471 0CCB  
                                      u4271 0E5F                                        u4431 0DF0  
                                      u4351 0DB0                                        u4511 0EF3  
                                      u2920 0BF6                                        u3720 0336  
                                      u3640 02FE                                        u3560 0284  
                                      u3800 0666                                        u4280 0E66  
                                      u3480 0A19                                        u4440 0DFC  
                                      u4360 0DB7                                        u4520 0EFC  
                                      u4185 0C67                                        u2921 0BF5  
                                      u3721 0335                                        u3641 02FD  
                                      u3561 0283                                        u3801 0665  
                                      u4281 0E65                                        u3481 0A18  
                                      u4441 0DFB                                        u4361 0DB6  
                                      u4521 0EFB                                        u2930 0C01  
                                      u3730 0340                                        u3650 030E  
                                      u3570 028B                                        u3490 0205  
                                      u3810 0688                                        u4290 0E74  
                                      u4450 0E03                                        u4370 0DC2  
                                      u4530 0F02                                        u2931 0C00  
                                      u3731 033F                                        u3651 030D  
                                      u3571 028A                                        u3491 0204  
                                      u3811 0687                                        u4291 0E73  
                                      u4451 0E02                                        u4371 0DC1  
                                      u4531 0F01                                        _PEIE 005E  
                                      u3900 00A0                                        u3820 0049  
                                      u2940 097C                                        u3660 0313  
                                      u3580 0291                                        u3740 05CD  
                                      u4380 0DC9                                        u4540 0F0C  
                                      u3901 009F                                        u3821 0048  
                                      u2941 097B                                        u3661 0312  
                                      u3581 0290                                        u3741 05CC  
                                      u4381 0DC8                                        u4541 0F0B  
                                      u3910 00A6                                        u3830 0058  
                                      u2950 0F47                                        u3670 0319  
                                      u3590 029A                                        u3750 05D4  
                                      u4390 0DCF                                        u4550 0F15  
                                      u4470 0ECA                                        u3911 00A5  
                                      u3831 0057                                        u2951 0F46  
                                      u3671 0318                                        u3591 0299  
                                      u3751 05D3                                        u4391 0DCE  
                                      u4551 0F14                                        u4471 0EC9  
                                      u3920 00AC                                        u3840 0063  
                                      u2960 0F56                                        u3680 031F  
                                      u3760 05DE                                        u4560 0F1A  
                                      u4480 0ED8                                        u3921 00AB  
                                      u3841 0062                                        u2961 0F55  
                                      u3681 031E                                        u3761 05DD  
                                      u4561 0F19                                        u4481 0ED7  
                                      u3930 00B3                                        u3850 0080  
                                      u2970 0FBB                                        u3690 0325  
                                      u3770 05F1                                        u4570 0F20  
                                      u4490 0EEA                                        u3931 00B2  
                                      u3851 007F                                        u2971 0FBA  
                                      u3691 0324                                        u3771 05F0  
                                      u4571 0F1F                                        u4491 0EE9  
                                      u3940 00D1                                        u3860 0085  
                                      u2980 03AA                                        u3780 061A  
                                      u3941 00D0                                        u3861 0084  
                                      u2981 03A9                                        u3781 0619  
                                      u3950 00D7                                        u3870 008F  
                                      u2990 03AF                                        u3790 063F  
                                      i1l55 0D2E                                        u3951 00D6  
                                      u3871 008E                                        u2991 03AE  
                                      u3791 063E                                        u3960 00DC  
                                      u3880 0095                                        u3961 00DB  
                                      u3881 0094                                        u3970 00E2  
                                      u3890 009A                                        u3971 00E1  
                                      u3891 0099                                        u3980 00E8  
                                      u3981 00E7                                        u3990 00F8  
                                      u3991 00F7                                        _TMR2 001A  
                               atol_de@m_ID 0063                                        _WPUA 020C  
                                      _WPUB 020D                                        _WPUC 020E  
                    SetFixedLengthCode@data 0076                      SetFixedLengthCode@code 0077  
                                      _main 0E98                     __ReqBuzzer@BEEP_off_SET 0075  
                                      fsr0h 0005                                        fsr1h 0007  
                                      indf0 0000                                        fsr0l 0004  
                                      indf1 0001                                        fsr1l 0006  
                                      btemp 007E                                        start 001C  
                            ?_SysClock_Init 0070                             __end_of_Delayus 097D  
                           ?_dd_set_TX_mode 0070                                 ?_UART1_INIT 0070  
                                     ??_ISR 0073                          __size_of_EXIT_init 000B  
                                     ?_main 0070                               ??__GetRegMode 0073  
                                     _T2CON 001C                                       _IOCAF 0393  
                              ?_EXTI_PORTA1 0070                                       _IOCAN 0392  
                                     _IOCAP 0391                                       _IOCIE 005B  
                                     _IOCIF 0058                          __size_of_UART1_end 0001  
                                     i1l930 0019                                       i1l931 001A  
                        __size_of_TIM4_Init 000B                                       _TB_5s 0045  
                                     _TRISA 008C                                       _TRISB 008D  
                                     _TRISC 008E                 __size_of_SetFixedLengthCode 001F  
                       ___lmul@multiplicand 0055                                       __SwIn 0963  
                           __end_of_atol_de 0CD5                                 _txphase_end 00C6  
                  __ReqBuzzer@BEEP_freq_SET 0076                    __size_of__FuncAutoTxStop 0001  
                       __size_of_AD_control 003E                  __size_of_dd_write_7021_reg 0037  
                                __IdClear@i 0074                         __SetKeyChatterCount 0944  
                          __end_of_WDT_init 091A             __end_of_dd_set_ADF7021_Power_on 093C  
                                     status 0003                                       wtemp0 007E  
                          __end_of_ClearWDT 091B                         SetFixedLengthCode@i 0079  
                           __initialization 001E                                __end_of_main 0F26  
                          __end_of__IdClear 09F9                               ??__FuncNoPush 0073  
                         ?_START_AD_SAMPLER 0070                        ?__SetKeyChatterCount 0070  
                        ??_START_AD_SAMPLER 0073                            __end_of__KeyInTx 03A2  
dd_set_ADF7021_Power_on_Init@register_value 0051                                      ??_main 007A  
                          __end_of__FuncReg 0D91                               SetTxData@unii 005C  
                             SetTxData@unij 0059                               SetTxData@unik 0057  
                                __KeyInTx@i 006C                                      ?__SwIn 0070  
                      _FLAG_ADF7021_DATA_tx 0050                         __end_of__GetRegMode 0921  
                       __size_of_UART1_INIT 0001                                  _SendTxData 0F26  
                                    _ANSELA 018C                                      _ANSELB 018D  
                                    _ANSELC 018E                                      _FG_10s 003D  
                                    _HFIOFR 04D4                           __end_of_EXIT_init 0958  
                                    _FG_BAT 0039                                      _FG_1ms 004A  
                                    u201_20 0CDC                                      u201_21 0CD9  
                                    u202_24 0CDE                           _BASE_TIME_BEEP_on 00B4  
                                    i1l4360 0CE3                                      u203_20 0CE3  
                                    u203_21 0CE2                                      i1l4370 0D0D  
                                    i1l4362 0CF0                                      i1l4380 0D25  
                                    i1l4372 0D0F                                      i1l4364 0D04  
                                    i1l4356 0CD5                                      i1l4382 0D2A  
                                    i1l4374 0D14                                      i1l4366 0D09  
                                    i1l4358 0CDE                                      i1l4384 0D2B  
                                    i1l4376 0D1E                                      i1l4368 0D0C  
                                    u204_20 0CF0                                      u204_21 0CEF  
                                    i1l4386 0D2C                                      i1l4378 0D20  
                                    i1l4388 0D2D                                      u205_20 0D09  
                                    u205_21 0D08                                      i1l4770 0010  
                                    i1l4772 0011                                      i1l4764 0006  
                                    i1l4774 0016                                      i1l4766 000B  
                                    u206_20 0D1E                                      i1l4768 000E  
                                    u206_21 0D1D                                      u206_25 0D1A  
                                    u207_20 0D2A                                      u207_21 0D29  
                              _AD_DATA_BUFF 00C4                                      u261_20 000B  
                                    u261_21 000A                                      u262_20 0016  
                                    u262_21 0015                                      _FVRRDY 08BE  
                                 ??_Delayus 0073                                      _OSCCON 0099  
                                    _TB_51s 0046                               ??__ReqTxdEdit 0063  
                                    _TMR2IE 0489                                      _TMR2IF 0089  
                           ??_SysClock_Init 0073                          __size_of_LockFlash 0001  
                                __ReqBuzzer 0AAE          __end_of__ClearSpecialMultiKeyState 092E  
                __ClearSpecialMultiKeyState 0927                           __end_of_UART1_end 0004  
                  __size_of__DupliFuncClear 0015                           __end_of_TIM4_Init 0963  
                  __size_of_InitialFlashReg 0001                                      _nWPUEN 04AF  
                                    ___lmul 0B9B                          __size_of__Init_RAM 0025  
                        __size_of__FuncStop 0111                              _FLAG_KEY_COUNT 00CB  
                        __size_of_SetTxData 00EB                       ??__SetKeyChatterCount 0073  
              __size_of_KeyOpt_EEPROM_write 0018                              _TIME_BEEP_freq 0037  
                                 ??_atol_de 005D                               ?__FuncOpenReg 0070  
                       __end_of__FuncNoPush 099E                    __size_of_eeprom_sys_load 003E  
                             ?__FuncVentReg 0070                               ?__FuncStopReg 0070  
                  __end_of__FuncAutoTxStart 091E                               _m_RFNormalBuf 01A0  
                 __size_of_WriteByteToFLASH 0007                    __size_of__GetNoPushState 0010  
                   __end_of__initialization 003F                               ?__Pass3secKey 0070  
                         ??__FuncAutoTxStop 0073                                 SendTxData@i 0060  
                              ??_AD_control 0073                         __end_of__ReqTxdEdit 04B4  
                            __pcstackCOMMON 0070                      __size_of__FuncCloseReg 0021  
                             __end_of__SwIn 096E                       __end_of_VHF_GPIO_INIT 0AAE  
                            _TIME_2s_RestTX 003C                               ??_UnlockFlash 0073  
                          _TIME_power_on_AD 00C2                           __end_of_LockFlash 091C  
                                 ?_WDT_init 0070                              ??__FuncOpenReg 0069  
                               __GetRegMode 091E                           __RegistrationMode 05C5  
                    __size_of__FuncOpenStop 0015                      _TIME_Once_twice_switch 00BA  
                            ??__FuncVentReg 0069                          _m_KeyDupli1stTimer 0020  
                                 ?_ClearWDT 0070                          ?__RegistrationMode 0070  
                            ??__FuncStopReg 0069                        __size_of_EXTI_PORTA1 005A  
                                   ??__SwIn 0073                           __end_of__Init_RAM 0B9B  
                               ?_SendTxData 0070                          dd_write_7021_reg@i 0077  
                        dd_write_7021_reg@j 0075                           __end_of__FuncStop 05C5  
                                _m_KeyCount 002F                          __end_of_AD_control 0C44  
                         __end_of_SetTxData 07A8                                   ?__IdClear 0070  
                                __pbssBANK0 0020                                  __pbssBANK1 00A0  
                                __pbssBANK2 0120                                  __pbssBANK3 01A0  
                                _m_RegDigit 0029                         ??__RegistrationMode 0068  
                            ??__Pass3secKey 007A                            ??_dd_set_TX_mode 0079  
                        __size_of_key_check 008A                                 ?__ReqBuzzer 0073  
             __size_of__SetRegistrationMode 0022                                   ?__KeyInTx 0070  
                                 ?__FuncReg 0070                              _m_TimerRegMode 00BE  
                                _mb_CloseSw 002C                                  _m_TimerKey 0024  
                                __pmaintext 0E98                                ??_UART1_INIT 0073  
                                   ?___lmul 0051                                  __pintentry 0004  
                         ??__DupliFuncClear 0073                                 __FuncNoPush 098D  
                         ??_InitialFlashReg 0073                              ___lmul@product 0073  
                 __end_of__RegistrationMode 06BD                                _mb_RegOpenSw 0035  
                                   _BAT_out 0048                                     _BIT_SIO 00CA  
                                ??_WDT_init 0073                                _mb_RegVentSw 0033  
                              _mb_RegStopSw 0032                              _mb_AutoTxOnOff 00CD  
                        _BASE_TIME_BEEP_off 0038                           __DupliFuncSetMode 0043  
                                ??_ClearWDT 0073                                     _ID_data 00AC  
                       __end_of_UnlockFlash 091D                               __FuncCloseReg 0ACF  
                        ?__DupliFuncSetMode 0070                                     _TEST_No 00D2  
                                   _SIO_cnt 0026                          __end_of_UART1_INIT 0919  
                                ??__IdClear 0073                           ??_eeprom_sys_load 0073  
                                   _Delayus 096E                                 __ReqTxdEdit 03A2  
                       ??__DupliFuncSetMode 0051                                  ??__KeyInTx 006A  
                             __FuncOpenStop 09B3                                  ??__FuncReg 0051  
            ??_dd_set_ADF7021_Power_on_Init 0079              ??_dd_set_ADF7021_Power_on_test 0076  
                         ??__GetNoPushState 0073                           _BAT_Voltage_value 00A0  
                           _ct_KeyDataTable 1000                             __size_of___lmul 0034  
                  ?_dd_set_ADF7021_Power_on 0070                        _m_KeyDupliSetTimeout 0022  
                       __size_of_SendTxData 00DA                                     _m_RegID 0140  
                                   _m_KeyNo 0036                                     __ptext1 0A6D  
                                 _FLAG_beep 00D0                                     __ptext2 0D91  
                __end_of_SetFixedLengthCode 0A4E                                     __ptext3 0A14  
                                   __ptext4 0003                                     __ptext5 0E0E  
                                   __ptext6 05C5                                     __ptext7 0C82  
                                   __ptext8 0B9B                                     __ptext9 01F9  
                 __end_of__DupliFuncSetMode 01F9                                     _atol_de 0C82  
                         __end_of_key_check 0E98                                __size_of_ISR 0018  
                       __size_of__ReqBuzzer 0021                         WriteByteToFLASH@Dat 0077  
                            ?__FuncCloseReg 0070                                   _FG_LED_on 00D9  
                          _mb_AutoTxInhibit 00CC                                     main@aaa 006E  
                 __size_of_START_AD_SAMPLER 0001                          __ReqTxdEdit@buzreq 0062  
                                   clrloop0 0922                               ?_time_control 0070  
                      end_of_initialization 003F                                     _txphase 00C8  
                             LockFlash@Type 0070                            _WriteByteToFLASH 092E  
                       _KeyOpt_EEPROM_write 09C8                                _FG_KEY_CLOSE 00D5  
                            ?__FuncOpenStop 0070                                _FG_KEY_LOGIN 00D1  
                                 _EXIT_init 094D                 ?__ClearSpecialMultiKeyState 0070  
                      __end_of__FuncOpenReg 0B54                        __end_of__FuncVentReg 0B32  
                     dd_write_7021_reg@byte 0076                                  _rom_KeyOpt 007A  
                      __end_of__FuncStopReg 0B11                                _Control_code 004B  
                                 _UART1_end 0003                                   _TIM4_Init 0958  
                      ?_KeyOpt_EEPROM_write 0070                  __size_of__RegistrationMode 00F8  
              dd_set_TX_mode@register_value 0051               __end_of_Default_adf7012_value 1021  
                      __end_of__Pass3secKey 0A14                                 _UnlockFlash 091C  
                           __FuncAutoTxStop 0002                              ??_time_control 0073  
                         ?__FuncAutoTxStart 0070                          ??__FuncAutoTxStart 0073  
                                 _TB_sum_5s 002A                     __end_of_ct_KeyDataTable 1011  
                                ?_EXIT_init 0070                            __Pass3secKey@req 0068  
                     __end_of_SysClock_Init 0944                      __ReqBuzzer@BEEP_on_SET 0073  
               __end_of__SetKeyChatterCount 094D                            atol_de@m_RegID_x 0062  
                                ?_UART1_end 0070                                  ?_TIM4_Init 0070  
                            __end_of___lmul 0BCF                       ??_KeyOpt_EEPROM_write 0078  
                __size_of__DupliFuncSetMode 01B6                                ?__GetRegMode 0070  
                           ??__FuncCloseReg 0069                         start_initialization 001E  
                         __size_of_WDT_init 0001                                 __end_of_ISR 001C  
                                 _LockFlash 091B                           __size_of_ClearWDT 0001  
                              ??_SendTxData 005E                             ??__FuncOpenStop 0068  
                                 __Init_RAM 0B76                             __DupliFuncClear 099E  
                         __size_of__IdClear 0019                                ??__ReqBuzzer 0077  
                                 __FuncStop 04B4                             _InitialFlashReg 0916  
                                 _SetTxData 06BD                           __size_of__KeyInTx 01A9  
                         _m_TimerKeyMonitor 00C0                           __size_of__FuncReg 0062  
                                  ??___lmul 0073                               _TIME_BEEP_off 00DA  
                              ?__FuncNoPush 0070                             UnlockFlash@Type 0070  
                        __end_of_SendTxData 1000                     __end_of__FuncAutoTxStop 0003  
              __end_of__SetRegistrationMode 0B76                                 _m_KindOfKey 0042  
                             ??_EXTI_PORTA1 0070                             _eeprom_sys_load 0C44  
                    SendTxData@def_preamble 0061                                 __pbssCOMMON 007A  
                        __end_of__ReqBuzzer 0ACF                                   ___latbits 0002  
                       _m_KeyOptSetOpenStop 002B                               __pcstackBANK0 0051  
       __size_of__ClearSpecialMultiKeyState 0007                                  ?_LockFlash 0070  
                              _FG_d_StopKey 003E                            _START_AD_SAMPLER 0917  
                           __GetNoPushState 097D                       __size_of__FuncOpenReg 0022  
                              Delayus@timer 0074                                 _FLAG_APP_TX 004F  
                                  ?_Delayus 0070                      __size_of_VHF_GPIO_INIT 0021  
                     __size_of__FuncVentReg 0021                                ?__ReqTxdEdit 0062  
                                ?__Init_RAM 0070                                  ?__FuncStop 0070  
                     __size_of__FuncStopReg 0021                                 ??_EXIT_init 0073  
                          eeprom_sys_load@i 0051                                  ?_SetTxData 0051  
                                 _m_RegMode 004C                                   _mb_NoPush 0041  
                               ??_UART1_end 0073                       __size_of__Pass3secKey 001B  
                               ??_TIM4_Init 0073                                   _mb_OpenSw 002E  
                      __end_of_time_control 0A8D                                   _mb_StopSw 002D  
                  __end_of_WriteByteToFLASH 0935                                    ?_atol_de 0059  
                              __FuncOpenReg 0B32                               _mb_RegCloseSw 0034  
                                 _key_Value 00B0                                __FuncVentReg 0B11  
                            __size_of__SwIn 000B            __size_of_dd_set_ADF7021_Power_on 0007  
                                 _key_check 0E0E                     __end_of__DupliFuncClear 09B3  
                              __FuncStopReg 0AF0                                    _FG_100ms 003F  
                       __end_of_EXTI_PORTA1 0D2F                     __end_of_InitialFlashReg 0917  
                             _mb_NoPushWait 0040                          _SetFixedLengthCode 0A2F  
                dd_write_7021_reg@reg_bytes 0078                                    _FG_PWRON 003B  
                              __Pass3secKey 09F9                              _m_ChatterCount 00B6  
                                 clear_ram0 0921                           __ReqTxdEdit@txreq 0066  
                       ?_SetFixedLengthCode 0073                                    Delayus@x 0075  
                               _FG_KEY_OPEN 0028                                    _TB_100ms 0047  
                               _FG_KEY_STOP 00D6                      _FG_Complex_Single_shot 0031  
                                  _TB_976us 00D3                                    _FG_test1 00D4  
                                  _TIME_10s 00B8                                    _SIO_DATA 0120  
                   __end_of_eeprom_sys_load 0C82                     __size_of_dd_set_TX_mode 0058  
                             _VHF_GPIO_INIT 0A8D                                    _SIO_buff 0130  
                              _FG_test_mode 0027                                ?_UnlockFlash 0070  
                __DupliFuncSetMode@m_KeyOpt 0079                            ?__FuncAutoTxStop 0070  
                               _ID_INT_CODE 004E                                    _WDT_init 0919  
                      ??_SetFixedLengthCode 0075                     __end_of__GetNoPushState 098D  
      __end_of_dd_set_ADF7021_Power_on_Init 0A6D       __size_of_dd_set_ADF7021_Power_on_Init 001F  
              _dd_set_ADF7021_Power_on_Init 0A4E                                    _ClearWDT 091A  
                      __size_of__GetRegMode 0003                                 ??_LockFlash 0073  
      __end_of_dd_set_ADF7021_Power_on_test 0A2F       __size_of_dd_set_ADF7021_Power_on_test 001B  
              _dd_set_ADF7021_Power_on_test 0A14                                  ?_key_check 0070  
                         _test_mode_control 0D91                           ___lmul@multiplier 0051  
                      __ReqTxdEdit@time_key 0067                                    __IdClear 09E0  
                        ?_test_mode_control 0070                                 ??__Init_RAM 0073  
                               ??__FuncStop 0068                            __size_of_Delayus 000F  
                               ??_SetTxData 0056                        __SetRegistrationMode 0B54  
                                  __KeyInTx 01F9                                    __FuncReg 0D2F  
                       ??_test_mode_control 0079                                    __SwIn@sw 0073  
                         _ROM_adf7012_value 00DB                   __size_of__FuncAutoTxStart 0001  
                              _TIME_BEEP_on 00B2                              ?_VHF_GPIO_INIT 0070  
                      __size_of__FuncNoPush 0011                                 _EXTI_PORTA1 0CD5  
                          __size_of_atol_de 0053                       _Default_adf7012_value 1011  
                                  _m_KeyOld 0043                                    _m_KeyNew 0044  
                               _FG_beep_off 00CE                                 _RAM_BAT_AVG 00EB  
                               _RAM_BAT_CNT 0049                                 _RAM_BAT_SUM 00A4  
                 __end_of_test_mode_control 0E0E                                    _mb_RegSw 0030  
                            _txphase_Repeat 004D               ?_dd_set_ADF7021_Power_on_Init 0070  
                                  __ptext10 0A4E                                    __ptext11 0963  
                                  __ptext20 09B3                                    __ptext12 0B11  
                                  __ptext21 0B32                                    __ptext13 0AF0  
                                  __ptext30 0F26                                    __ptext22 098D  
                                  __ptext14 04B4                                    __ptext31 06BD  
                                  __ptext23 0ACF                                    __ptext15 097D  
                                  __ptext40 091C                                    __ptext32 0A2F  
                                  __ptext24 09F9                                    __ptext16 0D2F  
                                  __ptext41 091B                                    __ptext33 0002  
                                  __ptext25 03A2                                    __ptext17 0B54  
                                  __ptext50 0958                                    __ptext42 091A  
                                  __ptext34 091D                                    __ptext26 07A8  
                                  __ptext18 09E0                                    __ptext51 093C  
                                  __ptext43 0C44                                    __ptext35 0043  
                                  __ptext27 0BCF                                    __ptext19 091E  
                                  __ptext52 0917                                    __ptext44 0B76  
                                  __ptext36 0AAE                                    __ptext28 096E  
                                  __ptext53 0916                                    __ptext45 0944  
                                  __ptext37 099E                                    __ptext29 0935  
                                  __ptext54 094D                                    __ptext46 0927  
                                  __ptext38 09C8                                    __ptext55 0C06  
                                  __ptext47 0919                                    __ptext39 092E  
                                  __ptext48 0A8D                                    __ptext57 0CD5  
                                  __ptext49 0918                            ?__DupliFuncClear 0070  
                          ?_InitialFlashReg 0070               ?_dd_set_ADF7021_Power_on_test 0070  
                             __size_of_main 008E                       ?__SetRegistrationMode 0070  
                               _ID_data_add 00A8                        WriteByteToFLASH@Addr 0073  
                     __size_of_time_control 0020                        __size_of__ReqTxdEdit 0112  
               __end_of_KeyOpt_EEPROM_write 09E0                                    _time_led 00BC  
                                _AD_control 0C06                    __end_of_START_AD_SAMPLER 0918  
                                  int$flags 007E                             _m_KeyCloseCount 00D7  
                          ?_eeprom_sys_load 0070                __size_of__SetKeyChatterCount 0009  
                                  atol_de@i 0067                                    atol_de@j 0061  
                                _INTCONbits 000B                            ?__GetNoPushState 0070  
                   _dd_set_ADF7021_Power_on 0935                       __end_of__FuncCloseReg 0AF0  
                    __size_of_SysClock_Init 0008                   __SetRegistrationMode@mode 0079  
                               ??_key_check 006D                                _time_control 0A6D  
                                  intlevel1 0000                                  _FG_beep_on 00CF  
                         _dd_write_7021_reg 0BCF                       __end_of__FuncOpenStop 09C8  
                        ?_dd_write_7021_reg 0071                                  _UART1_INIT 0918  
                           ??_VHF_GPIO_INIT 0073                         ??_dd_write_7021_reg 0073  
                            _dd_set_TX_mode 07A8                        SetTxData@ID_data_set 0051  
                         ?_WriteByteToFLASH 0073                               __pstringtext1 1000  
                             __pstringtext2 1011                          ??_WriteByteToFLASH 0078  
                      __size_of_UnlockFlash 0001                  __size_of_test_mode_control 007D  
                        SetTxData@count_set 005B                   __end_of_dd_write_7021_reg 0C06  
                           _m_KeyOptSetMode 003A                              _m_KeyOpenCount 00D8  
                    ??__SetRegistrationMode 0078                ??__ClearSpecialMultiKeyState 0073  
                             _SysClock_Init 093C                      __end_of_dd_set_TX_mode 0800  
