

Microchip MPLAB XC8 Assembler V2.20 build 20200408173844 
                                                                                               Mon May 25 16:12:24 2020

Microchip MPLAB XC8 C Compiler v2.20 (Free license) build 20200408173844 Og1 
     1                           	processor	16F1829
     2                           	pagewidth 120
     3                           	opt	flic
     4                           	psect	stringtext1,global,class=STRCODE,delta=2,noexec
     5                           	psect	stringtext2,global,class=STRCODE,delta=2,noexec
     6                           	psect	cinit,global,class=CODE,merge=1,delta=2
     7                           	psect	bssCOMMON,global,class=COMMON,space=1,delta=1,noexec
     8                           	psect	bssBANK0,global,class=BANK0,space=1,delta=1,noexec
     9                           	psect	bssBANK1,global,class=BANK1,space=1,delta=1,noexec
    10                           	psect	bssBANK2,global,class=BANK2,space=1,delta=1,noexec
    11                           	psect	clrtext,global,class=CODE,delta=2
    12                           	psect	cstackCOMMON,global,class=COMMON,space=1,delta=1,noexec
    13                           	psect	cstackBANK0,global,class=BANK0,space=1,delta=1,noexec
    14                           	psect	maintext,global,class=CODE,merge=1,split=1,delta=2
    15                           	psect	text1,local,class=CODE,merge=1,delta=2
    16                           	psect	text2,local,class=CODE,merge=1,delta=2
    17                           	psect	text3,local,class=CODE,merge=1,delta=2
    18                           	psect	text4,local,class=CODE,merge=1,delta=2
    19                           	psect	text5,local,class=CODE,merge=1,delta=2
    20                           	psect	text6,local,class=CODE,merge=1,delta=2
    21                           	psect	text7,local,class=CODE,merge=1,delta=2,group=1
    22                           	psect	text8,local,class=CODE,merge=1,delta=2
    23                           	psect	text9,local,class=CODE,merge=1,delta=2
    24                           	psect	text10,local,class=CODE,merge=1,delta=2
    25                           	psect	text11,local,class=CODE,merge=1,delta=2
    26                           	psect	text12,local,class=CODE,merge=1,delta=2
    27                           	psect	text13,local,class=CODE,merge=1,delta=2
    28                           	psect	text14,local,class=CODE,merge=1,delta=2
    29                           	psect	text15,local,class=CODE,merge=1,delta=2
    30                           	psect	text16,local,class=CODE,merge=1,delta=2
    31                           	psect	text17,local,class=CODE,merge=1,delta=2
    32                           	psect	text18,local,class=CODE,merge=1,delta=2
    33                           	psect	text19,local,class=CODE,merge=1,delta=2
    34                           	psect	text20,local,class=CODE,merge=1,delta=2
    35                           	psect	text21,local,class=CODE,merge=1,delta=2
    36                           	psect	text22,local,class=CODE,merge=1,delta=2
    37                           	psect	text23,local,class=CODE,merge=1,delta=2
    38                           	psect	text24,local,class=CODE,merge=1,delta=2
    39                           	psect	text25,local,class=CODE,merge=1,delta=2
    40                           	psect	text26,local,class=CODE,merge=1,delta=2
    41                           	psect	text27,local,class=CODE,merge=1,delta=2
    42                           	psect	text28,local,class=CODE,merge=1,delta=2
    43                           	psect	text29,local,class=CODE,merge=1,delta=2
    44                           	psect	text30,local,class=CODE,merge=1,delta=2
    45                           	psect	text31,local,class=CODE,merge=1,delta=2
    46                           	psect	text32,local,class=CODE,merge=1,delta=2
    47                           	psect	text33,local,class=CODE,merge=1,delta=2
    48                           	psect	text34,local,class=CODE,merge=1,delta=2
    49                           	psect	text35,local,class=CODE,merge=1,delta=2
    50                           	psect	text36,local,class=CODE,merge=1,delta=2
    51                           	psect	text37,local,class=CODE,merge=1,delta=2
    52                           	psect	text38,local,class=CODE,merge=1,delta=2
    53                           	psect	text39,local,class=CODE,merge=1,delta=2
    54                           	psect	text40,local,class=CODE,merge=1,delta=2
    55                           	psect	text41,local,class=CODE,merge=1,delta=2
    56                           	psect	text42,local,class=CODE,merge=1,delta=2
    57                           	psect	text43,local,class=CODE,merge=1,delta=2
    58                           	psect	text44,local,class=CODE,merge=1,delta=2
    59                           	psect	text45,local,class=CODE,merge=1,delta=2
    60                           	psect	text46,local,class=CODE,merge=1,delta=2
    61                           	psect	text47,local,class=CODE,merge=1,delta=2
    62                           	psect	text48,local,class=CODE,merge=1,delta=2
    63                           	psect	text49,local,class=CODE,merge=1,delta=2
    64                           	psect	text50,local,class=CODE,merge=1,delta=2
    65                           	psect	text51,local,class=CODE,merge=1,delta=2
    66                           	psect	text52,local,class=CODE,merge=1,delta=2
    67                           	psect	text53,local,class=CODE,merge=1,delta=2
    68                           	psect	text54,local,class=CODE,merge=1,delta=2
    69                           	psect	intentry,global,class=CODE,delta=2
    70                           	psect	text56,local,class=CODE,merge=1,delta=2
    71                           	dabs	1,0x7E,2
    72  0000                     
    73                           ; Version 2.20
    74                           ; Generated 09/04/2020 GMT
    75                           ; 
    76                           ; Copyright © 2020, Microchip Technology Inc. and its subsidiaries ("Microchip")
    77                           ; All rights reserved.
    78                           ; 
    79                           ; This software is developed by Microchip Technology Inc. and its subsidiaries ("Microch
      +                          ip").
    80                           ; 
    81                           ; Redistribution and use in source and binary forms, with or without modification, are
    82                           ; permitted provided that the following conditions are met:
    83                           ; 
    84                           ;     1. Redistributions of source code must retain the above copyright notice, this lis
      +                          t of
    85                           ;        conditions and the following disclaimer.
    86                           ; 
    87                           ;     2. Redistributions in binary form must reproduce the above copyright notice, this 
      +                          list
    88                           ;        of conditions and the following disclaimer in the documentation and/or other
    89                           ;        materials provided with the distribution.
    90                           ; 
    91                           ;     3. Microchip's name may not be used to endorse or promote products derived from th
      +                          is
    92                           ;        software without specific prior written permission.
    93                           ; 
    94                           ; THIS SOFTWARE IS PROVIDED BY MICROCHIP "AS IS" AND ANY EXPRESS OR IMPLIED WARRANTIES,
    95                           ; INCLUDING, BUT NOT LIMITED TO, THE IMPLIED WARRANTIES OF MERCHANTABILITY AND FITNESS F
      +                          OR
    96                           ; PURPOSE ARE DISCLAIMED.  IN NO EVENT SHALL MICROCHIP BE LIABLE FOR ANY DIRECT, INDIREC
      +                          T,
    97                           ; INCIDENTAL, SPECIAL, EXEMPLARY, OR CONSEQUENTIAL DAMAGES (INCLUDING BUT NOT LIMITED TO
    98                           ; PROCUREMENT OF SUBSTITUTE GOODS OR SERVICES; LOSS OF USE, DATA OR PROFITS; OR BUSINESS
    99                           ; INTERRUPTION) HOWSOEVER CAUSED AND ON ANY THEORY OF LIABILITY, WHETHER IN CONTRACT, ST
      +                          RICT
   100                           ; LIABILITY, OR TORT (INCLUDING NEGLIGENCE OR OTHERWISE) ARISING IN ANY WAY OUT OF THE U
      +                          SE OF
   101                           ; THIS SOFTWARE, EVEN IF ADVISED OF THE POSSIBILITY OF SUCH DAMAGE.
   102                           ; 
   103                           ; 
   104                           ; Code-generator required, PIC16F1829 Definitions
   105                           ; 
   106                           ; SFR Addresses
   107  0000                     	;# 
   108  0001                     	;# 
   109  0002                     	;# 
   110  0003                     	;# 
   111  0004                     	;# 
   112  0005                     	;# 
   113  0006                     	;# 
   114  0007                     	;# 
   115  0008                     	;# 
   116  0009                     	;# 
   117  000A                     	;# 
   118  000B                     	;# 
   119  000C                     	;# 
   120  000D                     	;# 
   121  000E                     	;# 
   122  0011                     	;# 
   123  0012                     	;# 
   124  0013                     	;# 
   125  0014                     	;# 
   126  0015                     	;# 
   127  0016                     	;# 
   128  0016                     	;# 
   129  0017                     	;# 
   130  0018                     	;# 
   131  0019                     	;# 
   132  001A                     	;# 
   133  001B                     	;# 
   134  001C                     	;# 
   135  001E                     	;# 
   136  001F                     	;# 
   137  008C                     	;# 
   138  008D                     	;# 
   139  008E                     	;# 
   140  0091                     	;# 
   141  0092                     	;# 
   142  0093                     	;# 
   143  0094                     	;# 
   144  0095                     	;# 
   145  0096                     	;# 
   146  0097                     	;# 
   147  0098                     	;# 
   148  0099                     	;# 
   149  009A                     	;# 
   150  009B                     	;# 
   151  009B                     	;# 
   152  009C                     	;# 
   153  009D                     	;# 
   154  009E                     	;# 
   155  010C                     	;# 
   156  010D                     	;# 
   157  010E                     	;# 
   158  0111                     	;# 
   159  0112                     	;# 
   160  0113                     	;# 
   161  0114                     	;# 
   162  0115                     	;# 
   163  0116                     	;# 
   164  0117                     	;# 
   165  0118                     	;# 
   166  0119                     	;# 
   167  011A                     	;# 
   168  011B                     	;# 
   169  011D                     	;# 
   170  011E                     	;# 
   171  018C                     	;# 
   172  018D                     	;# 
   173  018E                     	;# 
   174  0191                     	;# 
   175  0191                     	;# 
   176  0192                     	;# 
   177  0193                     	;# 
   178  0193                     	;# 
   179  0193                     	;# 
   180  0194                     	;# 
   181  0195                     	;# 
   182  0196                     	;# 
   183  0199                     	;# 
   184  019A                     	;# 
   185  019B                     	;# 
   186  019B                     	;# 
   187  019C                     	;# 
   188  019D                     	;# 
   189  019E                     	;# 
   190  019F                     	;# 
   191  020C                     	;# 
   192  020D                     	;# 
   193  020E                     	;# 
   194  0211                     	;# 
   195  0211                     	;# 
   196  0212                     	;# 
   197  0212                     	;# 
   198  0213                     	;# 
   199  0213                     	;# 
   200  0214                     	;# 
   201  0214                     	;# 
   202  0215                     	;# 
   203  0215                     	;# 
   204  0215                     	;# 
   205  0216                     	;# 
   206  0216                     	;# 
   207  0217                     	;# 
   208  0217                     	;# 
   209  0219                     	;# 
   210  021A                     	;# 
   211  021B                     	;# 
   212  021C                     	;# 
   213  021D                     	;# 
   214  021E                     	;# 
   215  021F                     	;# 
   216  0291                     	;# 
   217  0291                     	;# 
   218  0292                     	;# 
   219  0293                     	;# 
   220  0294                     	;# 
   221  0295                     	;# 
   222  0295                     	;# 
   223  0296                     	;# 
   224  0298                     	;# 
   225  0298                     	;# 
   226  0299                     	;# 
   227  029A                     	;# 
   228  029B                     	;# 
   229  029C                     	;# 
   230  029D                     	;# 
   231  029E                     	;# 
   232  0311                     	;# 
   233  0311                     	;# 
   234  0312                     	;# 
   235  0313                     	;# 
   236  0318                     	;# 
   237  0318                     	;# 
   238  0319                     	;# 
   239  031A                     	;# 
   240  038C                     	;# 
   241  038D                     	;# 
   242  038E                     	;# 
   243  0391                     	;# 
   244  0392                     	;# 
   245  0393                     	;# 
   246  0394                     	;# 
   247  0395                     	;# 
   248  0396                     	;# 
   249  039A                     	;# 
   250  039C                     	;# 
   251  039D                     	;# 
   252  039E                     	;# 
   253  039F                     	;# 
   254  0415                     	;# 
   255  0416                     	;# 
   256  0417                     	;# 
   257  041C                     	;# 
   258  041D                     	;# 
   259  041E                     	;# 
   260  0FE4                     	;# 
   261  0FE5                     	;# 
   262  0FE6                     	;# 
   263  0FE7                     	;# 
   264  0FE8                     	;# 
   265  0FE9                     	;# 
   266  0FEA                     	;# 
   267  0FEB                     	;# 
   268  0FED                     	;# 
   269  0FEE                     	;# 
   270  0FEF                     	;# 
   271  0000                     	;# 
   272  0001                     	;# 
   273  0002                     	;# 
   274  0003                     	;# 
   275  0004                     	;# 
   276  0005                     	;# 
   277  0006                     	;# 
   278  0007                     	;# 
   279  0008                     	;# 
   280  0009                     	;# 
   281  000A                     	;# 
   282  000B                     	;# 
   283  000C                     	;# 
   284  000D                     	;# 
   285  000E                     	;# 
   286  0011                     	;# 
   287  0012                     	;# 
   288  0013                     	;# 
   289  0014                     	;# 
   290  0015                     	;# 
   291  0016                     	;# 
   292  0016                     	;# 
   293  0017                     	;# 
   294  0018                     	;# 
   295  0019                     	;# 
   296  001A                     	;# 
   297  001B                     	;# 
   298  001C                     	;# 
   299  001E                     	;# 
   300  001F                     	;# 
   301  008C                     	;# 
   302  008D                     	;# 
   303  008E                     	;# 
   304  0091                     	;# 
   305  0092                     	;# 
   306  0093                     	;# 
   307  0094                     	;# 
   308  0095                     	;# 
   309  0096                     	;# 
   310  0097                     	;# 
   311  0098                     	;# 
   312  0099                     	;# 
   313  009A                     	;# 
   314  009B                     	;# 
   315  009B                     	;# 
   316  009C                     	;# 
   317  009D                     	;# 
   318  009E                     	;# 
   319  010C                     	;# 
   320  010D                     	;# 
   321  010E                     	;# 
   322  0111                     	;# 
   323  0112                     	;# 
   324  0113                     	;# 
   325  0114                     	;# 
   326  0115                     	;# 
   327  0116                     	;# 
   328  0117                     	;# 
   329  0118                     	;# 
   330  0119                     	;# 
   331  011A                     	;# 
   332  011B                     	;# 
   333  011D                     	;# 
   334  011E                     	;# 
   335  018C                     	;# 
   336  018D                     	;# 
   337  018E                     	;# 
   338  0191                     	;# 
   339  0191                     	;# 
   340  0192                     	;# 
   341  0193                     	;# 
   342  0193                     	;# 
   343  0193                     	;# 
   344  0194                     	;# 
   345  0195                     	;# 
   346  0196                     	;# 
   347  0199                     	;# 
   348  019A                     	;# 
   349  019B                     	;# 
   350  019B                     	;# 
   351  019C                     	;# 
   352  019D                     	;# 
   353  019E                     	;# 
   354  019F                     	;# 
   355  020C                     	;# 
   356  020D                     	;# 
   357  020E                     	;# 
   358  0211                     	;# 
   359  0211                     	;# 
   360  0212                     	;# 
   361  0212                     	;# 
   362  0213                     	;# 
   363  0213                     	;# 
   364  0214                     	;# 
   365  0214                     	;# 
   366  0215                     	;# 
   367  0215                     	;# 
   368  0215                     	;# 
   369  0216                     	;# 
   370  0216                     	;# 
   371  0217                     	;# 
   372  0217                     	;# 
   373  0219                     	;# 
   374  021A                     	;# 
   375  021B                     	;# 
   376  021C                     	;# 
   377  021D                     	;# 
   378  021E                     	;# 
   379  021F                     	;# 
   380  0291                     	;# 
   381  0291                     	;# 
   382  0292                     	;# 
   383  0293                     	;# 
   384  0294                     	;# 
   385  0295                     	;# 
   386  0295                     	;# 
   387  0296                     	;# 
   388  0298                     	;# 
   389  0298                     	;# 
   390  0299                     	;# 
   391  029A                     	;# 
   392  029B                     	;# 
   393  029C                     	;# 
   394  029D                     	;# 
   395  029E                     	;# 
   396  0311                     	;# 
   397  0311                     	;# 
   398  0312                     	;# 
   399  0313                     	;# 
   400  0318                     	;# 
   401  0318                     	;# 
   402  0319                     	;# 
   403  031A                     	;# 
   404  038C                     	;# 
   405  038D                     	;# 
   406  038E                     	;# 
   407  0391                     	;# 
   408  0392                     	;# 
   409  0393                     	;# 
   410  0394                     	;# 
   411  0395                     	;# 
   412  0396                     	;# 
   413  039A                     	;# 
   414  039C                     	;# 
   415  039D                     	;# 
   416  039E                     	;# 
   417  039F                     	;# 
   418  0415                     	;# 
   419  0416                     	;# 
   420  0417                     	;# 
   421  041C                     	;# 
   422  041D                     	;# 
   423  041E                     	;# 
   424  0FE4                     	;# 
   425  0FE5                     	;# 
   426  0FE6                     	;# 
   427  0FE7                     	;# 
   428  0FE8                     	;# 
   429  0FE9                     	;# 
   430  0FEA                     	;# 
   431  0FEB                     	;# 
   432  0FED                     	;# 
   433  0FEE                     	;# 
   434  0FEF                     	;# 
   435  0000                     	;# 
   436  0001                     	;# 
   437  0002                     	;# 
   438  0003                     	;# 
   439  0004                     	;# 
   440  0005                     	;# 
   441  0006                     	;# 
   442  0007                     	;# 
   443  0008                     	;# 
   444  0009                     	;# 
   445  000A                     	;# 
   446  000B                     	;# 
   447  000C                     	;# 
   448  000D                     	;# 
   449  000E                     	;# 
   450  0011                     	;# 
   451  0012                     	;# 
   452  0013                     	;# 
   453  0014                     	;# 
   454  0015                     	;# 
   455  0016                     	;# 
   456  0016                     	;# 
   457  0017                     	;# 
   458  0018                     	;# 
   459  0019                     	;# 
   460  001A                     	;# 
   461  001B                     	;# 
   462  001C                     	;# 
   463  001E                     	;# 
   464  001F                     	;# 
   465  008C                     	;# 
   466  008D                     	;# 
   467  008E                     	;# 
   468  0091                     	;# 
   469  0092                     	;# 
   470  0093                     	;# 
   471  0094                     	;# 
   472  0095                     	;# 
   473  0096                     	;# 
   474  0097                     	;# 
   475  0098                     	;# 
   476  0099                     	;# 
   477  009A                     	;# 
   478  009B                     	;# 
   479  009B                     	;# 
   480  009C                     	;# 
   481  009D                     	;# 
   482  009E                     	;# 
   483  010C                     	;# 
   484  010D                     	;# 
   485  010E                     	;# 
   486  0111                     	;# 
   487  0112                     	;# 
   488  0113                     	;# 
   489  0114                     	;# 
   490  0115                     	;# 
   491  0116                     	;# 
   492  0117                     	;# 
   493  0118                     	;# 
   494  0119                     	;# 
   495  011A                     	;# 
   496  011B                     	;# 
   497  011D                     	;# 
   498  011E                     	;# 
   499  018C                     	;# 
   500  018D                     	;# 
   501  018E                     	;# 
   502  0191                     	;# 
   503  0191                     	;# 
   504  0192                     	;# 
   505  0193                     	;# 
   506  0193                     	;# 
   507  0193                     	;# 
   508  0194                     	;# 
   509  0195                     	;# 
   510  0196                     	;# 
   511  0199                     	;# 
   512  019A                     	;# 
   513  019B                     	;# 
   514  019B                     	;# 
   515  019C                     	;# 
   516  019D                     	;# 
   517  019E                     	;# 
   518  019F                     	;# 
   519  020C                     	;# 
   520  020D                     	;# 
   521  020E                     	;# 
   522  0211                     	;# 
   523  0211                     	;# 
   524  0212                     	;# 
   525  0212                     	;# 
   526  0213                     	;# 
   527  0213                     	;# 
   528  0214                     	;# 
   529  0214                     	;# 
   530  0215                     	;# 
   531  0215                     	;# 
   532  0215                     	;# 
   533  0216                     	;# 
   534  0216                     	;# 
   535  0217                     	;# 
   536  0217                     	;# 
   537  0219                     	;# 
   538  021A                     	;# 
   539  021B                     	;# 
   540  021C                     	;# 
   541  021D                     	;# 
   542  021E                     	;# 
   543  021F                     	;# 
   544  0291                     	;# 
   545  0291                     	;# 
   546  0292                     	;# 
   547  0293                     	;# 
   548  0294                     	;# 
   549  0295                     	;# 
   550  0295                     	;# 
   551  0296                     	;# 
   552  0298                     	;# 
   553  0298                     	;# 
   554  0299                     	;# 
   555  029A                     	;# 
   556  029B                     	;# 
   557  029C                     	;# 
   558  029D                     	;# 
   559  029E                     	;# 
   560  0311                     	;# 
   561  0311                     	;# 
   562  0312                     	;# 
   563  0313                     	;# 
   564  0318                     	;# 
   565  0318                     	;# 
   566  0319                     	;# 
   567  031A                     	;# 
   568  038C                     	;# 
   569  038D                     	;# 
   570  038E                     	;# 
   571  0391                     	;# 
   572  0392                     	;# 
   573  0393                     	;# 
   574  0394                     	;# 
   575  0395                     	;# 
   576  0396                     	;# 
   577  039A                     	;# 
   578  039C                     	;# 
   579  039D                     	;# 
   580  039E                     	;# 
   581  039F                     	;# 
   582  0415                     	;# 
   583  0416                     	;# 
   584  0417                     	;# 
   585  041C                     	;# 
   586  041D                     	;# 
   587  041E                     	;# 
   588  0FE4                     	;# 
   589  0FE5                     	;# 
   590  0FE6                     	;# 
   591  0FE7                     	;# 
   592  0FE8                     	;# 
   593  0FE9                     	;# 
   594  0FEA                     	;# 
   595  0FEB                     	;# 
   596  0FED                     	;# 
   597  0FEE                     	;# 
   598  0FEF                     	;# 
   599  0000                     	;# 
   600  0001                     	;# 
   601  0002                     	;# 
   602  0003                     	;# 
   603  0004                     	;# 
   604  0005                     	;# 
   605  0006                     	;# 
   606  0007                     	;# 
   607  0008                     	;# 
   608  0009                     	;# 
   609  000A                     	;# 
   610  000B                     	;# 
   611  000C                     	;# 
   612  000D                     	;# 
   613  000E                     	;# 
   614  0011                     	;# 
   615  0012                     	;# 
   616  0013                     	;# 
   617  0014                     	;# 
   618  0015                     	;# 
   619  0016                     	;# 
   620  0016                     	;# 
   621  0017                     	;# 
   622  0018                     	;# 
   623  0019                     	;# 
   624  001A                     	;# 
   625  001B                     	;# 
   626  001C                     	;# 
   627  001E                     	;# 
   628  001F                     	;# 
   629  008C                     	;# 
   630  008D                     	;# 
   631  008E                     	;# 
   632  0091                     	;# 
   633  0092                     	;# 
   634  0093                     	;# 
   635  0094                     	;# 
   636  0095                     	;# 
   637  0096                     	;# 
   638  0097                     	;# 
   639  0098                     	;# 
   640  0099                     	;# 
   641  009A                     	;# 
   642  009B                     	;# 
   643  009B                     	;# 
   644  009C                     	;# 
   645  009D                     	;# 
   646  009E                     	;# 
   647  010C                     	;# 
   648  010D                     	;# 
   649  010E                     	;# 
   650  0111                     	;# 
   651  0112                     	;# 
   652  0113                     	;# 
   653  0114                     	;# 
   654  0115                     	;# 
   655  0116                     	;# 
   656  0117                     	;# 
   657  0118                     	;# 
   658  0119                     	;# 
   659  011A                     	;# 
   660  011B                     	;# 
   661  011D                     	;# 
   662  011E                     	;# 
   663  018C                     	;# 
   664  018D                     	;# 
   665  018E                     	;# 
   666  0191                     	;# 
   667  0191                     	;# 
   668  0192                     	;# 
   669  0193                     	;# 
   670  0193                     	;# 
   671  0193                     	;# 
   672  0194                     	;# 
   673  0195                     	;# 
   674  0196                     	;# 
   675  0199                     	;# 
   676  019A                     	;# 
   677  019B                     	;# 
   678  019B                     	;# 
   679  019C                     	;# 
   680  019D                     	;# 
   681  019E                     	;# 
   682  019F                     	;# 
   683  020C                     	;# 
   684  020D                     	;# 
   685  020E                     	;# 
   686  0211                     	;# 
   687  0211                     	;# 
   688  0212                     	;# 
   689  0212                     	;# 
   690  0213                     	;# 
   691  0213                     	;# 
   692  0214                     	;# 
   693  0214                     	;# 
   694  0215                     	;# 
   695  0215                     	;# 
   696  0215                     	;# 
   697  0216                     	;# 
   698  0216                     	;# 
   699  0217                     	;# 
   700  0217                     	;# 
   701  0219                     	;# 
   702  021A                     	;# 
   703  021B                     	;# 
   704  021C                     	;# 
   705  021D                     	;# 
   706  021E                     	;# 
   707  021F                     	;# 
   708  0291                     	;# 
   709  0291                     	;# 
   710  0292                     	;# 
   711  0293                     	;# 
   712  0294                     	;# 
   713  0295                     	;# 
   714  0295                     	;# 
   715  0296                     	;# 
   716  0298                     	;# 
   717  0298                     	;# 
   718  0299                     	;# 
   719  029A                     	;# 
   720  029B                     	;# 
   721  029C                     	;# 
   722  029D                     	;# 
   723  029E                     	;# 
   724  0311                     	;# 
   725  0311                     	;# 
   726  0312                     	;# 
   727  0313                     	;# 
   728  0318                     	;# 
   729  0318                     	;# 
   730  0319                     	;# 
   731  031A                     	;# 
   732  038C                     	;# 
   733  038D                     	;# 
   734  038E                     	;# 
   735  0391                     	;# 
   736  0392                     	;# 
   737  0393                     	;# 
   738  0394                     	;# 
   739  0395                     	;# 
   740  0396                     	;# 
   741  039A                     	;# 
   742  039C                     	;# 
   743  039D                     	;# 
   744  039E                     	;# 
   745  039F                     	;# 
   746  0415                     	;# 
   747  0416                     	;# 
   748  0417                     	;# 
   749  041C                     	;# 
   750  041D                     	;# 
   751  041E                     	;# 
   752  0FE4                     	;# 
   753  0FE5                     	;# 
   754  0FE6                     	;# 
   755  0FE7                     	;# 
   756  0FE8                     	;# 
   757  0FE9                     	;# 
   758  0FEA                     	;# 
   759  0FEB                     	;# 
   760  0FED                     	;# 
   761  0FEE                     	;# 
   762  0FEF                     	;# 
   763  0000                     	;# 
   764  0001                     	;# 
   765  0002                     	;# 
   766  0003                     	;# 
   767  0004                     	;# 
   768  0005                     	;# 
   769  0006                     	;# 
   770  0007                     	;# 
   771  0008                     	;# 
   772  0009                     	;# 
   773  000A                     	;# 
   774  000B                     	;# 
   775  000C                     	;# 
   776  000D                     	;# 
   777  000E                     	;# 
   778  0011                     	;# 
   779  0012                     	;# 
   780  0013                     	;# 
   781  0014                     	;# 
   782  0015                     	;# 
   783  0016                     	;# 
   784  0016                     	;# 
   785  0017                     	;# 
   786  0018                     	;# 
   787  0019                     	;# 
   788  001A                     	;# 
   789  001B                     	;# 
   790  001C                     	;# 
   791  001E                     	;# 
   792  001F                     	;# 
   793  008C                     	;# 
   794  008D                     	;# 
   795  008E                     	;# 
   796  0091                     	;# 
   797  0092                     	;# 
   798  0093                     	;# 
   799  0094                     	;# 
   800  0095                     	;# 
   801  0096                     	;# 
   802  0097                     	;# 
   803  0098                     	;# 
   804  0099                     	;# 
   805  009A                     	;# 
   806  009B                     	;# 
   807  009B                     	;# 
   808  009C                     	;# 
   809  009D                     	;# 
   810  009E                     	;# 
   811  010C                     	;# 
   812  010D                     	;# 
   813  010E                     	;# 
   814  0111                     	;# 
   815  0112                     	;# 
   816  0113                     	;# 
   817  0114                     	;# 
   818  0115                     	;# 
   819  0116                     	;# 
   820  0117                     	;# 
   821  0118                     	;# 
   822  0119                     	;# 
   823  011A                     	;# 
   824  011B                     	;# 
   825  011D                     	;# 
   826  011E                     	;# 
   827  018C                     	;# 
   828  018D                     	;# 
   829  018E                     	;# 
   830  0191                     	;# 
   831  0191                     	;# 
   832  0192                     	;# 
   833  0193                     	;# 
   834  0193                     	;# 
   835  0193                     	;# 
   836  0194                     	;# 
   837  0195                     	;# 
   838  0196                     	;# 
   839  0199                     	;# 
   840  019A                     	;# 
   841  019B                     	;# 
   842  019B                     	;# 
   843  019C                     	;# 
   844  019D                     	;# 
   845  019E                     	;# 
   846  019F                     	;# 
   847  020C                     	;# 
   848  020D                     	;# 
   849  020E                     	;# 
   850  0211                     	;# 
   851  0211                     	;# 
   852  0212                     	;# 
   853  0212                     	;# 
   854  0213                     	;# 
   855  0213                     	;# 
   856  0214                     	;# 
   857  0214                     	;# 
   858  0215                     	;# 
   859  0215                     	;# 
   860  0215                     	;# 
   861  0216                     	;# 
   862  0216                     	;# 
   863  0217                     	;# 
   864  0217                     	;# 
   865  0219                     	;# 
   866  021A                     	;# 
   867  021B                     	;# 
   868  021C                     	;# 
   869  021D                     	;# 
   870  021E                     	;# 
   871  021F                     	;# 
   872  0291                     	;# 
   873  0291                     	;# 
   874  0292                     	;# 
   875  0293                     	;# 
   876  0294                     	;# 
   877  0295                     	;# 
   878  0295                     	;# 
   879  0296                     	;# 
   880  0298                     	;# 
   881  0298                     	;# 
   882  0299                     	;# 
   883  029A                     	;# 
   884  029B                     	;# 
   885  029C                     	;# 
   886  029D                     	;# 
   887  029E                     	;# 
   888  0311                     	;# 
   889  0311                     	;# 
   890  0312                     	;# 
   891  0313                     	;# 
   892  0318                     	;# 
   893  0318                     	;# 
   894  0319                     	;# 
   895  031A                     	;# 
   896  038C                     	;# 
   897  038D                     	;# 
   898  038E                     	;# 
   899  0391                     	;# 
   900  0392                     	;# 
   901  0393                     	;# 
   902  0394                     	;# 
   903  0395                     	;# 
   904  0396                     	;# 
   905  039A                     	;# 
   906  039C                     	;# 
   907  039D                     	;# 
   908  039E                     	;# 
   909  039F                     	;# 
   910  0415                     	;# 
   911  0416                     	;# 
   912  0417                     	;# 
   913  041C                     	;# 
   914  041D                     	;# 
   915  041E                     	;# 
   916  0FE4                     	;# 
   917  0FE5                     	;# 
   918  0FE6                     	;# 
   919  0FE7                     	;# 
   920  0FE8                     	;# 
   921  0FE9                     	;# 
   922  0FEA                     	;# 
   923  0FEB                     	;# 
   924  0FED                     	;# 
   925  0FEE                     	;# 
   926  0FEF                     	;# 
   927  0000                     	;# 
   928  0001                     	;# 
   929  0002                     	;# 
   930  0003                     	;# 
   931  0004                     	;# 
   932  0005                     	;# 
   933  0006                     	;# 
   934  0007                     	;# 
   935  0008                     	;# 
   936  0009                     	;# 
   937  000A                     	;# 
   938  000B                     	;# 
   939  000C                     	;# 
   940  000D                     	;# 
   941  000E                     	;# 
   942  0011                     	;# 
   943  0012                     	;# 
   944  0013                     	;# 
   945  0014                     	;# 
   946  0015                     	;# 
   947  0016                     	;# 
   948  0016                     	;# 
   949  0017                     	;# 
   950  0018                     	;# 
   951  0019                     	;# 
   952  001A                     	;# 
   953  001B                     	;# 
   954  001C                     	;# 
   955  001E                     	;# 
   956  001F                     	;# 
   957  008C                     	;# 
   958  008D                     	;# 
   959  008E                     	;# 
   960  0091                     	;# 
   961  0092                     	;# 
   962  0093                     	;# 
   963  0094                     	;# 
   964  0095                     	;# 
   965  0096                     	;# 
   966  0097                     	;# 
   967  0098                     	;# 
   968  0099                     	;# 
   969  009A                     	;# 
   970  009B                     	;# 
   971  009B                     	;# 
   972  009C                     	;# 
   973  009D                     	;# 
   974  009E                     	;# 
   975  010C                     	;# 
   976  010D                     	;# 
   977  010E                     	;# 
   978  0111                     	;# 
   979  0112                     	;# 
   980  0113                     	;# 
   981  0114                     	;# 
   982  0115                     	;# 
   983  0116                     	;# 
   984  0117                     	;# 
   985  0118                     	;# 
   986  0119                     	;# 
   987  011A                     	;# 
   988  011B                     	;# 
   989  011D                     	;# 
   990  011E                     	;# 
   991  018C                     	;# 
   992  018D                     	;# 
   993  018E                     	;# 
   994  0191                     	;# 
   995  0191                     	;# 
   996  0192                     	;# 
   997  0193                     	;# 
   998  0193                     	;# 
   999  0193                     	;# 
  1000  0194                     	;# 
  1001  0195                     	;# 
  1002  0196                     	;# 
  1003  0199                     	;# 
  1004  019A                     	;# 
  1005  019B                     	;# 
  1006  019B                     	;# 
  1007  019C                     	;# 
  1008  019D                     	;# 
  1009  019E                     	;# 
  1010  019F                     	;# 
  1011  020C                     	;# 
  1012  020D                     	;# 
  1013  020E                     	;# 
  1014  0211                     	;# 
  1015  0211                     	;# 
  1016  0212                     	;# 
  1017  0212                     	;# 
  1018  0213                     	;# 
  1019  0213                     	;# 
  1020  0214                     	;# 
  1021  0214                     	;# 
  1022  0215                     	;# 
  1023  0215                     	;# 
  1024  0215                     	;# 
  1025  0216                     	;# 
  1026  0216                     	;# 
  1027  0217                     	;# 
  1028  0217                     	;# 
  1029  0219                     	;# 
  1030  021A                     	;# 
  1031  021B                     	;# 
  1032  021C                     	;# 
  1033  021D                     	;# 
  1034  021E                     	;# 
  1035  021F                     	;# 
  1036  0291                     	;# 
  1037  0291                     	;# 
  1038  0292                     	;# 
  1039  0293                     	;# 
  1040  0294                     	;# 
  1041  0295                     	;# 
  1042  0295                     	;# 
  1043  0296                     	;# 
  1044  0298                     	;# 
  1045  0298                     	;# 
  1046  0299                     	;# 
  1047  029A                     	;# 
  1048  029B                     	;# 
  1049  029C                     	;# 
  1050  029D                     	;# 
  1051  029E                     	;# 
  1052  0311                     	;# 
  1053  0311                     	;# 
  1054  0312                     	;# 
  1055  0313                     	;# 
  1056  0318                     	;# 
  1057  0318                     	;# 
  1058  0319                     	;# 
  1059  031A                     	;# 
  1060  038C                     	;# 
  1061  038D                     	;# 
  1062  038E                     	;# 
  1063  0391                     	;# 
  1064  0392                     	;# 
  1065  0393                     	;# 
  1066  0394                     	;# 
  1067  0395                     	;# 
  1068  0396                     	;# 
  1069  039A                     	;# 
  1070  039C                     	;# 
  1071  039D                     	;# 
  1072  039E                     	;# 
  1073  039F                     	;# 
  1074  0415                     	;# 
  1075  0416                     	;# 
  1076  0417                     	;# 
  1077  041C                     	;# 
  1078  041D                     	;# 
  1079  041E                     	;# 
  1080  0FE4                     	;# 
  1081  0FE5                     	;# 
  1082  0FE6                     	;# 
  1083  0FE7                     	;# 
  1084  0FE8                     	;# 
  1085  0FE9                     	;# 
  1086  0FEA                     	;# 
  1087  0FEB                     	;# 
  1088  0FED                     	;# 
  1089  0FEE                     	;# 
  1090  0FEF                     	;# 
  1091  0000                     	;# 
  1092  0001                     	;# 
  1093  0002                     	;# 
  1094  0003                     	;# 
  1095  0004                     	;# 
  1096  0005                     	;# 
  1097  0006                     	;# 
  1098  0007                     	;# 
  1099  0008                     	;# 
  1100  0009                     	;# 
  1101  000A                     	;# 
  1102  000B                     	;# 
  1103  000C                     	;# 
  1104  000D                     	;# 
  1105  000E                     	;# 
  1106  0011                     	;# 
  1107  0012                     	;# 
  1108  0013                     	;# 
  1109  0014                     	;# 
  1110  0015                     	;# 
  1111  0016                     	;# 
  1112  0016                     	;# 
  1113  0017                     	;# 
  1114  0018                     	;# 
  1115  0019                     	;# 
  1116  001A                     	;# 
  1117  001B                     	;# 
  1118  001C                     	;# 
  1119  001E                     	;# 
  1120  001F                     	;# 
  1121  008C                     	;# 
  1122  008D                     	;# 
  1123  008E                     	;# 
  1124  0091                     	;# 
  1125  0092                     	;# 
  1126  0093                     	;# 
  1127  0094                     	;# 
  1128  0095                     	;# 
  1129  0096                     	;# 
  1130  0097                     	;# 
  1131  0098                     	;# 
  1132  0099                     	;# 
  1133  009A                     	;# 
  1134  009B                     	;# 
  1135  009B                     	;# 
  1136  009C                     	;# 
  1137  009D                     	;# 
  1138  009E                     	;# 
  1139  010C                     	;# 
  1140  010D                     	;# 
  1141  010E                     	;# 
  1142  0111                     	;# 
  1143  0112                     	;# 
  1144  0113                     	;# 
  1145  0114                     	;# 
  1146  0115                     	;# 
  1147  0116                     	;# 
  1148  0117                     	;# 
  1149  0118                     	;# 
  1150  0119                     	;# 
  1151  011A                     	;# 
  1152  011B                     	;# 
  1153  011D                     	;# 
  1154  011E                     	;# 
  1155  018C                     	;# 
  1156  018D                     	;# 
  1157  018E                     	;# 
  1158  0191                     	;# 
  1159  0191                     	;# 
  1160  0192                     	;# 
  1161  0193                     	;# 
  1162  0193                     	;# 
  1163  0193                     	;# 
  1164  0194                     	;# 
  1165  0195                     	;# 
  1166  0196                     	;# 
  1167  0199                     	;# 
  1168  019A                     	;# 
  1169  019B                     	;# 
  1170  019B                     	;# 
  1171  019C                     	;# 
  1172  019D                     	;# 
  1173  019E                     	;# 
  1174  019F                     	;# 
  1175  020C                     	;# 
  1176  020D                     	;# 
  1177  020E                     	;# 
  1178  0211                     	;# 
  1179  0211                     	;# 
  1180  0212                     	;# 
  1181  0212                     	;# 
  1182  0213                     	;# 
  1183  0213                     	;# 
  1184  0214                     	;# 
  1185  0214                     	;# 
  1186  0215                     	;# 
  1187  0215                     	;# 
  1188  0215                     	;# 
  1189  0216                     	;# 
  1190  0216                     	;# 
  1191  0217                     	;# 
  1192  0217                     	;# 
  1193  0219                     	;# 
  1194  021A                     	;# 
  1195  021B                     	;# 
  1196  021C                     	;# 
  1197  021D                     	;# 
  1198  021E                     	;# 
  1199  021F                     	;# 
  1200  0291                     	;# 
  1201  0291                     	;# 
  1202  0292                     	;# 
  1203  0293                     	;# 
  1204  0294                     	;# 
  1205  0295                     	;# 
  1206  0295                     	;# 
  1207  0296                     	;# 
  1208  0298                     	;# 
  1209  0298                     	;# 
  1210  0299                     	;# 
  1211  029A                     	;# 
  1212  029B                     	;# 
  1213  029C                     	;# 
  1214  029D                     	;# 
  1215  029E                     	;# 
  1216  0311                     	;# 
  1217  0311                     	;# 
  1218  0312                     	;# 
  1219  0313                     	;# 
  1220  0318                     	;# 
  1221  0318                     	;# 
  1222  0319                     	;# 
  1223  031A                     	;# 
  1224  038C                     	;# 
  1225  038D                     	;# 
  1226  038E                     	;# 
  1227  0391                     	;# 
  1228  0392                     	;# 
  1229  0393                     	;# 
  1230  0394                     	;# 
  1231  0395                     	;# 
  1232  0396                     	;# 
  1233  039A                     	;# 
  1234  039C                     	;# 
  1235  039D                     	;# 
  1236  039E                     	;# 
  1237  039F                     	;# 
  1238  0415                     	;# 
  1239  0416                     	;# 
  1240  0417                     	;# 
  1241  041C                     	;# 
  1242  041D                     	;# 
  1243  041E                     	;# 
  1244  0FE4                     	;# 
  1245  0FE5                     	;# 
  1246  0FE6                     	;# 
  1247  0FE7                     	;# 
  1248  0FE8                     	;# 
  1249  0FE9                     	;# 
  1250  0FEA                     	;# 
  1251  0FEB                     	;# 
  1252  0FED                     	;# 
  1253  0FEE                     	;# 
  1254  0FEF                     	;# 
  1255  0000                     	;# 
  1256  0001                     	;# 
  1257  0002                     	;# 
  1258  0003                     	;# 
  1259  0004                     	;# 
  1260  0005                     	;# 
  1261  0006                     	;# 
  1262  0007                     	;# 
  1263  0008                     	;# 
  1264  0009                     	;# 
  1265  000A                     	;# 
  1266  000B                     	;# 
  1267  000C                     	;# 
  1268  000D                     	;# 
  1269  000E                     	;# 
  1270  0011                     	;# 
  1271  0012                     	;# 
  1272  0013                     	;# 
  1273  0014                     	;# 
  1274  0015                     	;# 
  1275  0016                     	;# 
  1276  0016                     	;# 
  1277  0017                     	;# 
  1278  0018                     	;# 
  1279  0019                     	;# 
  1280  001A                     	;# 
  1281  001B                     	;# 
  1282  001C                     	;# 
  1283  001E                     	;# 
  1284  001F                     	;# 
  1285  008C                     	;# 
  1286  008D                     	;# 
  1287  008E                     	;# 
  1288  0091                     	;# 
  1289  0092                     	;# 
  1290  0093                     	;# 
  1291  0094                     	;# 
  1292  0095                     	;# 
  1293  0096                     	;# 
  1294  0097                     	;# 
  1295  0098                     	;# 
  1296  0099                     	;# 
  1297  009A                     	;# 
  1298  009B                     	;# 
  1299  009B                     	;# 
  1300  009C                     	;# 
  1301  009D                     	;# 
  1302  009E                     	;# 
  1303  010C                     	;# 
  1304  010D                     	;# 
  1305  010E                     	;# 
  1306  0111                     	;# 
  1307  0112                     	;# 
  1308  0113                     	;# 
  1309  0114                     	;# 
  1310  0115                     	;# 
  1311  0116                     	;# 
  1312  0117                     	;# 
  1313  0118                     	;# 
  1314  0119                     	;# 
  1315  011A                     	;# 
  1316  011B                     	;# 
  1317  011D                     	;# 
  1318  011E                     	;# 
  1319  018C                     	;# 
  1320  018D                     	;# 
  1321  018E                     	;# 
  1322  0191                     	;# 
  1323  0191                     	;# 
  1324  0192                     	;# 
  1325  0193                     	;# 
  1326  0193                     	;# 
  1327  0193                     	;# 
  1328  0194                     	;# 
  1329  0195                     	;# 
  1330  0196                     	;# 
  1331  0199                     	;# 
  1332  019A                     	;# 
  1333  019B                     	;# 
  1334  019B                     	;# 
  1335  019C                     	;# 
  1336  019D                     	;# 
  1337  019E                     	;# 
  1338  019F                     	;# 
  1339  020C                     	;# 
  1340  020D                     	;# 
  1341  020E                     	;# 
  1342  0211                     	;# 
  1343  0211                     	;# 
  1344  0212                     	;# 
  1345  0212                     	;# 
  1346  0213                     	;# 
  1347  0213                     	;# 
  1348  0214                     	;# 
  1349  0214                     	;# 
  1350  0215                     	;# 
  1351  0215                     	;# 
  1352  0215                     	;# 
  1353  0216                     	;# 
  1354  0216                     	;# 
  1355  0217                     	;# 
  1356  0217                     	;# 
  1357  0219                     	;# 
  1358  021A                     	;# 
  1359  021B                     	;# 
  1360  021C                     	;# 
  1361  021D                     	;# 
  1362  021E                     	;# 
  1363  021F                     	;# 
  1364  0291                     	;# 
  1365  0291                     	;# 
  1366  0292                     	;# 
  1367  0293                     	;# 
  1368  0294                     	;# 
  1369  0295                     	;# 
  1370  0295                     	;# 
  1371  0296                     	;# 
  1372  0298                     	;# 
  1373  0298                     	;# 
  1374  0299                     	;# 
  1375  029A                     	;# 
  1376  029B                     	;# 
  1377  029C                     	;# 
  1378  029D                     	;# 
  1379  029E                     	;# 
  1380  0311                     	;# 
  1381  0311                     	;# 
  1382  0312                     	;# 
  1383  0313                     	;# 
  1384  0318                     	;# 
  1385  0318                     	;# 
  1386  0319                     	;# 
  1387  031A                     	;# 
  1388  038C                     	;# 
  1389  038D                     	;# 
  1390  038E                     	;# 
  1391  0391                     	;# 
  1392  0392                     	;# 
  1393  0393                     	;# 
  1394  0394                     	;# 
  1395  0395                     	;# 
  1396  0396                     	;# 
  1397  039A                     	;# 
  1398  039C                     	;# 
  1399  039D                     	;# 
  1400  039E                     	;# 
  1401  039F                     	;# 
  1402  0415                     	;# 
  1403  0416                     	;# 
  1404  0417                     	;# 
  1405  041C                     	;# 
  1406  041D                     	;# 
  1407  041E                     	;# 
  1408  0FE4                     	;# 
  1409  0FE5                     	;# 
  1410  0FE6                     	;# 
  1411  0FE7                     	;# 
  1412  0FE8                     	;# 
  1413  0FE9                     	;# 
  1414  0FEA                     	;# 
  1415  0FEB                     	;# 
  1416  0FED                     	;# 
  1417  0FEE                     	;# 
  1418  0FEF                     	;# 
  1419  0000                     nosup@@$_$_CONFIG	set	0	;# 
  1420  0000                     nosup@@$_$_CONFIG	set	0	;# 
  1421  0000                     	;# 
  1422  0001                     	;# 
  1423  0002                     	;# 
  1424  0003                     	;# 
  1425  0004                     	;# 
  1426  0005                     	;# 
  1427  0006                     	;# 
  1428  0007                     	;# 
  1429  0008                     	;# 
  1430  0009                     	;# 
  1431  000A                     	;# 
  1432  000B                     	;# 
  1433  000C                     	;# 
  1434  000D                     	;# 
  1435  000E                     	;# 
  1436  0011                     	;# 
  1437  0012                     	;# 
  1438  0013                     	;# 
  1439  0014                     	;# 
  1440  0015                     	;# 
  1441  0016                     	;# 
  1442  0016                     	;# 
  1443  0017                     	;# 
  1444  0018                     	;# 
  1445  0019                     	;# 
  1446  001A                     	;# 
  1447  001B                     	;# 
  1448  001C                     	;# 
  1449  001E                     	;# 
  1450  001F                     	;# 
  1451  008C                     	;# 
  1452  008D                     	;# 
  1453  008E                     	;# 
  1454  0091                     	;# 
  1455  0092                     	;# 
  1456  0093                     	;# 
  1457  0094                     	;# 
  1458  0095                     	;# 
  1459  0096                     	;# 
  1460  0097                     	;# 
  1461  0098                     	;# 
  1462  0099                     	;# 
  1463  009A                     	;# 
  1464  009B                     	;# 
  1465  009B                     	;# 
  1466  009C                     	;# 
  1467  009D                     	;# 
  1468  009E                     	;# 
  1469  010C                     	;# 
  1470  010D                     	;# 
  1471  010E                     	;# 
  1472  0111                     	;# 
  1473  0112                     	;# 
  1474  0113                     	;# 
  1475  0114                     	;# 
  1476  0115                     	;# 
  1477  0116                     	;# 
  1478  0117                     	;# 
  1479  0118                     	;# 
  1480  0119                     	;# 
  1481  011A                     	;# 
  1482  011B                     	;# 
  1483  011D                     	;# 
  1484  011E                     	;# 
  1485  018C                     	;# 
  1486  018D                     	;# 
  1487  018E                     	;# 
  1488  0191                     	;# 
  1489  0191                     	;# 
  1490  0192                     	;# 
  1491  0193                     	;# 
  1492  0193                     	;# 
  1493  0193                     	;# 
  1494  0194                     	;# 
  1495  0195                     	;# 
  1496  0196                     	;# 
  1497  0199                     	;# 
  1498  019A                     	;# 
  1499  019B                     	;# 
  1500  019B                     	;# 
  1501  019C                     	;# 
  1502  019D                     	;# 
  1503  019E                     	;# 
  1504  019F                     	;# 
  1505  020C                     	;# 
  1506  020D                     	;# 
  1507  020E                     	;# 
  1508  0211                     	;# 
  1509  0211                     	;# 
  1510  0212                     	;# 
  1511  0212                     	;# 
  1512  0213                     	;# 
  1513  0213                     	;# 
  1514  0214                     	;# 
  1515  0214                     	;# 
  1516  0215                     	;# 
  1517  0215                     	;# 
  1518  0215                     	;# 
  1519  0216                     	;# 
  1520  0216                     	;# 
  1521  0217                     	;# 
  1522  0217                     	;# 
  1523  0219                     	;# 
  1524  021A                     	;# 
  1525  021B                     	;# 
  1526  021C                     	;# 
  1527  021D                     	;# 
  1528  021E                     	;# 
  1529  021F                     	;# 
  1530  0291                     	;# 
  1531  0291                     	;# 
  1532  0292                     	;# 
  1533  0293                     	;# 
  1534  0294                     	;# 
  1535  0295                     	;# 
  1536  0295                     	;# 
  1537  0296                     	;# 
  1538  0298                     	;# 
  1539  0298                     	;# 
  1540  0299                     	;# 
  1541  029A                     	;# 
  1542  029B                     	;# 
  1543  029C                     	;# 
  1544  029D                     	;# 
  1545  029E                     	;# 
  1546  0311                     	;# 
  1547  0311                     	;# 
  1548  0312                     	;# 
  1549  0313                     	;# 
  1550  0318                     	;# 
  1551  0318                     	;# 
  1552  0319                     	;# 
  1553  031A                     	;# 
  1554  038C                     	;# 
  1555  038D                     	;# 
  1556  038E                     	;# 
  1557  0391                     	;# 
  1558  0392                     	;# 
  1559  0393                     	;# 
  1560  0394                     	;# 
  1561  0395                     	;# 
  1562  0396                     	;# 
  1563  039A                     	;# 
  1564  039C                     	;# 
  1565  039D                     	;# 
  1566  039E                     	;# 
  1567  039F                     	;# 
  1568  0415                     	;# 
  1569  0416                     	;# 
  1570  0417                     	;# 
  1571  041C                     	;# 
  1572  041D                     	;# 
  1573  041E                     	;# 
  1574  0FE4                     	;# 
  1575  0FE5                     	;# 
  1576  0FE6                     	;# 
  1577  0FE7                     	;# 
  1578  0FE8                     	;# 
  1579  0FE9                     	;# 
  1580  0FEA                     	;# 
  1581  0FEB                     	;# 
  1582  0FED                     	;# 
  1583  0FEE                     	;# 
  1584  0FEF                     	;# 
  1585  0000                     	;# 
  1586  0001                     	;# 
  1587  0002                     	;# 
  1588  0003                     	;# 
  1589  0004                     	;# 
  1590  0005                     	;# 
  1591  0006                     	;# 
  1592  0007                     	;# 
  1593  0008                     	;# 
  1594  0009                     	;# 
  1595  000A                     	;# 
  1596  000B                     	;# 
  1597  000C                     	;# 
  1598  000D                     	;# 
  1599  000E                     	;# 
  1600  0011                     	;# 
  1601  0012                     	;# 
  1602  0013                     	;# 
  1603  0014                     	;# 
  1604  0015                     	;# 
  1605  0016                     	;# 
  1606  0016                     	;# 
  1607  0017                     	;# 
  1608  0018                     	;# 
  1609  0019                     	;# 
  1610  001A                     	;# 
  1611  001B                     	;# 
  1612  001C                     	;# 
  1613  001E                     	;# 
  1614  001F                     	;# 
  1615  008C                     	;# 
  1616  008D                     	;# 
  1617  008E                     	;# 
  1618  0091                     	;# 
  1619  0092                     	;# 
  1620  0093                     	;# 
  1621  0094                     	;# 
  1622  0095                     	;# 
  1623  0096                     	;# 
  1624  0097                     	;# 
  1625  0098                     	;# 
  1626  0099                     	;# 
  1627  009A                     	;# 
  1628  009B                     	;# 
  1629  009B                     	;# 
  1630  009C                     	;# 
  1631  009D                     	;# 
  1632  009E                     	;# 
  1633  010C                     	;# 
  1634  010D                     	;# 
  1635  010E                     	;# 
  1636  0111                     	;# 
  1637  0112                     	;# 
  1638  0113                     	;# 
  1639  0114                     	;# 
  1640  0115                     	;# 
  1641  0116                     	;# 
  1642  0117                     	;# 
  1643  0118                     	;# 
  1644  0119                     	;# 
  1645  011A                     	;# 
  1646  011B                     	;# 
  1647  011D                     	;# 
  1648  011E                     	;# 
  1649  018C                     	;# 
  1650  018D                     	;# 
  1651  018E                     	;# 
  1652  0191                     	;# 
  1653  0191                     	;# 
  1654  0192                     	;# 
  1655  0193                     	;# 
  1656  0193                     	;# 
  1657  0193                     	;# 
  1658  0194                     	;# 
  1659  0195                     	;# 
  1660  0196                     	;# 
  1661  0199                     	;# 
  1662  019A                     	;# 
  1663  019B                     	;# 
  1664  019B                     	;# 
  1665  019C                     	;# 
  1666  019D                     	;# 
  1667  019E                     	;# 
  1668  019F                     	;# 
  1669  020C                     	;# 
  1670  020D                     	;# 
  1671  020E                     	;# 
  1672  0211                     	;# 
  1673  0211                     	;# 
  1674  0212                     	;# 
  1675  0212                     	;# 
  1676  0213                     	;# 
  1677  0213                     	;# 
  1678  0214                     	;# 
  1679  0214                     	;# 
  1680  0215                     	;# 
  1681  0215                     	;# 
  1682  0215                     	;# 
  1683  0216                     	;# 
  1684  0216                     	;# 
  1685  0217                     	;# 
  1686  0217                     	;# 
  1687  0219                     	;# 
  1688  021A                     	;# 
  1689  021B                     	;# 
  1690  021C                     	;# 
  1691  021D                     	;# 
  1692  021E                     	;# 
  1693  021F                     	;# 
  1694  0291                     	;# 
  1695  0291                     	;# 
  1696  0292                     	;# 
  1697  0293                     	;# 
  1698  0294                     	;# 
  1699  0295                     	;# 
  1700  0295                     	;# 
  1701  0296                     	;# 
  1702  0298                     	;# 
  1703  0298                     	;# 
  1704  0299                     	;# 
  1705  029A                     	;# 
  1706  029B                     	;# 
  1707  029C                     	;# 
  1708  029D                     	;# 
  1709  029E                     	;# 
  1710  0311                     	;# 
  1711  0311                     	;# 
  1712  0312                     	;# 
  1713  0313                     	;# 
  1714  0318                     	;# 
  1715  0318                     	;# 
  1716  0319                     	;# 
  1717  031A                     	;# 
  1718  038C                     	;# 
  1719  038D                     	;# 
  1720  038E                     	;# 
  1721  0391                     	;# 
  1722  0392                     	;# 
  1723  0393                     	;# 
  1724  0394                     	;# 
  1725  0395                     	;# 
  1726  0396                     	;# 
  1727  039A                     	;# 
  1728  039C                     	;# 
  1729  039D                     	;# 
  1730  039E                     	;# 
  1731  039F                     	;# 
  1732  0415                     	;# 
  1733  0416                     	;# 
  1734  0417                     	;# 
  1735  041C                     	;# 
  1736  041D                     	;# 
  1737  041E                     	;# 
  1738  0FE4                     	;# 
  1739  0FE5                     	;# 
  1740  0FE6                     	;# 
  1741  0FE7                     	;# 
  1742  0FE8                     	;# 
  1743  0FE9                     	;# 
  1744  0FEA                     	;# 
  1745  0FEB                     	;# 
  1746  0FED                     	;# 
  1747  0FEE                     	;# 
  1748  0FEF                     	;# 
  1749  0000                     	;# 
  1750  0001                     	;# 
  1751  0002                     	;# 
  1752  0003                     	;# 
  1753  0004                     	;# 
  1754  0005                     	;# 
  1755  0006                     	;# 
  1756  0007                     	;# 
  1757  0008                     	;# 
  1758  0009                     	;# 
  1759  000A                     	;# 
  1760  000B                     	;# 
  1761  000C                     	;# 
  1762  000D                     	;# 
  1763  000E                     	;# 
  1764  0011                     	;# 
  1765  0012                     	;# 
  1766  0013                     	;# 
  1767  0014                     	;# 
  1768  0015                     	;# 
  1769  0016                     	;# 
  1770  0016                     	;# 
  1771  0017                     	;# 
  1772  0018                     	;# 
  1773  0019                     	;# 
  1774  001A                     	;# 
  1775  001B                     	;# 
  1776  001C                     	;# 
  1777  001E                     	;# 
  1778  001F                     	;# 
  1779  008C                     	;# 
  1780  008D                     	;# 
  1781  008E                     	;# 
  1782  0091                     	;# 
  1783  0092                     	;# 
  1784  0093                     	;# 
  1785  0094                     	;# 
  1786  0095                     	;# 
  1787  0096                     	;# 
  1788  0097                     	;# 
  1789  0098                     	;# 
  1790  0099                     	;# 
  1791  009A                     	;# 
  1792  009B                     	;# 
  1793  009B                     	;# 
  1794  009C                     	;# 
  1795  009D                     	;# 
  1796  009E                     	;# 
  1797  010C                     	;# 
  1798  010D                     	;# 
  1799  010E                     	;# 
  1800  0111                     	;# 
  1801  0112                     	;# 
  1802  0113                     	;# 
  1803  0114                     	;# 
  1804  0115                     	;# 
  1805  0116                     	;# 
  1806  0117                     	;# 
  1807  0118                     	;# 
  1808  0119                     	;# 
  1809  011A                     	;# 
  1810  011B                     	;# 
  1811  011D                     	;# 
  1812  011E                     	;# 
  1813  018C                     	;# 
  1814  018D                     	;# 
  1815  018E                     	;# 
  1816  0191                     	;# 
  1817  0191                     	;# 
  1818  0192                     	;# 
  1819  0193                     	;# 
  1820  0193                     	;# 
  1821  0193                     	;# 
  1822  0194                     	;# 
  1823  0195                     	;# 
  1824  0196                     	;# 
  1825  0199                     	;# 
  1826  019A                     	;# 
  1827  019B                     	;# 
  1828  019B                     	;# 
  1829  019C                     	;# 
  1830  019D                     	;# 
  1831  019E                     	;# 
  1832  019F                     	;# 
  1833  020C                     	;# 
  1834  020D                     	;# 
  1835  020E                     	;# 
  1836  0211                     	;# 
  1837  0211                     	;# 
  1838  0212                     	;# 
  1839  0212                     	;# 
  1840  0213                     	;# 
  1841  0213                     	;# 
  1842  0214                     	;# 
  1843  0214                     	;# 
  1844  0215                     	;# 
  1845  0215                     	;# 
  1846  0215                     	;# 
  1847  0216                     	;# 
  1848  0216                     	;# 
  1849  0217                     	;# 
  1850  0217                     	;# 
  1851  0219                     	;# 
  1852  021A                     	;# 
  1853  021B                     	;# 
  1854  021C                     	;# 
  1855  021D                     	;# 
  1856  021E                     	;# 
  1857  021F                     	;# 
  1858  0291                     	;# 
  1859  0291                     	;# 
  1860  0292                     	;# 
  1861  0293                     	;# 
  1862  0294                     	;# 
  1863  0295                     	;# 
  1864  0295                     	;# 
  1865  0296                     	;# 
  1866  0298                     	;# 
  1867  0298                     	;# 
  1868  0299                     	;# 
  1869  029A                     	;# 
  1870  029B                     	;# 
  1871  029C                     	;# 
  1872  029D                     	;# 
  1873  029E                     	;# 
  1874  0311                     	;# 
  1875  0311                     	;# 
  1876  0312                     	;# 
  1877  0313                     	;# 
  1878  0318                     	;# 
  1879  0318                     	;# 
  1880  0319                     	;# 
  1881  031A                     	;# 
  1882  038C                     	;# 
  1883  038D                     	;# 
  1884  038E                     	;# 
  1885  0391                     	;# 
  1886  0392                     	;# 
  1887  0393                     	;# 
  1888  0394                     	;# 
  1889  0395                     	;# 
  1890  0396                     	;# 
  1891  039A                     	;# 
  1892  039C                     	;# 
  1893  039D                     	;# 
  1894  039E                     	;# 
  1895  039F                     	;# 
  1896  0415                     	;# 
  1897  0416                     	;# 
  1898  0417                     	;# 
  1899  041C                     	;# 
  1900  041D                     	;# 
  1901  041E                     	;# 
  1902  0FE4                     	;# 
  1903  0FE5                     	;# 
  1904  0FE6                     	;# 
  1905  0FE7                     	;# 
  1906  0FE8                     	;# 
  1907  0FE9                     	;# 
  1908  0FEA                     	;# 
  1909  0FEB                     	;# 
  1910  0FED                     	;# 
  1911  0FEE                     	;# 
  1912  0FEF                     	;# 
  1913                           
  1914                           	psect	stringtext1
  1915  1000                     __pstringtext1:
  1916  1000                     _ct_KeyDataTable:
  1917  1000  34FB               	retlw	251
  1918  1001  34BF               	retlw	191
  1919  1002  34DF               	retlw	223
  1920  1003  34EF               	retlw	239
  1921  1004  34F7               	retlw	247
  1922  1005  349F               	retlw	159
  1923  1006  34AF               	retlw	175
  1924  1007  34B7               	retlw	183
  1925  1008  34BB               	retlw	187
  1926  1009  34CF               	retlw	207
  1927  100A  34DB               	retlw	219
  1928  100B  34EB               	retlw	235
  1929  100C  34E7               	retlw	231
  1930  100D  34F3               	retlw	243
  1931  100E  34FD               	retlw	253
  1932  100F  34FE               	retlw	254
  1933  1010  34FF               	retlw	255
  1934  1011                     __end_of_ct_KeyDataTable:
  1935                           
  1936                           	psect	stringtext2
  1937  1011                     __pstringtext2:
  1938  1011                     _Default_adf7012_value:
  1939  1011  3400               	retlw	0
  1940  1012  3440               	retlw	64
  1941  1013  3488               	retlw	136
  1942  1014  3400               	retlw	0
  1943  1015  34C1               	retlw	193
  1944  1016  344D               	retlw	77
  1945  1017  3415               	retlw	21
  1946  1018  3400               	retlw	0
  1947  1019  34A6               	retlw	166
  1948  101A  3459               	retlw	89
  1949  101B  3440               	retlw	64
  1950  101C  3400               	retlw	0
  1951  101D  344F               	retlw	79
  1952  101E  34D0               	retlw	208
  1953  101F  3421               	retlw	33
  1954  1020  3400               	retlw	0
  1955  1021                     __end_of_Default_adf7012_value:
  1956  000B                     _INTCONbits	set	11
  1957  001C                     _T2CON	set	28
  1958  001B                     _PR2	set	27
  1959  001A                     _TMR2	set	26
  1960  0058                     _IOCIF	set	88
  1961  005F                     _GIE	set	95
  1962  005E                     _PEIE	set	94
  1963  0073                     _RC3	set	115
  1964  0062                     _RA2	set	98
  1965  0075                     _RC5	set	117
  1966  0063                     _RA3	set	99
  1967  0064                     _RA4	set	100
  1968  0074                     _RC4	set	116
  1969  006C                     _RB4	set	108
  1970  006F                     _RB7	set	111
  1971  0077                     _RC7	set	119
  1972  006E                     _RB6	set	110
  1973  0076                     _RC6	set	118
  1974  0089                     _TMR2IF	set	137
  1975  0065                     _RA5	set	101
  1976  0072                     _RC2	set	114
  1977  006D                     _RB5	set	109
  1978  0070                     _RC0	set	112
  1979  005B                     _IOCIE	set	91
  1980  008E                     _TRISC	set	142
  1981  008D                     _TRISB	set	141
  1982  008C                     _TRISA	set	140
  1983  0099                     _OSCCON	set	153
  1984  04AF                     _nWPUEN	set	1199
  1985  04D4                     _HFIOFR	set	1236
  1986  0489                     _TMR2IE	set	1161
  1987  08BE                     _FVRRDY	set	2238
  1988  018E                     _ANSELC	set	398
  1989  018D                     _ANSELB	set	397
  1990  018C                     _ANSELA	set	396
  1991  020E                     _WPUC	set	526
  1992  020D                     _WPUB	set	525
  1993  020C                     _WPUA	set	524
  1994  0393                     _IOCAF	set	915
  1995  0392                     _IOCAN	set	914
  1996  0391                     _IOCAP	set	913
  1997                           
  1998                           	psect	cinit
  1999  001D                     start_initialization:	
  2000                           ; #config settings
  2001                           
  2002  001D                     __initialization:
  2003                           
  2004                           ; Clear objects allocated to COMMON
  2005  001D  01FA               	clrf	__pbssCOMMON& (0+127)
  2006                           
  2007                           ; Clear objects allocated to BANK0
  2008  001E  3020               	movlw	low __pbssBANK0
  2009  001F  0084               	movwf	4
  2010  0020  3000               	movlw	high __pbssBANK0
  2011  0021  0085               	movwf	5
  2012  0022  3033               	movlw	51
  2013  0023  3189  21D0  3180   	fcall	clear_ram0
  2014                           
  2015                           ; Clear objects allocated to BANK1
  2016  0026  30A0               	movlw	low __pbssBANK1
  2017  0027  0084               	movwf	4
  2018  0028  3000               	movlw	high __pbssBANK1
  2019  0029  0085               	movwf	5
  2020  002A  3047               	movlw	71
  2021  002B  3189  21D0  3180   	fcall	clear_ram0
  2022                           
  2023                           ; Clear objects allocated to BANK2
  2024  002E  3020               	movlw	low __pbssBANK2
  2025  002F  0084               	movwf	4
  2026  0030  3001               	movlw	high __pbssBANK2
  2027  0031  0085               	movwf	5
  2028  0032  3038               	movlw	56
  2029  0033  3189  21D0  3180   	fcall	clear_ram0
  2030  0036                     end_of_initialization:	
  2031                           ;End of C runtime variable initialization code
  2032                           
  2033  0036                     __end_of__initialization:
  2034  0036  107E               	bcf	int$flags,0	;clear compiler interrupt flag (level 1)
  2035  0037  0020               	movlb	0
  2036  0038  318E  2E38         	ljmp	_main	;jump to C main() function
  2037                           
  2038                           	psect	bssCOMMON
  2039  007A                     __pbssCOMMON:
  2040  007A                     _RAM_OP2:
  2041  007A                     	ds	1
  2042                           
  2043                           	psect	bssBANK0
  2044  0020                     __pbssBANK0:
  2045  0020                     _TIME_10s:
  2046  0020                     	ds	2
  2047  0022                     _TIME_Once_twice_switch:
  2048  0022                     	ds	2
  2049  0024                     _time_led:
  2050  0024                     	ds	2
  2051  0026                     _m_KeyDupli1stTimer:
  2052  0026                     	ds	2
  2053  0028                     _m_KeyDupliSetTimeout:
  2054  0028                     	ds	2
  2055  002A                     _m_TimerRegMode:
  2056  002A                     	ds	2
  2057  002C                     _m_TimerKeyMonitor:
  2058  002C                     	ds	2
  2059  002E                     _m_TimerKey:
  2060  002E                     	ds	2
  2061  0030                     _TIME_power_on_AD:
  2062  0030                     	ds	2
  2063  0032                     _txphase:
  2064  0032                     	ds	2
  2065  0034                     _SIO_cnt:
  2066  0034                     	ds	1
  2067  0035                     _TB_976us:
  2068  0035                     	ds	1
  2069  0036                     _TEST_No:
  2070  0036                     	ds	1
  2071  0037                     _m_RegDigit:
  2072  0037                     	ds	1
  2073  0038                     _TB_sum_5s:
  2074  0038                     	ds	1
  2075  0039                     _m_KeyCloseCount:
  2076  0039                     	ds	1
  2077  003A                     _m_KeyOpenCount:
  2078  003A                     	ds	1
  2079  003B                     _m_KeyCount:
  2080  003B                     	ds	1
  2081  003C                     _m_KeyNo:
  2082  003C                     	ds	1
  2083  003D                     _TIME_BEEP_freq:
  2084  003D                     	ds	1
  2085  003E                     _TIME_BEEP_off:
  2086  003E                     	ds	1
  2087  003F                     _BASE_TIME_BEEP_off:
  2088  003F                     	ds	1
  2089  0040                     _m_KeyOptSetMode:
  2090  0040                     	ds	1
  2091  0041                     _TIME_2s_RestTX:
  2092  0041                     	ds	1
  2093  0042                     _RAM_SW:
  2094  0042                     	ds	1
  2095  0043                     _RAM_RegSW:
  2096  0043                     	ds	1
  2097  0044                     _m_KindOfKey:
  2098  0044                     	ds	1
  2099  0045                     _m_KeyOld:
  2100  0045                     	ds	1
  2101  0046                     _m_KeyNew:
  2102  0046                     	ds	1
  2103  0047                     _TB_5s:
  2104  0047                     	ds	1
  2105  0048                     _TB_51s:
  2106  0048                     	ds	1
  2107  0049                     _TB_100ms:
  2108  0049                     	ds	1
  2109  004A                     _rom_KeyOpt:
  2110  004A                     	ds	1
  2111  004B                     _BAT_out:
  2112  004B                     	ds	1
  2113  004C                     _RAM_BAT_CNT:
  2114  004C                     	ds	1
  2115  004D                     _Control_code:
  2116  004D                     	ds	1
  2117  004E                     _m_RegMode:
  2118  004E                     	ds	1
  2119  004F                     _txphase_Repeat:
  2120  004F                     	ds	1
  2121  0050                     _ID_INT_CODE:
  2122  0050                     	ds	1
  2123  0051                     _RAM_OP1:
  2124  0051                     	ds	1
  2125  0052                     _RAM_OP3:
  2126  0052                     	ds	1
  2127                           
  2128                           	psect	bssBANK1
  2129  00A0                     __pbssBANK1:
  2130  00A0                     _SIO_buff:
  2131  00A0                     	ds	16
  2132  00B0                     _BAT_Voltage_value:
  2133  00B0                     	ds	4
  2134  00B4                     _RAM_BAT_SUM:
  2135  00B4                     	ds	4
  2136  00B8                     _ID_data_add:
  2137  00B8                     	ds	4
  2138  00BC                     _ID_data:
  2139  00BC                     	ds	4
  2140  00C0                     _key_Value:
  2141  00C0                     	ds	2
  2142  00C2                     _TIME_BEEP_on:
  2143  00C2                     	ds	2
  2144  00C4                     _BASE_TIME_BEEP_on:
  2145  00C4                     	ds	2
  2146  00C6                     _m_ChatterCount:
  2147  00C6                     	ds	2
  2148  00C8                     _AD_DATA_BUFF:
  2149  00C8                     	ds	2
  2150  00CA                     _txphase_end:
  2151  00CA                     	ds	2
  2152  00CC                     _ROM_adf7012_value:
  2153  00CC                     	ds	16
  2154  00DC                     _m_RegID:
  2155  00DC                     	ds	9
  2156  00E5                     _RAM_BAT_AVG:
  2157  00E5                     	ds	2
  2158                           
  2159                           	psect	bssBANK2
  2160  0120                     __pbssBANK2:
  2161  0120                     _m_RFNormalBuf:
  2162  0120                     	ds	40
  2163  0148                     _SIO_DATA:
  2164  0148                     	ds	16
  2165                           
  2166                           	psect	clrtext
  2167  09D0                     clear_ram0:	
  2168                           ;	Called with FSR0 containing the base address, and
  2169                           ;	WREG with the size to clear
  2170                           
  2171  09D0  0064               	clrwdt	;clear the watchdog before getting into this loop
  2172  09D1                     clrloop0:
  2173  09D1  0180               	clrf	0	;clear RAM location pointed to by FSR
  2174  09D2  3101               	addfsr 0,1
  2175  09D3  0B89               	decfsz	9,f	;Have we reached the end of clearing yet?
  2176  09D4  29D1               	goto	clrloop0	;have we reached the end yet?
  2177  09D5  3400               	retlw	0	;all done for this memory range, return
  2178                           
  2179                           	psect	cstackCOMMON
  2180  0070                     __pcstackCOMMON:
  2181  0070                     ?_Delayus:
  2182  0070                     ?__SetKeyChatterCount:	
  2183                           ; 1 bytes @ 0x0
  2184                           
  2185  0070                     ?__ClearSpecialMultiKeyState:	
  2186                           ; 1 bytes @ 0x0
  2187                           
  2188  0070                     ?__KeyInTx:	
  2189                           ; 1 bytes @ 0x0
  2190                           
  2191  0070                     ?__RegistrationMode:	
  2192                           ; 1 bytes @ 0x0
  2193                           
  2194  0070                     ?__DupliFuncSetMode:	
  2195                           ; 1 bytes @ 0x0
  2196                           
  2197  0070                     ?__SwIn:	
  2198                           ; 1 bytes @ 0x0
  2199                           
  2200  0070                     ?__DupliFuncClear:	
  2201                           ; 1 bytes @ 0x0
  2202                           
  2203  0070                     ?__FuncReg:	
  2204                           ; 1 bytes @ 0x0
  2205                           
  2206  0070                     ?__FuncStop:	
  2207                           ; 1 bytes @ 0x0
  2208                           
  2209  0070                     ?__FuncOpenStop:	
  2210                           ; 1 bytes @ 0x0
  2211                           
  2212  0070                     ?__FuncOpenReg:	
  2213                           ; 1 bytes @ 0x0
  2214                           
  2215  0070                     ?__FuncStopReg:	
  2216                           ; 1 bytes @ 0x0
  2217                           
  2218  0070                     ?__FuncCloseReg:	
  2219                           ; 1 bytes @ 0x0
  2220                           
  2221  0070                     ?__FuncVentReg:	
  2222                           ; 1 bytes @ 0x0
  2223                           
  2224  0070                     ?__FuncAutoTxStart:	
  2225                           ; 1 bytes @ 0x0
  2226                           
  2227  0070                     ?__FuncAutoTxStop:	
  2228                           ; 1 bytes @ 0x0
  2229                           
  2230  0070                     ?__FuncNoPush:	
  2231                           ; 1 bytes @ 0x0
  2232                           
  2233  0070                     ?__Pass3secKey:	
  2234                           ; 1 bytes @ 0x0
  2235                           
  2236  0070                     ?__SetRegistrationMode:	
  2237                           ; 1 bytes @ 0x0
  2238                           
  2239  0070                     ?__GetNoPushState:	
  2240                           ; 1 bytes @ 0x0
  2241                           
  2242  0070                     ?__GetRegMode:	
  2243                           ; 1 bytes @ 0x0
  2244                           
  2245  0070                     ?__IdClear:	
  2246                           ; 1 bytes @ 0x0
  2247                           
  2248  0070                     ?_UART1_end:	
  2249                           ; 1 bytes @ 0x0
  2250                           
  2251  0070                     ?_UART1_INIT:	
  2252                           ; 1 bytes @ 0x0
  2253                           
  2254  0070                     ?_EXIT_init:	
  2255                           ; 1 bytes @ 0x0
  2256                           
  2257  0070                     ?_EXTI_PORTA1:	
  2258                           ; 1 bytes @ 0x0
  2259                           
  2260  0070                     ??_EXTI_PORTA1:	
  2261                           ; 1 bytes @ 0x0
  2262                           
  2263  0070                     ?_SendTxData:	
  2264                           ; 1 bytes @ 0x0
  2265                           
  2266  0070                     ?_TIM4_Init:	
  2267                           ; 1 bytes @ 0x0
  2268                           
  2269  0070                     ?_START_AD_SAMPLER:	
  2270                           ; 1 bytes @ 0x0
  2271                           
  2272  0070                     ?_AD_control:	
  2273                           ; 1 bytes @ 0x0
  2274                           
  2275  0070                     ?_dd_set_ADF7021_Power_on_Init:	
  2276                           ; 1 bytes @ 0x0
  2277                           
  2278  0070                     ?_dd_set_ADF7021_Power_on:	
  2279                           ; 1 bytes @ 0x0
  2280                           
  2281  0070                     ?_dd_set_TX_mode:	
  2282                           ; 1 bytes @ 0x0
  2283                           
  2284  0070                     ?_InitialFlashReg:	
  2285                           ; 1 bytes @ 0x0
  2286                           
  2287  0070                     ?_UnlockFlash:	
  2288                           ; 1 bytes @ 0x0
  2289                           
  2290  0070                     ?_LockFlash:	
  2291                           ; 1 bytes @ 0x0
  2292                           
  2293  0070                     ?_eeprom_sys_load:	
  2294                           ; 1 bytes @ 0x0
  2295                           
  2296  0070                     ?_KeyOpt_EEPROM_write:	
  2297                           ; 1 bytes @ 0x0
  2298                           
  2299  0070                     ?_WDT_init:	
  2300                           ; 1 bytes @ 0x0
  2301                           
  2302  0070                     ?_ClearWDT:	
  2303                           ; 1 bytes @ 0x0
  2304                           
  2305  0070                     ?_SysClock_Init:	
  2306                           ; 1 bytes @ 0x0
  2307                           
  2308  0070                     ?_VHF_GPIO_INIT:	
  2309                           ; 1 bytes @ 0x0
  2310                           
  2311  0070                     ?__Init_RAM:	
  2312                           ; 1 bytes @ 0x0
  2313                           
  2314  0070                     ?_key_check:	
  2315                           ; 1 bytes @ 0x0
  2316                           
  2317  0070                     ?_time_control:	
  2318                           ; 1 bytes @ 0x0
  2319                           
  2320  0070                     ?_test_mode_control:	
  2321                           ; 1 bytes @ 0x0
  2322                           
  2323  0070                     ?_main:	
  2324                           ; 1 bytes @ 0x0
  2325                           
  2326  0070                     ?_ISR:	
  2327                           ; 1 bytes @ 0x0
  2328                           
  2329  0070                     UnlockFlash@Type:	
  2330                           ; 1 bytes @ 0x0
  2331                           
  2332  0070                     LockFlash@Type:	
  2333                           ; 1 bytes @ 0x0
  2334                           
  2335                           
  2336                           ; 1 bytes @ 0x0
  2337  0070                     	ds	1
  2338  0071                     ?_dd_write_7021_reg:
  2339                           
  2340                           ; 1 bytes @ 0x1
  2341  0071                     	ds	2
  2342  0073                     ??_Delayus:
  2343  0073                     ??__SetKeyChatterCount:	
  2344                           ; 1 bytes @ 0x3
  2345                           
  2346  0073                     ??__ClearSpecialMultiKeyState:	
  2347                           ; 1 bytes @ 0x3
  2348                           
  2349  0073                     ??__SwIn:	
  2350                           ; 1 bytes @ 0x3
  2351                           
  2352  0073                     ??__DupliFuncClear:	
  2353                           ; 1 bytes @ 0x3
  2354                           
  2355  0073                     ??__FuncAutoTxStart:	
  2356                           ; 1 bytes @ 0x3
  2357                           
  2358  0073                     ??__FuncAutoTxStop:	
  2359                           ; 1 bytes @ 0x3
  2360                           
  2361  0073                     ??__FuncNoPush:	
  2362                           ; 1 bytes @ 0x3
  2363                           
  2364  0073                     ??__GetNoPushState:	
  2365                           ; 1 bytes @ 0x3
  2366                           
  2367  0073                     ?__ReqBuzzer:	
  2368                           ; 1 bytes @ 0x3
  2369                           
  2370  0073                     ??__GetRegMode:	
  2371                           ; 1 bytes @ 0x3
  2372                           
  2373  0073                     ??__IdClear:	
  2374                           ; 1 bytes @ 0x3
  2375                           
  2376  0073                     ??_UART1_end:	
  2377                           ; 1 bytes @ 0x3
  2378                           
  2379  0073                     ??_UART1_INIT:	
  2380                           ; 1 bytes @ 0x3
  2381                           
  2382  0073                     ??_EXIT_init:	
  2383                           ; 1 bytes @ 0x3
  2384                           
  2385  0073                     ??_TIM4_Init:	
  2386                           ; 1 bytes @ 0x3
  2387                           
  2388  0073                     ??_START_AD_SAMPLER:	
  2389                           ; 1 bytes @ 0x3
  2390                           
  2391  0073                     ??_AD_control:	
  2392                           ; 1 bytes @ 0x3
  2393                           
  2394  0073                     ??_dd_write_7021_reg:	
  2395                           ; 1 bytes @ 0x3
  2396                           
  2397  0073                     ??_dd_set_ADF7021_Power_on:	
  2398                           ; 1 bytes @ 0x3
  2399                           
  2400  0073                     ??_InitialFlashReg:	
  2401                           ; 1 bytes @ 0x3
  2402                           
  2403  0073                     ??_UnlockFlash:	
  2404                           ; 1 bytes @ 0x3
  2405                           
  2406  0073                     ??_LockFlash:	
  2407                           ; 1 bytes @ 0x3
  2408                           
  2409  0073                     ?_WriteByteToFLASH:	
  2410                           ; 1 bytes @ 0x3
  2411                           
  2412  0073                     ??_eeprom_sys_load:	
  2413                           ; 1 bytes @ 0x3
  2414                           
  2415  0073                     ??_WDT_init:	
  2416                           ; 1 bytes @ 0x3
  2417                           
  2418  0073                     ??_ClearWDT:	
  2419                           ; 1 bytes @ 0x3
  2420                           
  2421  0073                     ??_SysClock_Init:	
  2422                           ; 1 bytes @ 0x3
  2423                           
  2424  0073                     ??_VHF_GPIO_INIT:	
  2425                           ; 1 bytes @ 0x3
  2426                           
  2427  0073                     ??__Init_RAM:	
  2428                           ; 1 bytes @ 0x3
  2429                           
  2430  0073                     ??_time_control:	
  2431                           ; 1 bytes @ 0x3
  2432                           
  2433  0073                     ??_ISR:	
  2434                           ; 1 bytes @ 0x3
  2435                           
  2436  0073                     ??___lmul:	
  2437                           ; 1 bytes @ 0x3
  2438                           
  2439  0073                     ?_SetFixedLengthCode:	
  2440                           ; 1 bytes @ 0x3
  2441                           
  2442  0073                     __SwIn@sw:	
  2443                           ; 2 bytes @ 0x3
  2444                           
  2445  0073                     __ReqBuzzer@BEEP_on_SET:	
  2446                           ; 1 bytes @ 0x3
  2447                           
  2448  0073                     WriteByteToFLASH@Addr:	
  2449                           ; 2 bytes @ 0x3
  2450                           
  2451  0073                     ___lmul@product:	
  2452                           ; 4 bytes @ 0x3
  2453                           
  2454                           
  2455                           ; 4 bytes @ 0x3
  2456  0073                     	ds	1
  2457  0074                     Delayus@timer:
  2458  0074                     __IdClear@i:	
  2459                           ; 1 bytes @ 0x4
  2460                           
  2461                           
  2462                           ; 1 bytes @ 0x4
  2463  0074                     	ds	1
  2464  0075                     ??_SetFixedLengthCode:
  2465  0075                     dd_write_7021_reg@j:	
  2466                           ; 1 bytes @ 0x5
  2467                           
  2468  0075                     Delayus@x:	
  2469                           ; 1 bytes @ 0x5
  2470                           
  2471  0075                     __ReqBuzzer@BEEP_off_SET:	
  2472                           ; 1 bytes @ 0x5
  2473                           
  2474                           
  2475                           ; 1 bytes @ 0x5
  2476  0075                     	ds	1
  2477  0076                     SetFixedLengthCode@data:
  2478  0076                     dd_write_7021_reg@byte:	
  2479                           ; 1 bytes @ 0x6
  2480                           
  2481  0076                     __ReqBuzzer@BEEP_freq_SET:	
  2482                           ; 1 bytes @ 0x6
  2483                           
  2484                           
  2485                           ; 1 bytes @ 0x6
  2486  0076                     	ds	1
  2487  0077                     ??__ReqBuzzer:
  2488  0077                     dd_write_7021_reg@i:	
  2489                           ; 1 bytes @ 0x7
  2490                           
  2491  0077                     WriteByteToFLASH@Dat:	
  2492                           ; 1 bytes @ 0x7
  2493                           
  2494  0077                     SetFixedLengthCode@code:	
  2495                           ; 1 bytes @ 0x7
  2496                           
  2497                           
  2498                           ; 2 bytes @ 0x7
  2499  0077                     	ds	1
  2500  0078                     ??__SetRegistrationMode:
  2501  0078                     ??_WriteByteToFLASH:	
  2502                           ; 1 bytes @ 0x8
  2503                           
  2504  0078                     ??_KeyOpt_EEPROM_write:	
  2505                           ; 1 bytes @ 0x8
  2506                           
  2507  0078                     dd_write_7021_reg@reg_bytes:	
  2508                           ; 1 bytes @ 0x8
  2509                           
  2510                           
  2511                           ; 1 bytes @ 0x8
  2512  0078                     	ds	1
  2513  0079                     ??_dd_set_ADF7021_Power_on_Init:
  2514  0079                     ??_dd_set_TX_mode:	
  2515                           ; 1 bytes @ 0x9
  2516                           
  2517  0079                     ??_test_mode_control:	
  2518                           ; 1 bytes @ 0x9
  2519                           
  2520  0079                     SetFixedLengthCode@i:	
  2521                           ; 1 bytes @ 0x9
  2522                           
  2523  0079                     __DupliFuncSetMode@m_KeyOpt:	
  2524                           ; 1 bytes @ 0x9
  2525                           
  2526  0079                     __SetRegistrationMode@mode:	
  2527                           ; 1 bytes @ 0x9
  2528                           
  2529                           
  2530                           ; 1 bytes @ 0x9
  2531  0079                     	ds	1
  2532  007A                     ??__Pass3secKey:
  2533  007A                     ??_main:	
  2534                           ; 1 bytes @ 0xA
  2535                           
  2536                           
  2537                           	psect	cstackBANK0
  2538  0053                     __pcstackBANK0:	
  2539                           ; 1 bytes @ 0xA
  2540                           
  2541  0053                     ?_SetTxData:
  2542  0053                     ??__DupliFuncSetMode:	
  2543                           ; 1 bytes @ 0x0
  2544                           
  2545  0053                     ??__FuncReg:	
  2546                           ; 1 bytes @ 0x0
  2547                           
  2548  0053                     ?___lmul:	
  2549                           ; 1 bytes @ 0x0
  2550                           
  2551  0053                     eeprom_sys_load@i:	
  2552                           ; 4 bytes @ 0x0
  2553                           
  2554  0053                     SetTxData@ID_data_set:	
  2555                           ; 1 bytes @ 0x0
  2556                           
  2557  0053                     dd_set_ADF7021_Power_on_Init@register_value:	
  2558                           ; 4 bytes @ 0x0
  2559                           
  2560  0053                     dd_set_TX_mode@register_value:	
  2561                           ; 4 bytes @ 0x0
  2562                           
  2563  0053                     ___lmul@multiplier:	
  2564                           ; 4 bytes @ 0x0
  2565                           
  2566                           
  2567                           ; 4 bytes @ 0x0
  2568  0053                     	ds	4
  2569  0057                     SetTxData@Control_code_set:
  2570  0057                     ___lmul@multiplicand:	
  2571                           ; 1 bytes @ 0x4
  2572                           
  2573                           
  2574                           ; 4 bytes @ 0x4
  2575  0057                     	ds	1
  2576  0058                     ??_SetTxData:
  2577                           
  2578                           ; 1 bytes @ 0x5
  2579  0058                     	ds	1
  2580  0059                     SetTxData@unik:
  2581                           
  2582                           ; 2 bytes @ 0x6
  2583  0059                     	ds	2
  2584  005B                     ?_atol_de:
  2585  005B                     SetTxData@unij:	
  2586                           ; 4 bytes @ 0x8
  2587                           
  2588                           
  2589                           ; 2 bytes @ 0x8
  2590  005B                     	ds	2
  2591  005D                     SetTxData@count_set:
  2592                           
  2593                           ; 1 bytes @ 0xA
  2594  005D                     	ds	1
  2595  005E                     SetTxData@unii:
  2596                           
  2597                           ; 2 bytes @ 0xB
  2598  005E                     	ds	1
  2599  005F                     ??_atol_de:
  2600                           
  2601                           ; 1 bytes @ 0xC
  2602  005F                     	ds	1
  2603  0060                     ??_SendTxData:
  2604                           
  2605                           ; 1 bytes @ 0xD
  2606  0060                     	ds	2
  2607  0062                     SendTxData@i:
  2608                           
  2609                           ; 1 bytes @ 0xF
  2610  0062                     	ds	1
  2611  0063                     SendTxData@def_preamble:
  2612  0063                     atol_de@j:	
  2613                           ; 1 bytes @ 0x10
  2614                           
  2615                           
  2616                           ; 1 bytes @ 0x10
  2617  0063                     	ds	1
  2618  0064                     ?__ReqTxdEdit:
  2619  0064                     __ReqTxdEdit@buzreq:	
  2620                           ; 1 bytes @ 0x11
  2621                           
  2622  0064                     atol_de@m_RegID_x:	
  2623                           ; 1 bytes @ 0x11
  2624                           
  2625                           
  2626                           ; 1 bytes @ 0x11
  2627  0064                     	ds	1
  2628  0065                     ??__ReqTxdEdit:
  2629  0065                     atol_de@m_ID:	
  2630                           ; 1 bytes @ 0x12
  2631                           
  2632                           
  2633                           ; 4 bytes @ 0x12
  2634  0065                     	ds	3
  2635  0068                     __ReqTxdEdit@txreq:
  2636                           
  2637                           ; 1 bytes @ 0x15
  2638  0068                     	ds	1
  2639  0069                     __ReqTxdEdit@time_key:
  2640  0069                     atol_de@i:	
  2641                           ; 1 bytes @ 0x16
  2642                           
  2643                           
  2644                           ; 1 bytes @ 0x16
  2645  0069                     	ds	1
  2646  006A                     ??__RegistrationMode:
  2647  006A                     ??__FuncStop:	
  2648                           ; 1 bytes @ 0x17
  2649                           
  2650  006A                     ??__FuncOpenStop:	
  2651                           ; 1 bytes @ 0x17
  2652                           
  2653  006A                     __Pass3secKey@req:	
  2654                           ; 1 bytes @ 0x17
  2655                           
  2656                           
  2657                           ; 1 bytes @ 0x17
  2658  006A                     	ds	1
  2659  006B                     ??__FuncOpenReg:
  2660  006B                     ??__FuncStopReg:	
  2661                           ; 1 bytes @ 0x18
  2662                           
  2663  006B                     ??__FuncCloseReg:	
  2664                           ; 1 bytes @ 0x18
  2665                           
  2666  006B                     ??__FuncVentReg:	
  2667                           ; 1 bytes @ 0x18
  2668                           
  2669                           
  2670                           ; 1 bytes @ 0x18
  2671  006B                     	ds	1
  2672  006C                     ??__KeyInTx:
  2673                           
  2674                           ; 1 bytes @ 0x19
  2675  006C                     	ds	2
  2676  006E                     __KeyInTx@i:
  2677                           
  2678                           ; 1 bytes @ 0x1B
  2679  006E                     	ds	1
  2680  006F                     ??_key_check:
  2681                           
  2682                           ; 1 bytes @ 0x1C
  2683  006F                     	ds	1
  2684                           
  2685                           	psect	maintext
  2686  0E38                     __pmaintext:	
  2687 ;;
  2688 ;;Main: autosize = 0, tempsize = 0, incstack = 0, save=0
  2689 ;;
  2690 ;; *************** function _main *****************
  2691 ;; Defined at:
  2692 ;;		line 43 in file "../Projects/src/main.c"
  2693 ;; Parameters:    Size  Location     Type
  2694 ;;		None
  2695 ;; Auto vars:     Size  Location     Type
  2696 ;;		None
  2697 ;; Return value:  Size  Location     Type
  2698 ;;                  1    wreg      void 
  2699 ;; Registers used:
  2700 ;;		wreg, fsr0l, fsr0h, fsr1l, fsr1h, status,2, status,0, pclath, cstack
  2701 ;; Tracked objects:
  2702 ;;		On entry : B1F/0
  2703 ;;		On exit  : 0/0
  2704 ;;		Unchanged: 0/0
  2705 ;; Data sizes:     COMMON   BANK0   BANK1   BANK2   BANK3   BANK4   BANK5   BANK6   BANK7   BANK8   BANK9  BANK10  BANK1
      +1  BANK12
  2706 ;;      Params:         0       0       0       0       0       0       0       0       0       0       0       0       
      +0       0
  2707 ;;      Locals:         0       0       0       0       0       0       0       0       0       0       0       0       
      +0       0
  2708 ;;      Temps:          0       0       0       0       0       0       0       0       0       0       0       0       
      +0       0
  2709 ;;      Totals:         0       0       0       0       0       0       0       0       0       0       0       0       
      +0       0
  2710 ;;Total ram usage:        0 bytes
  2711 ;; Hardware stack levels required when called:   10
  2712 ;; This function calls:
  2713 ;;		_AD_control
  2714 ;;		_ClearWDT
  2715 ;;		_EXIT_init
  2716 ;;		_InitialFlashReg
  2717 ;;		_START_AD_SAMPLER
  2718 ;;		_SysClock_Init
  2719 ;;		_TIM4_Init
  2720 ;;		_UART1_INIT
  2721 ;;		_VHF_GPIO_INIT
  2722 ;;		_WDT_init
  2723 ;;		__Init_RAM
  2724 ;;		_eeprom_sys_load
  2725 ;;		_key_check
  2726 ;;		_test_mode_control
  2727 ;;		_time_control
  2728 ;; This function is called by:
  2729 ;;		Startup code after reset
  2730 ;; This function uses a non-reentrant model
  2731 ;;
  2732                           
  2733                           
  2734                           ;psect for function _main
  2735  0E38                     _main:
  2736  0E38                     l6061:	
  2737                           ;incstack = 0
  2738                           ; Regs used in _main: [wreg-fsr1h+status,2+status,0+pclath+cstack]
  2739                           
  2740                           
  2741                           ;../Projects/src/main.c: 46:   VHF_GPIO_INIT();
  2742  0E38  318A  22A5  318E   	fcall	_VHF_GPIO_INIT
  2743  0E3B                     l6063:
  2744                           
  2745                           ;../Projects/src/main.c: 47:   WDT_init();
  2746  0E3B  3189  21C8  318E   	fcall	_WDT_init
  2747  0E3E                     l6065:
  2748                           
  2749                           ;../Projects/src/main.c: 48:   SysClock_Init();
  2750  0E3E  3189  21EB  318E   	fcall	_SysClock_Init
  2751  0E41                     l6067:
  2752                           
  2753                           ;../Projects/src/main.c: 49:   EXIT_init();
  2754  0E41  3189  21FC  318E   	fcall	_EXIT_init
  2755  0E44                     l6069:
  2756                           
  2757                           ;../Projects/src/main.c: 50:   InitialFlashReg();
  2758  0E44  3189  21C5  318E   	fcall	_InitialFlashReg
  2759  0E47                     l6071:
  2760                           
  2761                           ;../Projects/src/main.c: 51:   eeprom_sys_load();
  2762  0E47  318C  2461  318E   	fcall	_eeprom_sys_load
  2763  0E4A                     l6073:
  2764                           
  2765                           ;../Projects/src/main.c: 52:   _Init_RAM();
  2766  0E4A  318B  23D3  318E   	fcall	__Init_RAM
  2767  0E4D                     l6075:
  2768                           
  2769                           ;../Projects/src/main.c: 53:   TIM4_Init();
  2770  0E4D  318A  2207  318E   	fcall	_TIM4_Init
  2771  0E50                     l6077:
  2772                           
  2773                           ;../Projects/src/main.c: 54:   START_AD_SAMPLER();
  2774  0E50  3189  21C6  318E   	fcall	_START_AD_SAMPLER
  2775  0E53                     l6079:
  2776                           
  2777                           ;../Projects/src/main.c: 56:   PEIE=1;
  2778  0E53  170B               	bsf	11,6	;volatile
  2779  0E54                     l6081:
  2780                           
  2781                           ;../Projects/src/main.c: 57:   GIE = 1;
  2782  0E54  178B               	bsf	11,7	;volatile
  2783                           
  2784                           ;../Projects/src/main.c: 58:     while(RC3==0){
  2785  0E55  2E5E               	goto	l6087
  2786  0E56                     l855:
  2787                           
  2788                           ;../Projects/src/main.c: 59:     RB7=1;
  2789  0E56  178D               	bsf	13,7	;volatile
  2790                           
  2791                           ;../Projects/src/main.c: 60:     RB5=1;
  2792  0E57  168D               	bsf	13,5	;volatile
  2793  0E58                     l6083:
  2794                           
  2795                           ;../Projects/src/main.c: 61:     UART1_INIT();
  2796  0E58  3189  21C7  318E   	fcall	_UART1_INIT
  2797  0E5B                     l6085:
  2798                           
  2799                           ;../Projects/src/main.c: 62:     test_mode_control();
  2800  0E5B  3187  2765  318E   	fcall	_test_mode_control
  2801  0E5E                     l6087:
  2802                           
  2803                           ;../Projects/src/main.c: 58:     while(RC3==0){
  2804  0E5E  0020               	movlb	0	; select bank0
  2805  0E5F  1D8E               	btfss	14,3	;volatile
  2806  0E60  2E62               	goto	u4411
  2807  0E61  2E63               	goto	u4410
  2808  0E62                     u4411:
  2809  0E62  2E56               	goto	l855
  2810  0E63                     u4410:
  2811  0E63                     l6089:
  2812                           
  2813                           ;../Projects/src/main.c: 66:    TIME_power_on_AD=0;
  2814  0E63  01B0               	clrf	_TIME_power_on_AD
  2815  0E64  01B1               	clrf	_TIME_power_on_AD+1
  2816  0E65                     l6091:
  2817                           
  2818                           ;../Projects/src/main.c: 69:   {;../Projects/src/main.c: 71:  key_check();
  2819  0E65  318E  26AB  318E   	fcall	_key_check
  2820  0E68                     l6093:
  2821                           
  2822                           ;../Projects/src/main.c: 72:  time_control();
  2823  0E68  318B  2355  318E   	fcall	_time_control
  2824  0E6B                     l6095:
  2825                           
  2826                           ;../Projects/src/main.c: 73:  AD_control();
  2827  0E6B  318C  249F  318E   	fcall	_AD_control
  2828  0E6E                     l6097:
  2829                           
  2830                           ;../Projects/src/main.c: 76:         if((TB_5s==0)&&(m_KeyOptSetMode==0)&&(RAM_OP1.BIT.B
      +                          it5==1)&&(key_Value!=2)&&(RAM_OP1.BIT.Bit0==0)){
  2831  0E6E  0020               	movlb	0	; select bank0
  2832  0E6F  0847               	movf	_TB_5s,w
  2833  0E70  1D03               	btfss	3,2
  2834  0E71  2E73               	goto	u4421
  2835  0E72  2E74               	goto	u4420
  2836  0E73                     u4421:
  2837  0E73  2E65               	goto	l6091
  2838  0E74                     u4420:
  2839  0E74                     l6099:
  2840  0E74  0840               	movf	_m_KeyOptSetMode,w
  2841  0E75  1D03               	btfss	3,2
  2842  0E76  2E78               	goto	u4431
  2843  0E77  2E79               	goto	u4430
  2844  0E78                     u4431:
  2845  0E78  2E65               	goto	l6091
  2846  0E79                     u4430:
  2847  0E79                     l6101:
  2848  0E79  1ED1               	btfss	_RAM_OP1,5	;volatile
  2849  0E7A  2E7C               	goto	u4441
  2850  0E7B  2E7D               	goto	u4440
  2851  0E7C                     u4441:
  2852  0E7C  2E65               	goto	l6091
  2853  0E7D                     u4440:
  2854  0E7D                     l6103:
  2855  0E7D  3002               	movlw	2
  2856  0E7E  0021               	movlb	1	; select bank1
  2857  0E7F  0640               	xorwf	_key_Value^(0+128),w
  2858  0E80  0441               	iorwf	(_key_Value+1)^(0+128),w
  2859  0E81  1903               	btfsc	3,2
  2860  0E82  2E84               	goto	u4451
  2861  0E83  2E85               	goto	u4450
  2862  0E84                     u4451:
  2863  0E84  2E65               	goto	l6091
  2864  0E85                     u4450:
  2865  0E85                     l6105:
  2866  0E85  0020               	movlb	0	; select bank0
  2867  0E86  1851               	btfsc	_RAM_OP1,0	;volatile
  2868  0E87  2E89               	goto	u4461
  2869  0E88  2E8A               	goto	u4460
  2870  0E89                     u4461:
  2871  0E89  2E65               	goto	l6091
  2872  0E8A                     u4460:
  2873  0E8A                     l6107:
  2874                           
  2875                           ;../Projects/src/main.c: 77:    RAM_OP1.BIT.Bit5=0;
  2876  0E8A  12D1               	bcf	_RAM_OP1,5	;volatile
  2877                           
  2878                           ;../Projects/src/main.c: 78:    RB7=0;
  2879  0E8B  138D               	bcf	13,7	;volatile
  2880                           
  2881                           ;../Projects/src/main.c: 79:           RAM_SW.BIT.Bit5=1;
  2882  0E8C  16C2               	bsf	_RAM_SW,5	;volatile
  2883  0E8D                     l859:	
  2884                           ;../Projects/src/main.c: 81:    while(1){
  2885                           
  2886                           
  2887                           ;../Projects/src/main.c: 82:             if(RAM_SW.BIT.Bit7==1)ClearWDT();
  2888  0E8D  0020               	movlb	0	; select bank0
  2889  0E8E  1FC2               	btfss	_RAM_SW,7	;volatile
  2890  0E8F  2E91               	goto	u4471
  2891  0E90  2E92               	goto	u4470
  2892  0E91                     u4471:
  2893  0E91  2E96               	goto	l860
  2894  0E92                     u4470:
  2895  0E92                     l6109:
  2896  0E92  3189  21C9  318E   	fcall	_ClearWDT
  2897  0E95  2E8D               	goto	l859
  2898  0E96                     l860:	
  2899                           ;../Projects/src/main.c: 83:             else if((RAM_SW.BIT.Bit7==0)&&(m_KeyNo>=1)&&(m_
      +                          KeyNo<=4)){
  2900                           
  2901  0E96  1BC2               	btfsc	_RAM_SW,7	;volatile
  2902  0E97  2E99               	goto	u4481
  2903  0E98  2E9A               	goto	u4480
  2904  0E99                     u4481:
  2905  0E99  2E8D               	goto	l859
  2906  0E9A                     u4480:
  2907  0E9A                     l6111:
  2908  0E9A  083C               	movf	_m_KeyNo,w
  2909  0E9B  1903               	btfsc	3,2
  2910  0E9C  2E9E               	goto	u4491
  2911  0E9D  2E9F               	goto	u4490
  2912  0E9E                     u4491:
  2913  0E9E  2E8D               	goto	l859
  2914  0E9F                     u4490:
  2915  0E9F                     l6113:
  2916  0E9F  3005               	movlw	5
  2917  0EA0  023C               	subwf	_m_KeyNo,w
  2918  0EA1  1803               	skipnc
  2919  0EA2  2EA4               	goto	u4501
  2920  0EA3  2EA5               	goto	u4500
  2921  0EA4                     u4501:
  2922  0EA4  2E8D               	goto	l859
  2923  0EA5                     u4500:
  2924  0EA5                     l6115:
  2925                           
  2926                           ;../Projects/src/main.c: 84:               key_check();
  2927  0EA5  318E  26AB  318E   	fcall	_key_check
  2928  0EA8  2E92               	goto	l6109
  2929  0EA9  3180  281B         	ljmp	start
  2930  0EAB                     __end_of_main:
  2931                           
  2932                           	psect	text1
  2933  0B55                     __ptext1:	
  2934 ;; *************** function _time_control *****************
  2935 ;; Defined at:
  2936 ;;		line 79 in file "../Projects/src/key_and_Other.c"
  2937 ;; Parameters:    Size  Location     Type
  2938 ;;		None
  2939 ;; Auto vars:     Size  Location     Type
  2940 ;;		None
  2941 ;; Return value:  Size  Location     Type
  2942 ;;                  1    wreg      void 
  2943 ;; Registers used:
  2944 ;;		wreg, status,2, status,0
  2945 ;; Tracked objects:
  2946 ;;		On entry : 0/0
  2947 ;;		On exit  : 0/0
  2948 ;;		Unchanged: 0/0
  2949 ;; Data sizes:     COMMON   BANK0   BANK1   BANK2   BANK3   BANK4   BANK5   BANK6   BANK7   BANK8   BANK9  BANK10  BANK1
      +1  BANK12
  2950 ;;      Params:         0       0       0       0       0       0       0       0       0       0       0       0       
      +0       0
  2951 ;;      Locals:         0       0       0       0       0       0       0       0       0       0       0       0       
      +0       0
  2952 ;;      Temps:          0       0       0       0       0       0       0       0       0       0       0       0       
      +0       0
  2953 ;;      Totals:         0       0       0       0       0       0       0       0       0       0       0       0       
      +0       0
  2954 ;;Total ram usage:        0 bytes
  2955 ;; Hardware stack levels used:    1
  2956 ;; Hardware stack levels required when called:    2
  2957 ;; This function calls:
  2958 ;;		Nothing
  2959 ;; This function is called by:
  2960 ;;		_main
  2961 ;; This function uses a non-reentrant model
  2962 ;;
  2963                           
  2964                           
  2965                           ;psect for function _time_control
  2966  0B55                     _time_control:
  2967  0B55                     l4349:	
  2968                           ;incstack = 0
  2969                           ; Regs used in _time_control: [wreg+status,2+status,0]
  2970                           
  2971                           
  2972                           ;../Projects/src/key_and_Other.c: 81:   if(RAM_OP1.BIT.Bit7){
  2973  0B55  0020               	movlb	0	; select bank0
  2974  0B56  1FD1               	btfss	_RAM_OP1,7	;volatile
  2975  0B57  2B59               	goto	u2191
  2976  0B58  2B5A               	goto	u2190
  2977  0B59                     u2191:
  2978  0B59  2B72               	goto	l484
  2979  0B5A                     u2190:
  2980  0B5A                     l4351:
  2981                           
  2982                           ;../Projects/src/key_and_Other.c: 82:     RAM_OP1.BIT.Bit7=0;
  2983  0B5A  13D1               	bcf	_RAM_OP1,7	;volatile
  2984  0B5B                     l4353:
  2985                           
  2986                           ;../Projects/src/key_and_Other.c: 83:     if(TIME_2s_RestTX)--TIME_2s_RestTX;
  2987  0B5B  0841               	movf	_TIME_2s_RestTX,w
  2988  0B5C  1903               	btfsc	3,2
  2989  0B5D  2B5F               	goto	u2201
  2990  0B5E  2B60               	goto	u2200
  2991  0B5F                     u2201:
  2992  0B5F  2B62               	goto	l4357
  2993  0B60                     u2200:
  2994  0B60                     l4355:
  2995  0B60  3001               	movlw	1
  2996  0B61  02C1               	subwf	_TIME_2s_RestTX,f
  2997  0B62                     l4357:
  2998                           
  2999                           ;../Projects/src/key_and_Other.c: 84:     if(RAM_OP1.BIT.Bit5==1){
  3000  0B62  1ED1               	btfss	_RAM_OP1,5	;volatile
  3001  0B63  2B65               	goto	u2211
  3002  0B64  2B66               	goto	u2210
  3003  0B65                     u2211:
  3004  0B65  2B72               	goto	l484
  3005  0B66                     u2210:
  3006  0B66                     l4359:
  3007                           
  3008                           ;../Projects/src/key_and_Other.c: 85:     if ((TB_5s)&&(m_KeyOptSetMode==0)) --TB_5s;
  3009  0B66  0847               	movf	_TB_5s,w
  3010  0B67  1903               	btfsc	3,2
  3011  0B68  2B6A               	goto	u2221
  3012  0B69  2B6B               	goto	u2220
  3013  0B6A                     u2221:
  3014  0B6A  2B72               	goto	l484
  3015  0B6B                     u2220:
  3016  0B6B                     l4361:
  3017  0B6B  0840               	movf	_m_KeyOptSetMode,w
  3018  0B6C  1D03               	btfss	3,2
  3019  0B6D  2B6F               	goto	u2231
  3020  0B6E  2B70               	goto	u2230
  3021  0B6F                     u2231:
  3022  0B6F  2B72               	goto	l484
  3023  0B70                     u2230:
  3024  0B70                     l4363:
  3025  0B70  3001               	movlw	1
  3026  0B71  02C7               	subwf	_TB_5s,f
  3027  0B72                     l484:
  3028  0B72  0008               	return
  3029  0B73                     __end_of_time_control:
  3030                           
  3031                           	psect	text2
  3032  0765                     __ptext2:	
  3033 ;; *************** function _test_mode_control *****************
  3034 ;; Defined at:
  3035 ;;		line 1328 in file "../Projects/src/key_and_Other.c"
  3036 ;; Parameters:    Size  Location     Type
  3037 ;;		None
  3038 ;; Auto vars:     Size  Location     Type
  3039 ;;		None
  3040 ;; Return value:  Size  Location     Type
  3041 ;;                  1    wreg      void 
  3042 ;; Registers used:
  3043 ;;		wreg, fsr1l, fsr1h, status,2, status,0, pclath, cstack
  3044 ;; Tracked objects:
  3045 ;;		On entry : 0/0
  3046 ;;		On exit  : 0/0
  3047 ;;		Unchanged: 0/0
  3048 ;; Data sizes:     COMMON   BANK0   BANK1   BANK2   BANK3   BANK4   BANK5   BANK6   BANK7   BANK8   BANK9  BANK10  BANK1
      +1  BANK12
  3049 ;;      Params:         0       0       0       0       0       0       0       0       0       0       0       0       
      +0       0
  3050 ;;      Locals:         0       0       0       0       0       0       0       0       0       0       0       0       
      +0       0
  3051 ;;      Temps:          1       0       0       0       0       0       0       0       0       0       0       0       
      +0       0
  3052 ;;      Totals:         1       0       0       0       0       0       0       0       0       0       0       0       
      +0       0
  3053 ;;Total ram usage:        1 bytes
  3054 ;; Hardware stack levels used:    1
  3055 ;; Hardware stack levels required when called:    4
  3056 ;; This function calls:
  3057 ;;		_ClearWDT
  3058 ;;		_Delayus
  3059 ;;		_UART1_end
  3060 ;;		_dd_set_ADF7021_Power_on
  3061 ;;		_dd_set_TX_mode
  3062 ;; This function is called by:
  3063 ;;		_main
  3064 ;; This function uses a non-reentrant model
  3065 ;;
  3066                           
  3067                           
  3068                           ;psect for function _test_mode_control
  3069  0765                     _test_mode_control:
  3070  0765                     l5965:	
  3071                           ;incstack = 0
  3072                           ; Regs used in _test_mode_control: [wreg+fsr1l+fsr1h+status,2+status,0+pclath+cstack]
  3073                           
  3074                           
  3075                           ;../Projects/src/key_and_Other.c: 1331:  while(RC3==0){
  3076  0765  2FD9               	goto	l773
  3077  0766                     l5967:
  3078                           
  3079                           ;../Projects/src/key_and_Other.c: 1332:   ClearWDT();
  3080  0766  3189  21C9  3187   	fcall	_ClearWDT
  3081  0769                     l5969:
  3082                           
  3083                           ;../Projects/src/key_and_Other.c: 1334:   if((RB4==0)&&(RAM_OP2.BIT.Bit1==0))
  3084  0769  0020               	movlb	0	; select bank0
  3085  076A  1A0D               	btfsc	13,4	;volatile
  3086  076B  2F6D               	goto	u4241
  3087  076C  2F6E               	goto	u4240
  3088  076D                     u4241:
  3089  076D  2F90               	goto	l775
  3090  076E                     u4240:
  3091  076E                     l5971:
  3092  076E  18FA               	btfsc	_RAM_OP2,1	;volatile
  3093  076F  2F71               	goto	u4251
  3094  0770  2F72               	goto	u4250
  3095  0771                     u4251:
  3096  0771  2F90               	goto	l775
  3097  0772                     u4250:
  3098  0772                     l5973:
  3099                           
  3100                           ;../Projects/src/key_and_Other.c: 1335:   {;../Projects/src/key_and_Other.c: 1336:    De
      +                          layus(100);
  3101  0772  3064               	movlw	100
  3102  0773  318A  221D  3187   	fcall	_Delayus
  3103  0776                     l5975:
  3104                           
  3105                           ;../Projects/src/key_and_Other.c: 1337:    if((RB4==0)&&(RAM_OP2.BIT.Bit1==0))
  3106  0776  0020               	movlb	0	; select bank0
  3107  0777  1A0D               	btfsc	13,4	;volatile
  3108  0778  2F7A               	goto	u4261
  3109  0779  2F7B               	goto	u4260
  3110  077A                     u4261:
  3111  077A  2F91               	goto	l5987
  3112  077B                     u4260:
  3113  077B                     l5977:
  3114  077B  18FA               	btfsc	_RAM_OP2,1	;volatile
  3115  077C  2F7E               	goto	u4271
  3116  077D  2F7F               	goto	u4270
  3117  077E                     u4271:
  3118  077E  2F91               	goto	l5987
  3119  077F                     u4270:
  3120  077F                     l5979:
  3121                           
  3122                           ;../Projects/src/key_and_Other.c: 1338:       {;../Projects/src/key_and_Other.c: 1339:  
      +                             RAM_OP2.BIT.Bit1=1;
  3123  077F  14FA               	bsf	_RAM_OP2,1	;volatile
  3124                           
  3125                           ;../Projects/src/key_and_Other.c: 1340:     RAM_OP1.BIT.Bit1=0;
  3126  0780  10D1               	bcf	_RAM_OP1,1	;volatile
  3127                           
  3128                           ;../Projects/src/key_and_Other.c: 1341:     RAM_OP1.BIT.Bit2=0;
  3129  0781  1151               	bcf	_RAM_OP1,2	;volatile
  3130                           
  3131                           ;../Projects/src/key_and_Other.c: 1342:     RAM_OP1.BIT.Bit3=0;
  3132  0782  11D1               	bcf	_RAM_OP1,3	;volatile
  3133  0783                     l5981:
  3134                           
  3135                           ;../Projects/src/key_and_Other.c: 1343:     TEST_No++;
  3136  0783  3001               	movlw	1
  3137  0784  00F9               	movwf	??_test_mode_control
  3138  0785  0879               	movf	??_test_mode_control,w
  3139  0786  07B6               	addwf	_TEST_No,f
  3140  0787                     l5983:
  3141                           
  3142                           ;../Projects/src/key_and_Other.c: 1344:     if(TEST_No>3)TEST_No=1;
  3143  0787  3004               	movlw	4
  3144  0788  0236               	subwf	_TEST_No,w
  3145  0789  1C03               	skipc
  3146  078A  2F8C               	goto	u4281
  3147  078B  2F8D               	goto	u4280
  3148  078C                     u4281:
  3149  078C  2F91               	goto	l5987
  3150  078D                     u4280:
  3151  078D                     l5985:
  3152  078D  01B6               	clrf	_TEST_No
  3153  078E  0AB6               	incf	_TEST_No,f
  3154  078F  2F91               	goto	l5987
  3155  0790                     l775:	
  3156                           ;../Projects/src/key_and_Other.c: 1347:   else RAM_OP2.BIT.Bit1=0;
  3157                           
  3158  0790  10FA               	bcf	_RAM_OP2,1	;volatile
  3159  0791                     l5987:
  3160                           
  3161                           ;../Projects/src/key_and_Other.c: 1349:   if((TEST_No==1)&&(RAM_OP1.BIT.Bit1==0)){
  3162  0791  0336               	decf	_TEST_No,w
  3163  0792  1D03               	btfss	3,2
  3164  0793  2F95               	goto	u4291
  3165  0794  2F96               	goto	u4290
  3166  0795                     u4291:
  3167  0795  2FA4               	goto	l6001
  3168  0796                     u4290:
  3169  0796                     l5989:
  3170  0796  18D1               	btfsc	_RAM_OP1,1	;volatile
  3171  0797  2F99               	goto	u4301
  3172  0798  2F9A               	goto	u4300
  3173  0799                     u4301:
  3174  0799  2FA4               	goto	l6001
  3175  079A                     u4300:
  3176  079A                     l5991:
  3177                           
  3178                           ;../Projects/src/key_and_Other.c: 1350:     RAM_OP1.BIT.Bit1=1;
  3179  079A  14D1               	bsf	_RAM_OP1,1	;volatile
  3180  079B                     l5993:
  3181                           
  3182                           ;../Projects/src/key_and_Other.c: 1351:     dd_set_ADF7021_Power_on();
  3183  079B  3189  21E4  3187   	fcall	_dd_set_ADF7021_Power_on
  3184  079E                     l5995:
  3185                           
  3186                           ;../Projects/src/key_and_Other.c: 1352:     dd_set_TX_mode();
  3187  079E  318D  2587  3187   	fcall	_dd_set_TX_mode
  3188  07A1                     l5997:
  3189                           
  3190                           ;../Projects/src/key_and_Other.c: 1353:     RAM_OP2.BIT.Bit7=0;
  3191  07A1  13FA               	bcf	_RAM_OP2,7	;volatile
  3192  07A2                     l5999:
  3193                           
  3194                           ;../Projects/src/key_and_Other.c: 1354:     RC0=0;
  3195  07A2  0020               	movlb	0	; select bank0
  3196  07A3  100E               	bcf	14,0	;volatile
  3197  07A4                     l6001:
  3198                           
  3199                           ;../Projects/src/key_and_Other.c: 1358:    if((TEST_No==2)&&(RAM_OP1.BIT.Bit2==0)){
  3200  07A4  3002               	movlw	2
  3201  07A5  0636               	xorwf	_TEST_No,w
  3202  07A6  1D03               	btfss	3,2
  3203  07A7  2FA9               	goto	u4311
  3204  07A8  2FAA               	goto	u4310
  3205  07A9                     u4311:
  3206  07A9  2FB2               	goto	l6007
  3207  07AA                     u4310:
  3208  07AA                     l6003:
  3209  07AA  1951               	btfsc	_RAM_OP1,2	;volatile
  3210  07AB  2FAD               	goto	u4321
  3211  07AC  2FAE               	goto	u4320
  3212  07AD                     u4321:
  3213  07AD  2FB2               	goto	l6007
  3214  07AE                     u4320:
  3215  07AE                     l6005:
  3216                           
  3217                           ;../Projects/src/key_and_Other.c: 1359:     RAM_OP1.BIT.Bit2=1;
  3218  07AE  1551               	bsf	_RAM_OP1,2	;volatile
  3219                           
  3220                           ;../Projects/src/key_and_Other.c: 1361:     RC2=0;
  3221  07AF  110E               	bcf	14,2	;volatile
  3222                           
  3223                           ;../Projects/src/key_and_Other.c: 1362:     RAM_OP2.BIT.Bit7=0;
  3224  07B0  13FA               	bcf	_RAM_OP2,7	;volatile
  3225                           
  3226                           ;../Projects/src/key_and_Other.c: 1363:     RC0=0;
  3227  07B1  100E               	bcf	14,0	;volatile
  3228  07B2                     l6007:
  3229                           
  3230                           ;../Projects/src/key_and_Other.c: 1367:   if((TEST_No==3)&&(RAM_OP1.BIT.Bit3==0)){
  3231  07B2  3003               	movlw	3
  3232  07B3  0636               	xorwf	_TEST_No,w
  3233  07B4  1D03               	btfss	3,2
  3234  07B5  2FB7               	goto	u4331
  3235  07B6  2FB8               	goto	u4330
  3236  07B7                     u4331:
  3237  07B7  2FC4               	goto	l6019
  3238  07B8                     u4330:
  3239  07B8                     l6009:
  3240  07B8  19D1               	btfsc	_RAM_OP1,3	;volatile
  3241  07B9  2FBB               	goto	u4341
  3242  07BA  2FBC               	goto	u4340
  3243  07BB                     u4341:
  3244  07BB  2FC4               	goto	l6019
  3245  07BC                     u4340:
  3246  07BC                     l6011:
  3247                           
  3248                           ;../Projects/src/key_and_Other.c: 1368:     RAM_OP1.BIT.Bit3=1;
  3249  07BC  15D1               	bsf	_RAM_OP1,3	;volatile
  3250  07BD                     l6013:
  3251                           
  3252                           ;../Projects/src/key_and_Other.c: 1369:     dd_set_ADF7021_Power_on();
  3253  07BD  3189  21E4  3187   	fcall	_dd_set_ADF7021_Power_on
  3254  07C0                     l6015:
  3255                           
  3256                           ;../Projects/src/key_and_Other.c: 1370:     dd_set_TX_mode();
  3257  07C0  318D  2587  3187   	fcall	_dd_set_TX_mode
  3258  07C3                     l6017:
  3259                           
  3260                           ;../Projects/src/key_and_Other.c: 1371:     RAM_OP2.BIT.Bit7=1;
  3261  07C3  17FA               	bsf	_RAM_OP2,7	;volatile
  3262  07C4                     l6019:
  3263                           
  3264                           ;../Projects/src/key_and_Other.c: 1376:   if((RA2==1)&&(RAM_OP2.BIT.Bit7==1)&&(RAM_OP2.B
      +                          IT.Bit6==0)){
  3265  07C4  0020               	movlb	0	; select bank0
  3266  07C5  1D0C               	btfss	12,2	;volatile
  3267  07C6  2FC8               	goto	u4351
  3268  07C7  2FC9               	goto	u4350
  3269  07C8                     u4351:
  3270  07C8  2FD4               	goto	l6029
  3271  07C9                     u4350:
  3272  07C9                     l6021:
  3273  07C9  1FFA               	btfss	_RAM_OP2,7	;volatile
  3274  07CA  2FCC               	goto	u4361
  3275  07CB  2FCD               	goto	u4360
  3276  07CC                     u4361:
  3277  07CC  2FD4               	goto	l6029
  3278  07CD                     u4360:
  3279  07CD                     l6023:
  3280  07CD  1B7A               	btfsc	_RAM_OP2,6	;volatile
  3281  07CE  2FD0               	goto	u4371
  3282  07CF  2FD1               	goto	u4370
  3283  07D0                     u4371:
  3284  07D0  2FD4               	goto	l6029
  3285  07D1                     u4370:
  3286  07D1                     l6025:
  3287                           
  3288                           ;../Projects/src/key_and_Other.c: 1377:      RC0=!RC0;
  3289  07D1  3001               	movlw	1
  3290  07D2  068E               	xorwf	14,f
  3291  07D3                     l6027:
  3292                           
  3293                           ;../Projects/src/key_and_Other.c: 1378:      RAM_OP2.BIT.Bit6=1;
  3294  07D3  177A               	bsf	_RAM_OP2,6	;volatile
  3295  07D4                     l6029:
  3296                           
  3297                           ;../Projects/src/key_and_Other.c: 1380:   if(RA2==0)RAM_OP2.BIT.Bit6=0;
  3298  07D4  190C               	btfsc	12,2	;volatile
  3299  07D5  2FD7               	goto	u4381
  3300  07D6  2FD8               	goto	u4380
  3301  07D7                     u4381:
  3302  07D7  2FD9               	goto	l773
  3303  07D8                     u4380:
  3304  07D8                     l6031:
  3305  07D8  137A               	bcf	_RAM_OP2,6	;volatile
  3306  07D9                     l773:	
  3307                           ;../Projects/src/key_and_Other.c: 1384:  }
  3308                           
  3309                           
  3310                           ;../Projects/src/key_and_Other.c: 1331:  while(RC3==0){
  3311  07D9  0020               	movlb	0	; select bank0
  3312  07DA  1D8E               	btfss	14,3	;volatile
  3313  07DB  2FDD               	goto	u4391
  3314  07DC  2FDE               	goto	u4390
  3315  07DD                     u4391:
  3316  07DD  2F66               	goto	l5967
  3317  07DE                     u4390:
  3318  07DE                     l6033:
  3319                           
  3320                           ;../Projects/src/key_and_Other.c: 1385:   UART1_end();
  3321  07DE  3180  2003  3187   	fcall	_UART1_end
  3322  07E1                     l6035:
  3323                           
  3324                           ;../Projects/src/key_and_Other.c: 1386:   RB7=0;
  3325  07E1  0020               	movlb	0	; select bank0
  3326  07E2  138D               	bcf	13,7	;volatile
  3327  07E3                     l6037:
  3328                           
  3329                           ;../Projects/src/key_and_Other.c: 1387:   RB5=0;
  3330  07E3  128D               	bcf	13,5	;volatile
  3331  07E4                     l6039:
  3332                           
  3333                           ;../Projects/src/key_and_Other.c: 1388:   RAM_OP1.BIT.Bit1=0;
  3334  07E4  10D1               	bcf	_RAM_OP1,1	;volatile
  3335  07E5                     l6041:
  3336                           
  3337                           ;../Projects/src/key_and_Other.c: 1389:   RAM_OP1.BIT.Bit2=0;
  3338  07E5  1151               	bcf	_RAM_OP1,2	;volatile
  3339  07E6                     l6043:
  3340                           
  3341                           ;../Projects/src/key_and_Other.c: 1390:   RAM_OP1.BIT.Bit3=0;
  3342  07E6  11D1               	bcf	_RAM_OP1,3	;volatile
  3343  07E7                     l785:
  3344  07E7  0008               	return
  3345  07E8                     __end_of_test_mode_control:
  3346                           
  3347                           	psect	text3
  3348  0003                     __ptext3:	
  3349 ;; *************** function _UART1_end *****************
  3350 ;; Defined at:
  3351 ;;		line 25 in file "../Projects/src/uart.c"
  3352 ;; Parameters:    Size  Location     Type
  3353 ;;		None
  3354 ;; Auto vars:     Size  Location     Type
  3355 ;;		None
  3356 ;; Return value:  Size  Location     Type
  3357 ;;                  1    wreg      void 
  3358 ;; Registers used:
  3359 ;;		None
  3360 ;; Tracked objects:
  3361 ;;		On entry : 0/0
  3362 ;;		On exit  : 0/0
  3363 ;;		Unchanged: 0/0
  3364 ;; Data sizes:     COMMON   BANK0   BANK1   BANK2   BANK3   BANK4   BANK5   BANK6   BANK7   BANK8   BANK9  BANK10  BANK1
      +1  BANK12
  3365 ;;      Params:         0       0       0       0       0       0       0       0       0       0       0       0       
      +0       0
  3366 ;;      Locals:         0       0       0       0       0       0       0       0       0       0       0       0       
      +0       0
  3367 ;;      Temps:          0       0       0       0       0       0       0       0       0       0       0       0       
      +0       0
  3368 ;;      Totals:         0       0       0       0       0       0       0       0       0       0       0       0       
      +0       0
  3369 ;;Total ram usage:        0 bytes
  3370 ;; Hardware stack levels used:    1
  3371 ;; Hardware stack levels required when called:    2
  3372 ;; This function calls:
  3373 ;;		Nothing
  3374 ;; This function is called by:
  3375 ;;		_test_mode_control
  3376 ;; This function uses a non-reentrant model
  3377 ;;
  3378                           
  3379                           
  3380                           ;psect for function _UART1_end
  3381  0003                     _UART1_end:
  3382  0003                     l1026:	
  3383                           ;incstack = 0
  3384                           ; Regs used in _UART1_end: []
  3385                           
  3386  0003  0008               	return
  3387  0004                     __end_of_UART1_end:
  3388                           
  3389                           	psect	text4
  3390  0EAB                     __ptext4:	
  3391 ;; *************** function _key_check *****************
  3392 ;; Defined at:
  3393 ;;		line 22 in file "../Projects/src/key_and_Other.c"
  3394 ;; Parameters:    Size  Location     Type
  3395 ;;		None
  3396 ;; Auto vars:     Size  Location     Type
  3397 ;;		None
  3398 ;; Return value:  Size  Location     Type
  3399 ;;                  1    wreg      void 
  3400 ;; Registers used:
  3401 ;;		wreg, fsr0l, fsr0h, fsr1l, fsr1h, status,2, status,0, pclath, cstack
  3402 ;; Tracked objects:
  3403 ;;		On entry : 0/0
  3404 ;;		On exit  : 0/0
  3405 ;;		Unchanged: 0/0
  3406 ;; Data sizes:     COMMON   BANK0   BANK1   BANK2   BANK3   BANK4   BANK5   BANK6   BANK7   BANK8   BANK9  BANK10  BANK1
      +1  BANK12
  3407 ;;      Params:         0       0       0       0       0       0       0       0       0       0       0       0       
      +0       0
  3408 ;;      Locals:         0       0       0       0       0       0       0       0       0       0       0       0       
      +0       0
  3409 ;;      Temps:          0       1       0       0       0       0       0       0       0       0       0       0       
      +0       0
  3410 ;;      Totals:         0       1       0       0       0       0       0       0       0       0       0       0       
      +0       0
  3411 ;;Total ram usage:        1 bytes
  3412 ;; Hardware stack levels used:    1
  3413 ;; Hardware stack levels required when called:    9
  3414 ;; This function calls:
  3415 ;;		_ClearWDT
  3416 ;;		__DupliFuncSetMode
  3417 ;;		__KeyInTx
  3418 ;;		__RegistrationMode
  3419 ;; This function is called by:
  3420 ;;		_main
  3421 ;; This function uses a non-reentrant model
  3422 ;;
  3423                           
  3424                           
  3425                           ;psect for function _key_check
  3426  0EAB                     _key_check:
  3427  0EAB                     l5911:	
  3428                           ;incstack = 0
  3429                           ; Regs used in _key_check: [wreg-fsr1h+status,2+status,0+pclath+cstack]
  3430                           
  3431                           
  3432                           ;../Projects/src/key_and_Other.c: 24:    if(RAM_OP1.BIT.Bit6){
  3433  0EAB  0020               	movlb	0	; select bank0
  3434  0EAC  1F51               	btfss	_RAM_OP1,6	;volatile
  3435  0EAD  2EAF               	goto	u4121
  3436  0EAE  2EB0               	goto	u4120
  3437  0EAF                     u4121:
  3438  0EAF  2F29               	goto	l477
  3439  0EB0                     u4120:
  3440  0EB0                     l5913:
  3441                           
  3442                           ;../Projects/src/key_and_Other.c: 25:     RAM_OP1.BIT.Bit6=0;
  3443  0EB0  1351               	bcf	_RAM_OP1,6	;volatile
  3444  0EB1                     l5915:
  3445                           
  3446                           ;../Projects/src/key_and_Other.c: 27:   if (TB_100ms) --TB_100ms;
  3447  0EB1  0849               	movf	_TB_100ms,w
  3448  0EB2  1903               	btfsc	3,2
  3449  0EB3  2EB5               	goto	u4131
  3450  0EB4  2EB6               	goto	u4130
  3451  0EB5                     u4131:
  3452  0EB5  2EB9               	goto	l5919
  3453  0EB6                     u4130:
  3454  0EB6                     l5917:
  3455  0EB6  3001               	movlw	1
  3456  0EB7  02C9               	subwf	_TB_100ms,f
  3457  0EB8  2EBE               	goto	l5923
  3458  0EB9                     l5919:
  3459                           
  3460                           ;../Projects/src/key_and_Other.c: 29:    TB_100ms = 100;
  3461  0EB9  3064               	movlw	100
  3462  0EBA  00EF               	movwf	??_key_check
  3463  0EBB  086F               	movf	??_key_check,w
  3464  0EBC  00C9               	movwf	_TB_100ms
  3465  0EBD                     l5921:
  3466                           
  3467                           ;../Projects/src/key_and_Other.c: 30:    RAM_OP1.BIT.Bit7 = 1;
  3468  0EBD  17D1               	bsf	_RAM_OP1,7	;volatile
  3469  0EBE                     l5923:
  3470                           
  3471                           ;../Projects/src/key_and_Other.c: 33:     if(TIME_power_on_AD)TIME_power_on_AD--;
  3472  0EBE  0830               	movf	_TIME_power_on_AD,w
  3473  0EBF  0431               	iorwf	_TIME_power_on_AD+1,w
  3474  0EC0  1903               	btfsc	3,2
  3475  0EC1  2EC3               	goto	u4141
  3476  0EC2  2EC4               	goto	u4140
  3477  0EC3                     u4141:
  3478  0EC3  2EC8               	goto	l5927
  3479  0EC4                     u4140:
  3480  0EC4                     l5925:
  3481  0EC4  3001               	movlw	1
  3482  0EC5  02B0               	subwf	_TIME_power_on_AD,f
  3483  0EC6  3000               	movlw	0
  3484  0EC7  3BB1               	subwfb	_TIME_power_on_AD+1,f
  3485  0EC8                     l5927:
  3486                           
  3487                           ;../Projects/src/key_and_Other.c: 34:     if(m_TimerRegMode)--m_TimerRegMode;
  3488  0EC8  082A               	movf	_m_TimerRegMode,w
  3489  0EC9  042B               	iorwf	_m_TimerRegMode+1,w
  3490  0ECA  1903               	btfsc	3,2
  3491  0ECB  2ECD               	goto	u4151
  3492  0ECC  2ECE               	goto	u4150
  3493  0ECD                     u4151:
  3494  0ECD  2ED2               	goto	l5931
  3495  0ECE                     u4150:
  3496  0ECE                     l5929:
  3497  0ECE  3001               	movlw	1
  3498  0ECF  02AA               	subwf	_m_TimerRegMode,f
  3499  0ED0  3000               	movlw	0
  3500  0ED1  3BAB               	subwfb	_m_TimerRegMode+1,f
  3501  0ED2                     l5931:
  3502                           
  3503                           ;../Projects/src/key_and_Other.c: 35:     if(m_KeyDupliSetTimeout)--m_KeyDupliSetTimeout
      +                          ;
  3504  0ED2  0828               	movf	_m_KeyDupliSetTimeout,w
  3505  0ED3  0429               	iorwf	_m_KeyDupliSetTimeout+1,w
  3506  0ED4  1903               	btfsc	3,2
  3507  0ED5  2ED7               	goto	u4161
  3508  0ED6  2ED8               	goto	u4160
  3509  0ED7                     u4161:
  3510  0ED7  2EDC               	goto	l5935
  3511  0ED8                     u4160:
  3512  0ED8                     l5933:
  3513  0ED8  3001               	movlw	1
  3514  0ED9  02A8               	subwf	_m_KeyDupliSetTimeout,f
  3515  0EDA  3000               	movlw	0
  3516  0EDB  3BA9               	subwfb	_m_KeyDupliSetTimeout+1,f
  3517  0EDC                     l5935:
  3518                           
  3519                           ;../Projects/src/key_and_Other.c: 36:     if(m_TimerKeyMonitor)--m_TimerKeyMonitor;
  3520  0EDC  082C               	movf	_m_TimerKeyMonitor,w
  3521  0EDD  042D               	iorwf	_m_TimerKeyMonitor+1,w
  3522  0EDE  1903               	btfsc	3,2
  3523  0EDF  2EE1               	goto	u4171
  3524  0EE0  2EE2               	goto	u4170
  3525  0EE1                     u4171:
  3526  0EE1  2EE6               	goto	l5939
  3527  0EE2                     u4170:
  3528  0EE2                     l5937:
  3529  0EE2  3001               	movlw	1
  3530  0EE3  02AC               	subwf	_m_TimerKeyMonitor,f
  3531  0EE4  3000               	movlw	0
  3532  0EE5  3BAD               	subwfb	_m_TimerKeyMonitor+1,f
  3533  0EE6                     l5939:
  3534                           
  3535                           ;../Projects/src/key_and_Other.c: 37:     if(m_KeyDupli1stTimer)--m_KeyDupli1stTimer;
  3536  0EE6  0826               	movf	_m_KeyDupli1stTimer,w
  3537  0EE7  0427               	iorwf	_m_KeyDupli1stTimer+1,w
  3538  0EE8  1903               	btfsc	3,2
  3539  0EE9  2EEB               	goto	u4181
  3540  0EEA  2EEC               	goto	u4180
  3541  0EEB                     u4181:
  3542  0EEB  2EF1               	goto	l471
  3543  0EEC                     u4180:
  3544  0EEC                     l5941:
  3545  0EEC  3001               	movlw	1
  3546  0EED  02A6               	subwf	_m_KeyDupli1stTimer,f
  3547  0EEE  3000               	movlw	0
  3548  0EEF  3BA7               	subwfb	_m_KeyDupli1stTimer+1,f
  3549  0EF0  2EF2               	goto	l472
  3550  0EF1                     l471:	
  3551                           ;../Projects/src/key_and_Other.c: 38:     else RAM_SW.BIT.Bit3=0;
  3552                           
  3553  0EF1  11C2               	bcf	_RAM_SW,3	;volatile
  3554  0EF2                     l472:
  3555                           
  3556                           ;../Projects/src/key_and_Other.c: 39:     if ( RAM_SW.BIT.Bit3 &&m_KeyDupli1stTimer){
  3557  0EF2  1DC2               	btfss	_RAM_SW,3	;volatile
  3558  0EF3  2EF5               	goto	u4191
  3559  0EF4  2EF6               	goto	u4190
  3560  0EF5                     u4191:
  3561  0EF5  2F0D               	goto	l5951
  3562  0EF6                     u4190:
  3563  0EF6                     l5943:
  3564  0EF6  0826               	movf	_m_KeyDupli1stTimer,w
  3565  0EF7  0427               	iorwf	_m_KeyDupli1stTimer+1,w
  3566  0EF8  1903               	btfsc	3,2
  3567  0EF9  2EFB               	goto	u4201
  3568  0EFA  2EFC               	goto	u4200
  3569  0EFB                     u4201:
  3570  0EFB  2F0D               	goto	l5951
  3571  0EFC                     u4200:
  3572  0EFC                     l5945:
  3573                           
  3574                           ;../Projects/src/key_and_Other.c: 40:       time_led++;
  3575  0EFC  3001               	movlw	1
  3576  0EFD  07A4               	addwf	_time_led,f
  3577  0EFE  3000               	movlw	0
  3578  0EFF  3DA5               	addwfc	_time_led+1,f
  3579                           
  3580                           ;../Projects/src/key_and_Other.c: 41:       if(time_led>=100){time_led=0;RB5=!RB5;}
  3581  0F00  3000               	movlw	0
  3582  0F01  0225               	subwf	_time_led+1,w
  3583  0F02  3064               	movlw	100
  3584  0F03  1903               	skipnz
  3585  0F04  0224               	subwf	_time_led,w
  3586  0F05  1C03               	skipc
  3587  0F06  2F08               	goto	u4211
  3588  0F07  2F09               	goto	u4210
  3589  0F08                     u4211:
  3590  0F08  2F0D               	goto	l5951
  3591  0F09                     u4210:
  3592  0F09                     l5947:
  3593  0F09  01A4               	clrf	_time_led
  3594  0F0A  01A5               	clrf	_time_led+1
  3595  0F0B                     l5949:
  3596  0F0B  3020               	movlw	32
  3597  0F0C  068D               	xorwf	13,f
  3598  0F0D                     l5951:
  3599                           
  3600                           ;../Projects/src/key_and_Other.c: 43:     if(m_TimerKey)--m_TimerKey;
  3601  0F0D  082E               	movf	_m_TimerKey,w
  3602  0F0E  042F               	iorwf	_m_TimerKey+1,w
  3603  0F0F  1903               	btfsc	3,2
  3604  0F10  2F12               	goto	u4221
  3605  0F11  2F13               	goto	u4220
  3606  0F12                     u4221:
  3607  0F12  2F17               	goto	l5955
  3608  0F13                     u4220:
  3609  0F13                     l5953:
  3610  0F13  3001               	movlw	1
  3611  0F14  02AE               	subwf	_m_TimerKey,f
  3612  0F15  3000               	movlw	0
  3613  0F16  3BAF               	subwfb	_m_TimerKey+1,f
  3614  0F17                     l5955:
  3615                           
  3616                           ;../Projects/src/key_and_Other.c: 69:     _KeyInTx();
  3617  0F17  3181  21E7  318E   	fcall	__KeyInTx
  3618  0F1A                     l5957:
  3619                           
  3620                           ;../Projects/src/key_and_Other.c: 70:     if(RAM_SW.BIT.Bit5==1)return;
  3621  0F1A  0020               	movlb	0	; select bank0
  3622  0F1B  1EC2               	btfss	_RAM_SW,5	;volatile
  3623  0F1C  2F1E               	goto	u4231
  3624  0F1D  2F1F               	goto	u4230
  3625  0F1E                     u4231:
  3626  0F1E  2F20               	goto	l5961
  3627  0F1F                     u4230:
  3628  0F1F  2F29               	goto	l477
  3629  0F20                     l5961:
  3630                           
  3631                           ;../Projects/src/key_and_Other.c: 71:     _RegistrationMode();
  3632  0F20  3185  258C  318E   	fcall	__RegistrationMode
  3633                           
  3634                           ;../Projects/src/key_and_Other.c: 72:     _DupliFuncSetMode();
  3635  0F23  3180  203A  318E   	fcall	__DupliFuncSetMode
  3636  0F26                     l5963:
  3637                           
  3638                           ;../Projects/src/key_and_Other.c: 74:     ClearWDT();
  3639  0F26  3189  21C9  318E   	fcall	_ClearWDT
  3640  0F29                     l477:
  3641  0F29  0008               	return
  3642  0F2A                     __end_of_key_check:
  3643                           
  3644                           	psect	text5
  3645  058C                     __ptext5:	
  3646 ;; *************** function __RegistrationMode *****************
  3647 ;; Defined at:
  3648 ;;		line 1099 in file "../Projects/src/key_and_Other.c"
  3649 ;; Parameters:    Size  Location     Type
  3650 ;;		None
  3651 ;; Auto vars:     Size  Location     Type
  3652 ;;		None
  3653 ;; Return value:  Size  Location     Type
  3654 ;;                  1    wreg      void 
  3655 ;; Registers used:
  3656 ;;		wreg, fsr0l, fsr0h, fsr1l, fsr1h, status,2, status,0, pclath, cstack
  3657 ;; Tracked objects:
  3658 ;;		On entry : 0/0
  3659 ;;		On exit  : 0/0
  3660 ;;		Unchanged: 0/0
  3661 ;; Data sizes:     COMMON   BANK0   BANK1   BANK2   BANK3   BANK4   BANK5   BANK6   BANK7   BANK8   BANK9  BANK10  BANK1
      +1  BANK12
  3662 ;;      Params:         0       0       0       0       0       0       0       0       0       0       0       0       
      +0       0
  3663 ;;      Locals:         0       0       0       0       0       0       0       0       0       0       0       0       
      +0       0
  3664 ;;      Temps:          0       2       0       0       0       0       0       0       0       0       0       0       
      +0       0
  3665 ;;      Totals:         0       2       0       0       0       0       0       0       0       0       0       0       
      +0       0
  3666 ;;Total ram usage:        2 bytes
  3667 ;; Hardware stack levels used:    1
  3668 ;; Hardware stack levels required when called:    6
  3669 ;; This function calls:
  3670 ;;		__GetRegMode
  3671 ;;		__IdClear
  3672 ;;		__ReqBuzzer
  3673 ;;		__ReqTxdEdit
  3674 ;;		_atol_de
  3675 ;; This function is called by:
  3676 ;;		_key_check
  3677 ;; This function uses a non-reentrant model
  3678 ;;
  3679                           
  3680                           
  3681                           ;psect for function __RegistrationMode
  3682  058C                     __RegistrationMode:
  3683  058C                     l5607:	
  3684                           ;incstack = 0
  3685                           ; Regs used in __RegistrationMode: [wreg-fsr1h+status,2+status,0+pclath+cstack]
  3686                           
  3687                           
  3688                           ;../Projects/src/key_and_Other.c: 1101:  if ( !_GetRegMode() )
  3689  058C  3189  21CD  3185   	fcall	__GetRegMode
  3690  058F  3A00               	xorlw	0
  3691  0590  1D03               	skipz
  3692  0591  2D93               	goto	u3661
  3693  0592  2D94               	goto	u3660
  3694  0593                     u3661:
  3695  0593  2D95               	goto	l728
  3696  0594                     u3660:
  3697  0594  2E79               	goto	l729
  3698  0595                     l728:	
  3699                           ;../Projects/src/key_and_Other.c: 1104:  }
  3700                           
  3701                           
  3702                           ;../Projects/src/key_and_Other.c: 1106:         if(RAM_OP1.BIT.Bit5==0){
  3703  0595  0020               	movlb	0	; select bank0
  3704  0596  1AD1               	btfsc	_RAM_OP1,5	;volatile
  3705  0597  2D99               	goto	u3671
  3706  0598  2D9A               	goto	u3670
  3707  0599                     u3671:
  3708  0599  2D9C               	goto	l5613
  3709  059A                     u3670:
  3710  059A                     l5611:
  3711                           
  3712                           ;../Projects/src/key_and_Other.c: 1107:  RAM_OP1.BIT.Bit5=1;
  3713  059A  16D1               	bsf	_RAM_OP1,5	;volatile
  3714                           
  3715                           ;../Projects/src/key_and_Other.c: 1108:  RB7=1;
  3716  059B  178D               	bsf	13,7	;volatile
  3717  059C                     l5613:
  3718                           
  3719                           ;../Projects/src/key_and_Other.c: 1110:  if(m_TimerRegMode){
  3720  059C  082A               	movf	_m_TimerRegMode,w
  3721  059D  042B               	iorwf	_m_TimerRegMode+1,w
  3722  059E  1903               	btfsc	3,2
  3723  059F  2DA1               	goto	u3681
  3724  05A0  2DA2               	goto	u3680
  3725  05A1                     u3681:
  3726  05A1  2DB8               	goto	l5621
  3727  05A2                     u3680:
  3728  05A2                     l5615:
  3729                           
  3730                           ;../Projects/src/key_and_Other.c: 1111:    TB_5s=51;
  3731  05A2  3033               	movlw	51
  3732  05A3  00EA               	movwf	??__RegistrationMode
  3733  05A4  086A               	movf	??__RegistrationMode,w
  3734  05A5  00C7               	movwf	_TB_5s
  3735                           
  3736                           ;../Projects/src/key_and_Other.c: 1112:           time_led++;
  3737  05A6  3001               	movlw	1
  3738  05A7  07A4               	addwf	_time_led,f
  3739  05A8  3000               	movlw	0
  3740  05A9  3DA5               	addwfc	_time_led+1,f
  3741                           
  3742                           ;../Projects/src/key_and_Other.c: 1113:           if(time_led>=500){time_led=0;RB5=!RB5;
      +                          }
  3743  05AA  3001               	movlw	1
  3744  05AB  0225               	subwf	_time_led+1,w
  3745  05AC  30F4               	movlw	244
  3746  05AD  1903               	skipnz
  3747  05AE  0224               	subwf	_time_led,w
  3748  05AF  1C03               	skipc
  3749  05B0  2DB2               	goto	u3691
  3750  05B1  2DB3               	goto	u3690
  3751  05B2                     u3691:
  3752  05B2  2E63               	goto	l5665
  3753  05B3                     u3690:
  3754  05B3                     l5617:
  3755  05B3  01A4               	clrf	_time_led
  3756  05B4  01A5               	clrf	_time_led+1
  3757  05B5                     l5619:
  3758  05B5  3020               	movlw	32
  3759  05B6  068D               	xorwf	13,f
  3760  05B7  2E63               	goto	l5665
  3761  05B8                     l5621:
  3762                           
  3763                           ;../Projects/src/key_and_Other.c: 1117:          _ReqBuzzer(500,250,2);
  3764  05B8  30F4               	movlw	244
  3765  05B9  00F3               	movwf	__ReqBuzzer@BEEP_on_SET
  3766  05BA  3001               	movlw	1
  3767  05BB  00F4               	movwf	__ReqBuzzer@BEEP_on_SET+1
  3768  05BC  30FA               	movlw	250
  3769  05BD  00EA               	movwf	??__RegistrationMode
  3770  05BE  086A               	movf	??__RegistrationMode,w
  3771  05BF  00F5               	movwf	__ReqBuzzer@BEEP_off_SET
  3772  05C0  3002               	movlw	2
  3773  05C1  00EB               	movwf	??__RegistrationMode+1
  3774  05C2  086B               	movf	??__RegistrationMode+1,w
  3775  05C3  00F6               	movwf	__ReqBuzzer@BEEP_freq_SET
  3776  05C4  318B  2319  3185   	fcall	__ReqBuzzer
  3777  05C7                     l5623:
  3778                           
  3779                           ;../Projects/src/key_and_Other.c: 1118:   RB5=0;
  3780  05C7  0020               	movlb	0	; select bank0
  3781  05C8  128D               	bcf	13,5	;volatile
  3782  05C9                     l5625:
  3783                           
  3784                           ;../Projects/src/key_and_Other.c: 1119:   m_RegMode = 0 ;
  3785  05C9  01CE               	clrf	_m_RegMode
  3786  05CA  2E63               	goto	l5665
  3787  05CB                     l5627:
  3788                           
  3789                           ;../Projects/src/key_and_Other.c: 1134:    if ( ++m_RegID[m_RegDigit] > '9' )
  3790  05CB  3001               	movlw	1
  3791  05CC  00EA               	movwf	??__RegistrationMode
  3792  05CD  0837               	movf	_m_RegDigit,w
  3793  05CE  3EDC               	addlw	(low (_m_RegID| 0))& (0+255)
  3794  05CF  0086               	movwf	6
  3795  05D0  0187               	clrf	7
  3796  05D1  086A               	movf	??__RegistrationMode,w
  3797  05D2  0781               	addwf	1,f
  3798  05D3  303A               	movlw	58
  3799  05D4  0201               	subwf	1,w
  3800  05D5  1C03               	skipc
  3801  05D6  2DD8               	goto	u3701
  3802  05D7  2DD9               	goto	u3700
  3803  05D8                     u3701:
  3804  05D8  2DE1               	goto	l5631
  3805  05D9                     u3700:
  3806  05D9                     l5629:
  3807                           
  3808                           ;../Projects/src/key_and_Other.c: 1135:    {;../Projects/src/key_and_Other.c: 1136:     
      +                          m_RegID[m_RegDigit] = '0' ;
  3809  05D9  3030               	movlw	48
  3810  05DA  00EA               	movwf	??__RegistrationMode
  3811  05DB  0837               	movf	_m_RegDigit,w
  3812  05DC  3EDC               	addlw	(low (_m_RegID| 0))& (0+255)
  3813  05DD  0086               	movwf	6
  3814  05DE  0187               	clrf	7
  3815  05DF  086A               	movf	??__RegistrationMode,w
  3816  05E0  0081               	movwf	1
  3817  05E1                     l5631:
  3818                           
  3819                           ;../Projects/src/key_and_Other.c: 1139:    _ReqBuzzer(103,103,0);
  3820  05E1  3067               	movlw	103
  3821  05E2  00F3               	movwf	__ReqBuzzer@BEEP_on_SET
  3822  05E3  3000               	movlw	0
  3823  05E4  00F4               	movwf	__ReqBuzzer@BEEP_on_SET+1
  3824  05E5  3067               	movlw	103
  3825  05E6  00EA               	movwf	??__RegistrationMode
  3826  05E7  086A               	movf	??__RegistrationMode,w
  3827  05E8  00F5               	movwf	__ReqBuzzer@BEEP_off_SET
  3828  05E9  01F6               	clrf	__ReqBuzzer@BEEP_freq_SET
  3829  05EA  318B  2319  3185   	fcall	__ReqBuzzer
  3830  05ED                     l5633:
  3831                           
  3832                           ;../Projects/src/key_and_Other.c: 1140:    m_TimerRegMode = 60000 ;
  3833  05ED  3060               	movlw	96
  3834  05EE  0020               	movlb	0	; select bank0
  3835  05EF  00AA               	movwf	_m_TimerRegMode
  3836  05F0  30EA               	movlw	234
  3837  05F1  00AB               	movwf	_m_TimerRegMode+1
  3838                           
  3839                           ;../Projects/src/key_and_Other.c: 1141:    break ;
  3840  05F2  2E79               	goto	l729
  3841  05F3                     l5635:
  3842                           
  3843                           ;../Projects/src/key_and_Other.c: 1144:    if ( ++m_RegDigit > 8 )
  3844  05F3  3001               	movlw	1
  3845  05F4  00EA               	movwf	??__RegistrationMode
  3846  05F5  086A               	movf	??__RegistrationMode,w
  3847  05F6  07B7               	addwf	_m_RegDigit,f
  3848  05F7  3009               	movlw	9
  3849  05F8  0237               	subwf	_m_RegDigit,w
  3850  05F9  1C03               	skipc
  3851  05FA  2DFC               	goto	u3711
  3852  05FB  2DFD               	goto	u3710
  3853  05FC                     u3711:
  3854  05FC  2E02               	goto	l5639
  3855  05FD                     u3710:
  3856  05FD                     l5637:
  3857                           
  3858                           ;../Projects/src/key_and_Other.c: 1145:    {;../Projects/src/key_and_Other.c: 1146:     
      +                          m_RegDigit= 8 ;
  3859  05FD  3008               	movlw	8
  3860  05FE  00EA               	movwf	??__RegistrationMode
  3861  05FF  086A               	movf	??__RegistrationMode,w
  3862  0600  00B7               	movwf	_m_RegDigit
  3863                           
  3864                           ;../Projects/src/key_and_Other.c: 1147:    }
  3865  0601  2DED               	goto	l5633
  3866  0602                     l5639:
  3867                           
  3868                           ;../Projects/src/key_and_Other.c: 1150:    {;../Projects/src/key_and_Other.c: 1152:     
      +                           _ReqBuzzer(103,103,1);
  3869  0602  3067               	movlw	103
  3870  0603  00F3               	movwf	__ReqBuzzer@BEEP_on_SET
  3871  0604  3000               	movlw	0
  3872  0605  00F4               	movwf	__ReqBuzzer@BEEP_on_SET+1
  3873  0606  3067               	movlw	103
  3874  0607  00EA               	movwf	??__RegistrationMode
  3875  0608  086A               	movf	??__RegistrationMode,w
  3876  0609  00F5               	movwf	__ReqBuzzer@BEEP_off_SET
  3877  060A  01F6               	clrf	__ReqBuzzer@BEEP_freq_SET
  3878  060B  0AF6               	incf	__ReqBuzzer@BEEP_freq_SET,f
  3879  060C  318B  2319  3185   	fcall	__ReqBuzzer
  3880  060F  2DED               	goto	l5633
  3881  0610                     l5643:
  3882                           
  3883                           ;../Projects/src/key_and_Other.c: 1162:    _IdClear() ;
  3884  0610  3187  27E8  3185   	fcall	__IdClear
  3885  0613                     l5645:
  3886                           
  3887                           ;../Projects/src/key_and_Other.c: 1164:    _ReqBuzzer(1000,1,0);
  3888  0613  30E8               	movlw	232
  3889  0614  00F3               	movwf	__ReqBuzzer@BEEP_on_SET
  3890  0615  3003               	movlw	3
  3891  0616  00F4               	movwf	__ReqBuzzer@BEEP_on_SET+1
  3892  0617  01F5               	clrf	__ReqBuzzer@BEEP_off_SET
  3893  0618  0AF5               	incf	__ReqBuzzer@BEEP_off_SET,f
  3894  0619  01F6               	clrf	__ReqBuzzer@BEEP_freq_SET
  3895  061A  318B  2319  3185   	fcall	__ReqBuzzer
  3896  061D  2DED               	goto	l5633
  3897  061E                     l5649:
  3898                           
  3899                           ;../Projects/src/key_and_Other.c: 1170:    if ( m_RegDigit < 8 )
  3900  061E  3008               	movlw	8
  3901  061F  0237               	subwf	_m_RegDigit,w
  3902  0620  1803               	skipnc
  3903  0621  2E23               	goto	u3721
  3904  0622  2E24               	goto	u3720
  3905  0623                     u3721:
  3906  0623  2E25               	goto	l5653
  3907  0624                     u3720:
  3908  0624  2E79               	goto	l729
  3909  0625                     l5653:
  3910                           
  3911                           ;../Projects/src/key_and_Other.c: 1178:    ID_data_add.IDL = (unsigned long)atol_de(m_Re
      +                          gID) ;
  3912  0625  30DC               	movlw	(low (_m_RegID| 0))& (0+255)
  3913  0626  318C  24DE  3185   	fcall	_atol_de
  3914  0629  0020               	movlb	0	; select bank0
  3915  062A  085E               	movf	?_atol_de+3,w
  3916  062B  0021               	movlb	1	; select bank1
  3917  062C  00BB               	movwf	(_ID_data_add+3)^(0+128)
  3918  062D  0020               	movlb	0	; select bank0
  3919  062E  085D               	movf	?_atol_de+2,w
  3920  062F  0021               	movlb	1	; select bank1
  3921  0630  00BA               	movwf	(_ID_data_add+2)^(0+128)
  3922  0631  0020               	movlb	0	; select bank0
  3923  0632  085C               	movf	?_atol_de+1,w
  3924  0633  0021               	movlb	1	; select bank1
  3925  0634  00B9               	movwf	(_ID_data_add+1)^(0+128)
  3926  0635  0020               	movlb	0	; select bank0
  3927  0636  085B               	movf	?_atol_de,w
  3928  0637  0021               	movlb	1	; select bank1
  3929  0638  00B8               	movwf	_ID_data_add^(0+128)
  3930  0639                     l5655:
  3931                           
  3932                           ;../Projects/src/key_and_Other.c: 1181:    if ( ID_data_add.IDL > 16777214 )
  3933  0639  083B               	movf	(_ID_data_add+3)^(0+128),w
  3934  063A  1D03               	btfss	3,2
  3935  063B  2E46               	goto	u3730
  3936  063C  30FF               	movlw	255
  3937  063D  0238               	subwf	_ID_data_add^(0+128),w
  3938  063E  30FF               	movlw	255
  3939  063F  3B39               	subwfb	(_ID_data_add+1)^(0+128),w
  3940  0640  30FF               	movlw	255
  3941  0641  3B3A               	subwfb	(_ID_data_add+2)^(0+128),w
  3942  0642  1C03               	btfss	3,0
  3943  0643  2E45               	goto	u3731
  3944  0644  2E46               	goto	u3730
  3945  0645                     u3731:
  3946  0645  2E57               	goto	l5659
  3947  0646                     u3730:
  3948  0646                     l5657:
  3949                           
  3950                           ;../Projects/src/key_and_Other.c: 1183:    {;../Projects/src/key_and_Other.c: 1185:     
      +                                 _ReqBuzzer(100,100,3);
  3951  0646  3064               	movlw	100
  3952  0647  00F3               	movwf	__ReqBuzzer@BEEP_on_SET
  3953  0648  3000               	movlw	0
  3954  0649  00F4               	movwf	__ReqBuzzer@BEEP_on_SET+1
  3955  064A  3064               	movlw	100
  3956  064B  0020               	movlb	0	; select bank0
  3957  064C  00EA               	movwf	??__RegistrationMode
  3958  064D  086A               	movf	??__RegistrationMode,w
  3959  064E  00F5               	movwf	__ReqBuzzer@BEEP_off_SET
  3960  064F  3003               	movlw	3
  3961  0650  00EB               	movwf	??__RegistrationMode+1
  3962  0651  086B               	movf	??__RegistrationMode+1,w
  3963  0652  00F6               	movwf	__ReqBuzzer@BEEP_freq_SET
  3964  0653  318B  2319  3185   	fcall	__ReqBuzzer
  3965                           
  3966                           ;../Projects/src/key_and_Other.c: 1186:    }
  3967  0656  2E60               	goto	l5661
  3968  0657                     l5659:
  3969                           
  3970                           ;../Projects/src/key_and_Other.c: 1188:    {;../Projects/src/key_and_Other.c: 1189:     
      +                          _ReqTxdEdit(20,20) ;
  3971  0657  3014               	movlw	20
  3972  0658  0020               	movlb	0	; select bank0
  3973  0659  00EA               	movwf	??__RegistrationMode
  3974  065A  086A               	movf	??__RegistrationMode,w
  3975  065B  00E4               	movwf	__ReqTxdEdit@buzreq
  3976  065C  3014               	movlw	20
  3977  065D  3183  2383  3185   	fcall	__ReqTxdEdit
  3978  0660                     l5661:
  3979                           
  3980                           ;../Projects/src/key_and_Other.c: 1192:    m_RegMode = 0 ;
  3981  0660  0020               	movlb	0	; select bank0
  3982  0661  01CE               	clrf	_m_RegMode
  3983                           
  3984                           ;../Projects/src/key_and_Other.c: 1193:    break ;
  3985  0662  2E79               	goto	l729
  3986  0663                     l5665:
  3987  0663  0844               	movf	_m_KindOfKey,w
  3988  0664  00EA               	movwf	??__RegistrationMode
  3989  0665  01EB               	clrf	??__RegistrationMode+1
  3990                           
  3991                           ; Switch on 2 bytes has been partitioned into a top level switch of size 1, and 1 sub-sw
      +                          itches
  3992                           ; Switch size 1, requested type "simple"
  3993                           ; Number of cases is 1, Range of values is 0 to 0
  3994                           ; switch strategies available:
  3995                           ; Name         Instructions Cycles
  3996                           ; simple_byte            4     3 (average)
  3997                           ; direct_byte            8     6 (fixed)
  3998                           ; jumptable            260     6 (fixed)
  3999                           ;	Chosen strategy is simple_byte
  4000  0666  086B               	movf	??__RegistrationMode+1,w
  4001  0667  3A00               	xorlw	0	; case 0
  4002  0668  1903               	skipnz
  4003  0669  2E6B               	goto	l6489
  4004  066A  2E79               	goto	l729
  4005  066B                     l6489:
  4006                           
  4007                           ; Switch size 1, requested type "simple"
  4008                           ; Number of cases is 4, Range of values is 1 to 5
  4009                           ; switch strategies available:
  4010                           ; Name         Instructions Cycles
  4011                           ; simple_byte           13     7 (average)
  4012                           ; direct_byte           19     9 (fixed)
  4013                           ; jumptable            263     9 (fixed)
  4014                           ;	Chosen strategy is simple_byte
  4015  066B  086A               	movf	??__RegistrationMode,w
  4016  066C  3A01               	xorlw	1	; case 1
  4017  066D  1903               	skipnz
  4018  066E  2DCB               	goto	l5627
  4019  066F  3A03               	xorlw	3	; case 2
  4020  0670  1903               	skipnz
  4021  0671  2DF3               	goto	l5635
  4022  0672  3A01               	xorlw	1	; case 3
  4023  0673  1903               	skipnz
  4024  0674  2E10               	goto	l5643
  4025  0675  3A06               	xorlw	6	; case 5
  4026  0676  1903               	skipnz
  4027  0677  2E1E               	goto	l5649
  4028  0678  2E79               	goto	l729
  4029  0679                     l729:
  4030  0679  0008               	return
  4031  067A                     __end_of__RegistrationMode:
  4032                           
  4033                           	psect	text6
  4034  0CDE                     __ptext6:	
  4035 ;; *************** function _atol_de *****************
  4036 ;; Defined at:
  4037 ;;		line 1200 in file "../Projects/src/key_and_Other.c"
  4038 ;; Parameters:    Size  Location     Type
  4039 ;;  m_RegID_x       1    wreg     PTR unsigned char 
  4040 ;;		 -> m_RegID(9), 
  4041 ;; Auto vars:     Size  Location     Type
  4042 ;;  m_RegID_x       1   17[BANK0 ] PTR unsigned char 
  4043 ;;		 -> m_RegID(9), 
  4044 ;;  m_ID            4   18[BANK0 ] unsigned long 
  4045 ;;  i               1   22[BANK0 ] unsigned char 
  4046 ;;  j               1   16[BANK0 ] unsigned char 
  4047 ;; Return value:  Size  Location     Type
  4048 ;;                  4    8[BANK0 ] unsigned long 
  4049 ;; Registers used:
  4050 ;;		wreg, fsr1l, fsr1h, status,2, status,0, pclath, cstack
  4051 ;; Tracked objects:
  4052 ;;		On entry : 0/0
  4053 ;;		On exit  : 0/0
  4054 ;;		Unchanged: 0/0
  4055 ;; Data sizes:     COMMON   BANK0   BANK1   BANK2   BANK3   BANK4   BANK5   BANK6   BANK7   BANK8   BANK9  BANK10  BANK1
      +1  BANK12
  4056 ;;      Params:         0       4       0       0       0       0       0       0       0       0       0       0       
      +0       0
  4057 ;;      Locals:         0       7       0       0       0       0       0       0       0       0       0       0       
      +0       0
  4058 ;;      Temps:          0       4       0       0       0       0       0       0       0       0       0       0       
      +0       0
  4059 ;;      Totals:         0      15       0       0       0       0       0       0       0       0       0       0       
      +0       0
  4060 ;;Total ram usage:       15 bytes
  4061 ;; Hardware stack levels used:    1
  4062 ;; Hardware stack levels required when called:    3
  4063 ;; This function calls:
  4064 ;;		___lmul
  4065 ;; This function is called by:
  4066 ;;		__RegistrationMode
  4067 ;; This function uses a non-reentrant model
  4068 ;;
  4069                           
  4070                           
  4071                           ;psect for function _atol_de
  4072  0CDE                     _atol_de:
  4073                           
  4074                           ;incstack = 0
  4075                           ; Regs used in _atol_de: [wreg+fsr1l+fsr1h+status,2+status,0+pclath+cstack]
  4076                           ;atol_de@m_RegID_x stored from wreg
  4077  0CDE  0020               	movlb	0	; select bank0
  4078  0CDF  00E4               	movwf	atol_de@m_RegID_x
  4079  0CE0                     l5453:
  4080                           
  4081                           ;../Projects/src/key_and_Other.c: 1200: unsigned long atol_de (unsigned char* m_RegID_x)
      +                          ;../Projects/src/key_and_Other.c: 1201: {;../Projects/src/key_and_Other.c: 1202:   unsig
      +                          ned char i,j;;../Projects/src/key_and_Other.c: 1203:   unsigned long m_ID=0;
  4082  0CE0  3000               	movlw	0
  4083  0CE1  00E8               	movwf	atol_de@m_ID+3
  4084  0CE2  3000               	movlw	0
  4085  0CE3  00E7               	movwf	atol_de@m_ID+2
  4086  0CE4  3000               	movlw	0
  4087  0CE5  00E6               	movwf	atol_de@m_ID+1
  4088  0CE6  3000               	movlw	0
  4089  0CE7  00E5               	movwf	atol_de@m_ID
  4090  0CE8                     l5455:
  4091                           
  4092                           ;../Projects/src/key_and_Other.c: 1205:   for(i=0;i<8;i++){
  4093  0CE8  01E9               	clrf	atol_de@i
  4094  0CE9                     l5461:
  4095                           
  4096                           ;../Projects/src/key_and_Other.c: 1206:     j=m_RegID_x[i]-'0';
  4097  0CE9  0869               	movf	atol_de@i,w
  4098  0CEA  0764               	addwf	atol_de@m_RegID_x,w
  4099  0CEB  00DF               	movwf	??_atol_de
  4100  0CEC  085F               	movf	??_atol_de,w
  4101  0CED  0086               	movwf	6
  4102  0CEE  0187               	clrf	7
  4103  0CEF  0801               	movf	1,w
  4104  0CF0  3ED0               	addlw	208
  4105  0CF1  00E0               	movwf	??_atol_de+1
  4106  0CF2  0860               	movf	??_atol_de+1,w
  4107  0CF3  00E3               	movwf	atol_de@j
  4108  0CF4                     l5463:
  4109                           
  4110                           ;../Projects/src/key_and_Other.c: 1207:     m_ID=m_ID*10+j;
  4111  0CF4  0863               	movf	atol_de@j,w
  4112  0CF5  00DF               	movwf	??_atol_de
  4113  0CF6  01E0               	clrf	??_atol_de+1
  4114  0CF7  01E1               	clrf	??_atol_de+2
  4115  0CF8  01E2               	clrf	??_atol_de+3
  4116  0CF9  0868               	movf	atol_de@m_ID+3,w
  4117  0CFA  00D6               	movwf	___lmul@multiplier+3
  4118  0CFB  0867               	movf	atol_de@m_ID+2,w
  4119  0CFC  00D5               	movwf	___lmul@multiplier+2
  4120  0CFD  0866               	movf	atol_de@m_ID+1,w
  4121  0CFE  00D4               	movwf	___lmul@multiplier+1
  4122  0CFF  0865               	movf	atol_de@m_ID,w
  4123  0D00  00D3               	movwf	___lmul@multiplier
  4124  0D01  3000               	movlw	0
  4125  0D02  00DA               	movwf	___lmul@multiplicand+3
  4126  0D03  3000               	movlw	0
  4127  0D04  00D9               	movwf	___lmul@multiplicand+2
  4128  0D05  3000               	movlw	0
  4129  0D06  00D8               	movwf	___lmul@multiplicand+1
  4130  0D07  300A               	movlw	10
  4131  0D08  00D7               	movwf	___lmul@multiplicand
  4132  0D09  318B  23F6  318C   	fcall	___lmul
  4133  0D0C  0020               	movlb	0	; select bank0
  4134  0D0D  0853               	movf	?___lmul,w
  4135  0D0E  07DF               	addwf	??_atol_de,f
  4136  0D0F  0854               	movf	?___lmul+1,w
  4137  0D10  3DE0               	addwfc	??_atol_de+1,f
  4138  0D11  0855               	movf	?___lmul+2,w
  4139  0D12  3DE1               	addwfc	??_atol_de+2,f
  4140  0D13  0856               	movf	?___lmul+3,w
  4141  0D14  3DE2               	addwfc	??_atol_de+3,f
  4142  0D15  0862               	movf	??_atol_de+3,w
  4143  0D16  00E8               	movwf	atol_de@m_ID+3
  4144  0D17  0861               	movf	??_atol_de+2,w
  4145  0D18  00E7               	movwf	atol_de@m_ID+2
  4146  0D19  0860               	movf	??_atol_de+1,w
  4147  0D1A  00E6               	movwf	atol_de@m_ID+1
  4148  0D1B  085F               	movf	??_atol_de,w
  4149  0D1C  00E5               	movwf	atol_de@m_ID
  4150  0D1D                     l5465:
  4151                           
  4152                           ;../Projects/src/key_and_Other.c: 1208:   }
  4153  0D1D  3001               	movlw	1
  4154  0D1E  00DF               	movwf	??_atol_de
  4155  0D1F  085F               	movf	??_atol_de,w
  4156  0D20  07E9               	addwf	atol_de@i,f
  4157  0D21                     l5467:
  4158  0D21  3008               	movlw	8
  4159  0D22  0269               	subwf	atol_de@i,w
  4160  0D23  1C03               	skipc
  4161  0D24  2D26               	goto	u3401
  4162  0D25  2D27               	goto	u3400
  4163  0D26                     u3401:
  4164  0D26  2CE9               	goto	l5461
  4165  0D27                     u3400:
  4166  0D27                     l5469:
  4167                           
  4168                           ;../Projects/src/key_and_Other.c: 1209:   return(m_ID);
  4169  0D27  0868               	movf	atol_de@m_ID+3,w
  4170  0D28  00DE               	movwf	?_atol_de+3
  4171  0D29  0867               	movf	atol_de@m_ID+2,w
  4172  0D2A  00DD               	movwf	?_atol_de+2
  4173  0D2B  0866               	movf	atol_de@m_ID+1,w
  4174  0D2C  00DC               	movwf	?_atol_de+1
  4175  0D2D  0865               	movf	atol_de@m_ID,w
  4176  0D2E  00DB               	movwf	?_atol_de
  4177  0D2F                     l750:
  4178  0D2F  0008               	return
  4179  0D30                     __end_of_atol_de:
  4180                           
  4181                           	psect	text7
  4182  0BF6                     __ptext7:	
  4183 ;; *************** function ___lmul *****************
  4184 ;; Defined at:
  4185 ;;		line 15 in file "C:\Program Files\Microchip\xc8\v2.20\pic\sources\c99\common\Umul32.c"
  4186 ;; Parameters:    Size  Location     Type
  4187 ;;  multiplier      4    0[BANK0 ] unsigned long 
  4188 ;;  multiplicand    4    4[BANK0 ] unsigned long 
  4189 ;; Auto vars:     Size  Location     Type
  4190 ;;  product         4    3[COMMON] unsigned long 
  4191 ;; Return value:  Size  Location     Type
  4192 ;;                  4    0[BANK0 ] unsigned long 
  4193 ;; Registers used:
  4194 ;;		wreg, status,2, status,0
  4195 ;; Tracked objects:
  4196 ;;		On entry : 0/0
  4197 ;;		On exit  : 0/0
  4198 ;;		Unchanged: 0/0
  4199 ;; Data sizes:     COMMON   BANK0   BANK1   BANK2   BANK3   BANK4   BANK5   BANK6   BANK7   BANK8   BANK9  BANK10  BANK1
      +1  BANK12
  4200 ;;      Params:         0       8       0       0       0       0       0       0       0       0       0       0       
      +0       0
  4201 ;;      Locals:         4       0       0       0       0       0       0       0       0       0       0       0       
      +0       0
  4202 ;;      Temps:          0       0       0       0       0       0       0       0       0       0       0       0       
      +0       0
  4203 ;;      Totals:         4       8       0       0       0       0       0       0       0       0       0       0       
      +0       0
  4204 ;;Total ram usage:       12 bytes
  4205 ;; Hardware stack levels used:    1
  4206 ;; Hardware stack levels required when called:    2
  4207 ;; This function calls:
  4208 ;;		Nothing
  4209 ;; This function is called by:
  4210 ;;		_atol_de
  4211 ;; This function uses a non-reentrant model
  4212 ;;
  4213                           
  4214                           
  4215                           ;psect for function ___lmul
  4216  0BF6                     ___lmul:
  4217  0BF6                     l5177:	
  4218                           ;incstack = 0
  4219                           ; Regs used in ___lmul: [wreg+status,2+status,0]
  4220                           
  4221  0BF6  3000               	movlw	0
  4222  0BF7  00F6               	movwf	___lmul@product+3
  4223  0BF8  3000               	movlw	0
  4224  0BF9  00F5               	movwf	___lmul@product+2
  4225  0BFA  3000               	movlw	0
  4226  0BFB  00F4               	movwf	___lmul@product+1
  4227  0BFC  3000               	movlw	0
  4228  0BFD  00F3               	movwf	___lmul@product
  4229  0BFE                     l5179:
  4230  0BFE  0020               	movlb	0	; select bank0
  4231  0BFF  1C53               	btfss	___lmul@multiplier,0
  4232  0C00  2C02               	goto	u3001
  4233  0C01  2C03               	goto	u3000
  4234  0C02                     u3001:
  4235  0C02  2C0B               	goto	l5183
  4236  0C03                     u3000:
  4237  0C03                     l5181:
  4238  0C03  0857               	movf	___lmul@multiplicand,w
  4239  0C04  07F3               	addwf	___lmul@product,f
  4240  0C05  0858               	movf	___lmul@multiplicand+1,w
  4241  0C06  3DF4               	addwfc	___lmul@product+1,f
  4242  0C07  0859               	movf	___lmul@multiplicand+2,w
  4243  0C08  3DF5               	addwfc	___lmul@product+2,f
  4244  0C09  085A               	movf	___lmul@multiplicand+3,w
  4245  0C0A  3DF6               	addwfc	___lmul@product+3,f
  4246  0C0B                     l5183:
  4247  0C0B  3001               	movlw	1
  4248  0C0C                     u3015:
  4249  0C0C  35D7               	lslf	___lmul@multiplicand,f
  4250  0C0D  0DD8               	rlf	___lmul@multiplicand+1,f
  4251  0C0E  0DD9               	rlf	___lmul@multiplicand+2,f
  4252  0C0F  0DDA               	rlf	___lmul@multiplicand+3,f
  4253  0C10  0B89               	decfsz	9,f
  4254  0C11  2C0C               	goto	u3015
  4255  0C12                     l5185:
  4256  0C12  3001               	movlw	1
  4257  0C13                     u3025:
  4258  0C13  36D6               	lsrf	___lmul@multiplier+3,f
  4259  0C14  0CD5               	rrf	___lmul@multiplier+2,f
  4260  0C15  0CD4               	rrf	___lmul@multiplier+1,f
  4261  0C16  0CD3               	rrf	___lmul@multiplier,f
  4262  0C17  0B89               	decfsz	9,f
  4263  0C18  2C13               	goto	u3025
  4264  0C19  0856               	movf	___lmul@multiplier+3,w
  4265  0C1A  0455               	iorwf	___lmul@multiplier+2,w
  4266  0C1B  0454               	iorwf	___lmul@multiplier+1,w
  4267  0C1C  0453               	iorwf	___lmul@multiplier,w
  4268  0C1D  1D03               	skipz
  4269  0C1E  2C20               	goto	u3031
  4270  0C1F  2C21               	goto	u3030
  4271  0C20                     u3031:
  4272  0C20  2BFE               	goto	l5179
  4273  0C21                     u3030:
  4274  0C21                     l5187:
  4275  0C21  0876               	movf	___lmul@product+3,w
  4276  0C22  00D6               	movwf	?___lmul+3
  4277  0C23  0875               	movf	___lmul@product+2,w
  4278  0C24  00D5               	movwf	?___lmul+2
  4279  0C25  0874               	movf	___lmul@product+1,w
  4280  0C26  00D4               	movwf	?___lmul+1
  4281  0C27  0873               	movf	___lmul@product,w
  4282  0C28  00D3               	movwf	?___lmul
  4283  0C29                     l1231:
  4284  0C29  0008               	return
  4285  0C2A                     __end_of___lmul:
  4286                           
  4287                           	psect	text8
  4288  01E7                     __ptext8:	
  4289 ;; *************** function __KeyInTx *****************
  4290 ;; Defined at:
  4291 ;;		line 151 in file "../Projects/src/key_and_Other.c"
  4292 ;; Parameters:    Size  Location     Type
  4293 ;;		None
  4294 ;; Auto vars:     Size  Location     Type
  4295 ;;  i               1   27[BANK0 ] unsigned char 
  4296 ;; Return value:  Size  Location     Type
  4297 ;;                  1    wreg      void 
  4298 ;; Registers used:
  4299 ;;		wreg, fsr0l, fsr0h, fsr1l, fsr1h, status,2, status,0, pclath, cstack
  4300 ;; Tracked objects:
  4301 ;;		On entry : 0/0
  4302 ;;		On exit  : 0/0
  4303 ;;		Unchanged: 0/0
  4304 ;; Data sizes:     COMMON   BANK0   BANK1   BANK2   BANK3   BANK4   BANK5   BANK6   BANK7   BANK8   BANK9  BANK10  BANK1
      +1  BANK12
  4305 ;;      Params:         0       0       0       0       0       0       0       0       0       0       0       0       
      +0       0
  4306 ;;      Locals:         0       1       0       0       0       0       0       0       0       0       0       0       
      +0       0
  4307 ;;      Temps:          0       2       0       0       0       0       0       0       0       0       0       0       
      +0       0
  4308 ;;      Totals:         0       3       0       0       0       0       0       0       0       0       0       0       
      +0       0
  4309 ;;Total ram usage:        3 bytes
  4310 ;; Hardware stack levels used:    1
  4311 ;; Hardware stack levels required when called:    8
  4312 ;; This function calls:
  4313 ;;		__ClearSpecialMultiKeyState
  4314 ;;		__DupliFuncClear
  4315 ;;		__FuncAutoTxStart
  4316 ;;		__FuncAutoTxStop
  4317 ;;		__FuncCloseReg
  4318 ;;		__FuncNoPush
  4319 ;;		__FuncOpenReg
  4320 ;;		__FuncOpenStop
  4321 ;;		__FuncReg
  4322 ;;		__FuncStop
  4323 ;;		__FuncStopReg
  4324 ;;		__FuncVentReg
  4325 ;;		__SetKeyChatterCount
  4326 ;;		__SwIn
  4327 ;;		_dd_set_ADF7021_Power_on_Init
  4328 ;; This function is called by:
  4329 ;;		_key_check
  4330 ;; This function uses a non-reentrant model
  4331 ;;
  4332                           
  4333                           
  4334                           ;psect for function __KeyInTx
  4335  01E7                     __KeyInTx:
  4336  01E7                     l5473:	
  4337                           ;incstack = 0
  4338                           ; Regs used in __KeyInTx: [wreg-fsr1h+status,2+status,0+pclath+cstack]
  4339                           
  4340                           
  4341                           ;../Projects/src/key_and_Other.c: 153:  unsigned char i ;;../Projects/src/key_and_Other.
      +                          c: 155:  m_KindOfKey = 0 ;
  4342  01E7  0020               	movlb	0	; select bank0
  4343  01E8  01C4               	clrf	_m_KindOfKey
  4344  01E9                     l5475:
  4345                           
  4346                           ;../Projects/src/key_and_Other.c: 157:  m_KeyNew = 0xFF ;
  4347  01E9  30FF               	movlw	255
  4348  01EA  00EC               	movwf	??__KeyInTx
  4349  01EB  086C               	movf	??__KeyInTx,w
  4350  01EC  00C6               	movwf	_m_KeyNew
  4351  01ED                     l5477:
  4352                           
  4353                           ;../Projects/src/key_and_Other.c: 158:         if(BAT_out==2)return;
  4354  01ED  3002               	movlw	2
  4355  01EE  064B               	xorwf	_BAT_out,w
  4356  01EF  1D03               	btfss	3,2
  4357  01F0  29F2               	goto	u3411
  4358  01F1  29F3               	goto	u3410
  4359  01F2                     u3411:
  4360  01F2  29F4               	goto	l5481
  4361  01F3                     u3410:
  4362  01F3  2B82               	goto	l490
  4363  01F4                     l5481:
  4364                           
  4365                           ;../Projects/src/key_and_Other.c: 161:  _SwIn( RB4 ) ;
  4366  01F4  3000               	movlw	0
  4367  01F5  1A0D               	btfsc	13,4	;volatile
  4368  01F6  3001               	movlw	1
  4369  01F7  318A  2212  3181   	fcall	__SwIn
  4370                           
  4371                           ;../Projects/src/key_and_Other.c: 163:  _SwIn( RC4 ) ;
  4372  01FA  3000               	movlw	0
  4373  01FB  0020               	movlb	0	; select bank0
  4374  01FC  1A0E               	btfsc	14,4	;volatile
  4375  01FD  3001               	movlw	1
  4376  01FE  318A  2212  3181   	fcall	__SwIn
  4377                           
  4378                           ;../Projects/src/key_and_Other.c: 165:  _SwIn( RA4 ) ;
  4379  0201  3000               	movlw	0
  4380  0202  0020               	movlb	0	; select bank0
  4381  0203  1A0C               	btfsc	12,4	;volatile
  4382  0204  3001               	movlw	1
  4383  0205  318A  2212  3181   	fcall	__SwIn
  4384                           
  4385                           ;../Projects/src/key_and_Other.c: 167:  _SwIn( RA3 ) ;
  4386  0208  3000               	movlw	0
  4387  0209  0020               	movlb	0	; select bank0
  4388  020A  198C               	btfsc	12,3	;volatile
  4389  020B  3001               	movlw	1
  4390  020C  318A  2212  3181   	fcall	__SwIn
  4391                           
  4392                           ;../Projects/src/key_and_Other.c: 170:  _SwIn( RC5 ) ;
  4393  020F  3000               	movlw	0
  4394  0210  0020               	movlb	0	; select bank0
  4395  0211  1A8E               	btfsc	14,5	;volatile
  4396  0212  3001               	movlw	1
  4397  0213  318A  2212  3181   	fcall	__SwIn
  4398                           
  4399                           ;../Projects/src/key_and_Other.c: 172:  _SwIn( 1 ) ;
  4400  0216  3001               	movlw	1
  4401  0217  318A  2212  3181   	fcall	__SwIn
  4402                           
  4403                           ;../Projects/src/key_and_Other.c: 174:  _SwIn( 1 ) ;
  4404  021A  3001               	movlw	1
  4405  021B  318A  2212  3181   	fcall	__SwIn
  4406  021E                     l5483:
  4407                           
  4408                           ;../Projects/src/key_and_Other.c: 177:  if ( m_KeyNew != m_KeyOld )
  4409  021E  0020               	movlb	0	; select bank0
  4410  021F  0846               	movf	_m_KeyNew,w
  4411  0220  0645               	xorwf	_m_KeyOld,w
  4412  0221  1903               	skipnz
  4413  0222  2A24               	goto	u3421
  4414  0223  2A25               	goto	u3420
  4415  0224                     u3421:
  4416  0224  2A39               	goto	l5495
  4417  0225                     u3420:
  4418  0225                     l5485:
  4419                           
  4420                           ;../Projects/src/key_and_Other.c: 178:  {;../Projects/src/key_and_Other.c: 179:   m_KeyO
      +                          ld = m_KeyNew ;
  4421  0225  0846               	movf	_m_KeyNew,w
  4422  0226  00EC               	movwf	??__KeyInTx
  4423  0227  086C               	movf	??__KeyInTx,w
  4424  0228  00C5               	movwf	_m_KeyOld
  4425  0229                     l5487:
  4426                           
  4427                           ;../Projects/src/key_and_Other.c: 180:   _SetKeyChatterCount() ;
  4428  0229  3189  21F3  3181   	fcall	__SetKeyChatterCount
  4429                           
  4430                           ;../Projects/src/key_and_Other.c: 181:   _ClearSpecialMultiKeyState() ;
  4431  022C  3189  21D6  3181   	fcall	__ClearSpecialMultiKeyState
  4432  022F                     l5489:
  4433                           
  4434                           ;../Projects/src/key_and_Other.c: 182:                 TIME_Once_twice_switch=5000;
  4435  022F  3088               	movlw	136
  4436  0230  0020               	movlb	0	; select bank0
  4437  0231  00A2               	movwf	_TIME_Once_twice_switch
  4438  0232  3013               	movlw	19
  4439  0233  00A3               	movwf	_TIME_Once_twice_switch+1
  4440  0234                     l5491:
  4441                           
  4442                           ;../Projects/src/key_and_Other.c: 183:                 TIME_10s=10100;
  4443  0234  3074               	movlw	116
  4444  0235  00A0               	movwf	_TIME_10s
  4445  0236  3027               	movlw	39
  4446  0237  00A1               	movwf	_TIME_10s+1
  4447  0238  2B82               	goto	l490
  4448  0239                     l5495:
  4449                           
  4450                           ;../Projects/src/key_and_Other.c: 187:  if ( --m_ChatterCount )
  4451  0239  3001               	movlw	1
  4452  023A  0021               	movlb	1	; select bank1
  4453  023B  02C6               	subwf	_m_ChatterCount^(0+128),f
  4454  023C  3000               	movlw	0
  4455  023D  3BC7               	subwfb	(_m_ChatterCount+1)^(0+128),f
  4456  023E  0846               	movf	_m_ChatterCount^(0+128),w
  4457  023F  0447               	iorwf	(_m_ChatterCount+1)^(0+128),w
  4458  0240  1903               	btfsc	3,2
  4459  0241  2A43               	goto	u3431
  4460  0242  2A44               	goto	u3430
  4461  0243                     u3431:
  4462  0243  2A45               	goto	l5499
  4463  0244                     u3430:
  4464  0244  2B82               	goto	l490
  4465  0245                     l5499:
  4466                           
  4467                           ;../Projects/src/key_and_Other.c: 191:  m_ChatterCount = 1 ;
  4468  0245  3001               	movlw	1
  4469  0246  00C6               	movwf	_m_ChatterCount^(0+128)
  4470  0247  3000               	movlw	0
  4471  0248  00C7               	movwf	(_m_ChatterCount^(0+128)+1)
  4472  0249                     l5501:
  4473                           
  4474                           ;../Projects/src/key_and_Other.c: 194:  if ( m_KeyNew != 0xFF )
  4475  0249  0020               	movlb	0	; select bank0
  4476  024A  0A46               	incf	_m_KeyNew,w
  4477  024B  1903               	btfsc	3,2
  4478  024C  2A4E               	goto	u3441
  4479  024D  2A4F               	goto	u3440
  4480  024E                     u3441:
  4481  024E  2AB0               	goto	l5531
  4482  024F                     u3440:
  4483  024F                     l5503:
  4484                           
  4485                           ;../Projects/src/key_and_Other.c: 195:  {;../Projects/src/key_and_Other.c: 201:         
      +                             if(TIME_Once_twice_switch)--TIME_Once_twice_switch;
  4486  024F  0822               	movf	_TIME_Once_twice_switch,w
  4487  0250  0423               	iorwf	_TIME_Once_twice_switch+1,w
  4488  0251  1903               	btfsc	3,2
  4489  0252  2A54               	goto	u3451
  4490  0253  2A55               	goto	u3450
  4491  0254                     u3451:
  4492  0254  2A59               	goto	l5507
  4493  0255                     u3450:
  4494  0255                     l5505:
  4495  0255  3001               	movlw	1
  4496  0256  02A2               	subwf	_TIME_Once_twice_switch,f
  4497  0257  3000               	movlw	0
  4498  0258  3BA3               	subwfb	_TIME_Once_twice_switch+1,f
  4499  0259                     l5507:
  4500                           
  4501                           ;../Projects/src/key_and_Other.c: 202:            if(TIME_10s)--TIME_10s;
  4502  0259  0820               	movf	_TIME_10s,w
  4503  025A  0421               	iorwf	_TIME_10s+1,w
  4504  025B  1903               	btfsc	3,2
  4505  025C  2A5E               	goto	u3461
  4506  025D  2A5F               	goto	u3460
  4507  025E                     u3461:
  4508  025E  2A63               	goto	l5511
  4509  025F                     u3460:
  4510  025F                     l5509:
  4511  025F  3001               	movlw	1
  4512  0260  02A0               	subwf	_TIME_10s,f
  4513  0261  3000               	movlw	0
  4514  0262  3BA1               	subwfb	_TIME_10s+1,f
  4515  0263                     l5511:
  4516                           
  4517                           ;../Projects/src/key_and_Other.c: 203:     dd_set_ADF7021_Power_on_Init();
  4518  0263  318B  2392  3181   	fcall	_dd_set_ADF7021_Power_on_Init
  4519  0266                     l5513:
  4520                           
  4521                           ;../Projects/src/key_and_Other.c: 205:            if((BAT_out==1)||(RAM_SW.BIT.Bit6)||(T
      +                          IME_10s==0)){
  4522  0266  0020               	movlb	0	; select bank0
  4523  0267  034B               	decf	_BAT_out,w
  4524  0268  1903               	btfsc	3,2
  4525  0269  2A6B               	goto	u3471
  4526  026A  2A6C               	goto	u3470
  4527  026B                     u3471:
  4528  026B  2A76               	goto	l498
  4529  026C                     u3470:
  4530  026C                     l5515:
  4531  026C  1B42               	btfsc	_RAM_SW,6	;volatile
  4532  026D  2A6F               	goto	u3481
  4533  026E  2A70               	goto	u3480
  4534  026F                     u3481:
  4535  026F  2A76               	goto	l498
  4536  0270                     u3480:
  4537  0270                     l5517:
  4538  0270  0820               	movf	_TIME_10s,w
  4539  0271  0421               	iorwf	_TIME_10s+1,w
  4540  0272  1D03               	btfss	3,2
  4541  0273  2A75               	goto	u3491
  4542  0274  2A76               	goto	u3490
  4543  0275                     u3491:
  4544  0275  2AB0               	goto	l5531
  4545  0276                     u3490:
  4546  0276                     l498:
  4547                           
  4548                           ;../Projects/src/key_and_Other.c: 206:        if(RAM_SW.BIT.Bit6==0){
  4549  0276  1B42               	btfsc	_RAM_SW,6	;volatile
  4550  0277  2A79               	goto	u3501
  4551  0278  2A7A               	goto	u3500
  4552  0279                     u3501:
  4553  0279  2AA5               	goto	l5527
  4554  027A                     u3500:
  4555  027A                     l5519:
  4556                           
  4557                           ;../Projects/src/key_and_Other.c: 207:           RAM_SW.BIT.Bit6=1;
  4558  027A  1742               	bsf	_RAM_SW,6	;volatile
  4559  027B                     l5521:
  4560                           
  4561                           ;../Projects/src/key_and_Other.c: 208:    if(TIME_10s==0){
  4562  027B  0820               	movf	_TIME_10s,w
  4563  027C  0421               	iorwf	_TIME_10s+1,w
  4564  027D  1D03               	btfss	3,2
  4565  027E  2A80               	goto	u3511
  4566  027F  2A81               	goto	u3510
  4567  0280                     u3511:
  4568  0280  2A8C               	goto	l5525
  4569  0281                     u3510:
  4570  0281                     l5523:
  4571                           
  4572                           ;../Projects/src/key_and_Other.c: 209:                            BASE_TIME_BEEP_on=103;
  4573  0281  3067               	movlw	103
  4574  0282  0021               	movlb	1	; select bank1
  4575  0283  00C4               	movwf	_BASE_TIME_BEEP_on^(0+128)
  4576  0284  3000               	movlw	0
  4577  0285  00C5               	movwf	(_BASE_TIME_BEEP_on^(0+128)+1)
  4578                           
  4579                           ;../Projects/src/key_and_Other.c: 210:                            BASE_TIME_BEEP_off=103
      +                          ;
  4580  0286  3067               	movlw	103
  4581  0287  0020               	movlb	0	; select bank0
  4582  0288  00EC               	movwf	??__KeyInTx
  4583  0289  086C               	movf	??__KeyInTx,w
  4584  028A  00BF               	movwf	_BASE_TIME_BEEP_off
  4585                           
  4586                           ;../Projects/src/key_and_Other.c: 211:                         }
  4587  028B  2A96               	goto	l501
  4588  028C                     l5525:
  4589                           
  4590                           ;../Projects/src/key_and_Other.c: 213:                            BASE_TIME_BEEP_on=40;
  4591  028C  3028               	movlw	40
  4592  028D  0021               	movlb	1	; select bank1
  4593  028E  00C4               	movwf	_BASE_TIME_BEEP_on^(0+128)
  4594  028F  3000               	movlw	0
  4595  0290  00C5               	movwf	(_BASE_TIME_BEEP_on^(0+128)+1)
  4596                           
  4597                           ;../Projects/src/key_and_Other.c: 214:                            BASE_TIME_BEEP_off=60;
  4598  0291  303C               	movlw	60
  4599  0292  0020               	movlb	0	; select bank0
  4600  0293  00EC               	movwf	??__KeyInTx
  4601  0294  086C               	movf	??__KeyInTx,w
  4602  0295  00BF               	movwf	_BASE_TIME_BEEP_off
  4603  0296                     l501:	
  4604                           ;../Projects/src/key_and_Other.c: 215:                         }
  4605                           
  4606                           
  4607                           ;../Projects/src/key_and_Other.c: 216:                         TIME_BEEP_on=BASE_TIME_BE
      +                          EP_on;
  4608  0296  0021               	movlb	1	; select bank1
  4609  0297  0845               	movf	(_BASE_TIME_BEEP_on+1)^(0+128),w
  4610  0298  00C3               	movwf	(_TIME_BEEP_on+1)^(0+128)
  4611  0299  0844               	movf	_BASE_TIME_BEEP_on^(0+128),w
  4612  029A  00C2               	movwf	_TIME_BEEP_on^(0+128)
  4613                           
  4614                           ;../Projects/src/key_and_Other.c: 217:                         TIME_BEEP_off=BASE_TIME_B
      +                          EEP_off;
  4615  029B  0020               	movlb	0	; select bank0
  4616  029C  083F               	movf	_BASE_TIME_BEEP_off,w
  4617  029D  00EC               	movwf	??__KeyInTx
  4618  029E  086C               	movf	??__KeyInTx,w
  4619  029F  00BE               	movwf	_TIME_BEEP_off
  4620                           
  4621                           ;../Projects/src/key_and_Other.c: 218:                         TIME_BEEP_freq=2;
  4622  02A0  3002               	movlw	2
  4623  02A1  00EC               	movwf	??__KeyInTx
  4624  02A2  086C               	movf	??__KeyInTx,w
  4625  02A3  00BD               	movwf	_TIME_BEEP_freq
  4626                           
  4627                           ;../Projects/src/key_and_Other.c: 219:        }
  4628  02A4  2AB0               	goto	l5531
  4629  02A5                     l5527:
  4630  02A5  3002               	movlw	2
  4631  02A6  023D               	subwf	_TIME_BEEP_freq,w
  4632  02A7  1803               	skipnc
  4633  02A8  2AAA               	goto	u3521
  4634  02A9  2AAB               	goto	u3520
  4635  02AA                     u3521:
  4636  02AA  2AB0               	goto	l496
  4637  02AB                     u3520:
  4638  02AB                     l5529:
  4639  02AB  3002               	movlw	2
  4640  02AC  00EC               	movwf	??__KeyInTx
  4641  02AD  086C               	movf	??__KeyInTx,w
  4642  02AE  00BD               	movwf	_TIME_BEEP_freq
  4643  02AF  2AB0               	goto	l5531
  4644  02B0                     l496:	
  4645                           ;../Projects/src/key_and_Other.c: 221:      }
  4646                           
  4647  02B0                     l5531:
  4648                           
  4649                           ;../Projects/src/key_and_Other.c: 225:  for ( i=0; i<17;i++)
  4650  02B0  01EE               	clrf	__KeyInTx@i
  4651  02B1                     l5537:
  4652                           
  4653                           ;../Projects/src/key_and_Other.c: 226:  {;../Projects/src/key_and_Other.c: 227:   if ( m
      +                          _KeyNew == ct_KeyDataTable[i] )
  4654  02B1  086E               	movf	__KeyInTx@i,w
  4655  02B2  3E00               	addlw	low (_ct_KeyDataTable| (0+32768))
  4656  02B3  0084               	movwf	4
  4657  02B4  3090               	movlw	high (_ct_KeyDataTable| (0+32768))
  4658  02B5  1803               	skipnc
  4659  02B6  3E01               	addlw	1
  4660  02B7  0085               	movwf	5
  4661  02B8  0800               	movf	0,w	;code access
  4662  02B9  0646               	xorwf	_m_KeyNew,w
  4663  02BA  1D03               	skipz
  4664  02BB  2ABD               	goto	u3531
  4665  02BC  2ABE               	goto	u3530
  4666  02BD                     u3531:
  4667  02BD  2AC3               	goto	l5541
  4668  02BE                     u3530:
  4669  02BE                     l5539:
  4670                           
  4671                           ;../Projects/src/key_and_Other.c: 228:   {;../Projects/src/key_and_Other.c: 229:    m_Ke
      +                          yNo = i ;
  4672  02BE  086E               	movf	__KeyInTx@i,w
  4673  02BF  00EC               	movwf	??__KeyInTx
  4674  02C0  086C               	movf	??__KeyInTx,w
  4675  02C1  00BC               	movwf	_m_KeyNo
  4676                           
  4677                           ;../Projects/src/key_and_Other.c: 230:    break ;
  4678  02C2  2ACD               	goto	l5545
  4679  02C3                     l5541:
  4680                           
  4681                           ;../Projects/src/key_and_Other.c: 232:  }
  4682  02C3  3001               	movlw	1
  4683  02C4  00EC               	movwf	??__KeyInTx
  4684  02C5  086C               	movf	??__KeyInTx,w
  4685  02C6  07EE               	addwf	__KeyInTx@i,f
  4686  02C7                     l5543:
  4687  02C7  3011               	movlw	17
  4688  02C8  026E               	subwf	__KeyInTx@i,w
  4689  02C9  1C03               	skipc
  4690  02CA  2ACC               	goto	u3541
  4691  02CB  2ACD               	goto	u3540
  4692  02CC                     u3541:
  4693  02CC  2AB1               	goto	l5537
  4694  02CD                     u3540:
  4695  02CD                     l5545:
  4696                           
  4697                           ;../Projects/src/key_and_Other.c: 233:         key_Value=i;
  4698  02CD  086E               	movf	__KeyInTx@i,w
  4699  02CE  00EC               	movwf	??__KeyInTx
  4700  02CF  01ED               	clrf	??__KeyInTx+1
  4701  02D0  086C               	movf	??__KeyInTx,w
  4702  02D1  0021               	movlb	1	; select bank1
  4703  02D2  00C0               	movwf	_key_Value^(0+128)
  4704  02D3  0020               	movlb	0	; select bank0
  4705  02D4  086D               	movf	??__KeyInTx+1,w
  4706  02D5  0021               	movlb	1	; select bank1
  4707  02D6  00C1               	movwf	(_key_Value+1)^(0+128)
  4708  02D7                     l5547:
  4709                           
  4710                           ;../Projects/src/key_and_Other.c: 234:         if(RAM_SW.BIT.Bit5==1)return;
  4711  02D7  0020               	movlb	0	; select bank0
  4712  02D8  1EC2               	btfss	_RAM_SW,5	;volatile
  4713  02D9  2ADB               	goto	u3551
  4714  02DA  2ADC               	goto	u3550
  4715  02DB                     u3551:
  4716  02DB  2ADD               	goto	l5551
  4717  02DC                     u3550:
  4718  02DC  2B82               	goto	l490
  4719  02DD                     l5551:
  4720                           
  4721                           ;../Projects/src/key_and_Other.c: 236:  if ( i == 17)
  4722  02DD  3011               	movlw	17
  4723  02DE  066E               	xorwf	__KeyInTx@i,w
  4724  02DF  1D03               	btfss	3,2
  4725  02E0  2AE2               	goto	u3561
  4726  02E1  2AE3               	goto	u3560
  4727  02E2                     u3561:
  4728  02E2  2AED               	goto	l508
  4729  02E3                     u3560:
  4730  02E3                     l5553:
  4731                           
  4732                           ;../Projects/src/key_and_Other.c: 237:  {;../Projects/src/key_and_Other.c: 238:   RAM_Re
      +                          gSW.BIT.Bit6 = 0 ;
  4733  02E3  1343               	bcf	_RAM_RegSW,6	;volatile
  4734  02E4                     l5555:
  4735                           
  4736                           ;../Projects/src/key_and_Other.c: 239:   _ClearSpecialMultiKeyState() ;
  4737  02E4  3189  21D6  3181   	fcall	__ClearSpecialMultiKeyState
  4738  02E7                     l5557:
  4739                           
  4740                           ;../Projects/src/key_and_Other.c: 240:   RAM_RegSW.BIT.Bit7 = 1 ;
  4741  02E7  0020               	movlb	0	; select bank0
  4742  02E8  17C3               	bsf	_RAM_RegSW,7	;volatile
  4743  02E9                     l5559:
  4744                           
  4745                           ;../Projects/src/key_and_Other.c: 241:   _DupliFuncClear() ;
  4746  02E9  318A  224B  3181   	fcall	__DupliFuncClear
  4747  02EC  2B82               	goto	l490
  4748  02ED                     l508:	
  4749                           ;../Projects/src/key_and_Other.c: 243:  }
  4750                           
  4751                           
  4752                           ;../Projects/src/key_and_Other.c: 245:  if ( RAM_RegSW.BIT.Bit7 )
  4753  02ED  1FC3               	btfss	_RAM_RegSW,7	;volatile
  4754  02EE  2AF0               	goto	u3571
  4755  02EF  2AF1               	goto	u3570
  4756  02F0                     u3571:
  4757  02F0  2B45               	goto	l5599
  4758  02F1                     u3570:
  4759  02F1                     l5563:
  4760                           
  4761                           ;../Projects/src/key_and_Other.c: 246:  {;../Projects/src/key_and_Other.c: 247:   if ( m
      +                          _KeyNew != 0xFF )
  4762  02F1  0A46               	incf	_m_KeyNew,w
  4763  02F2  1903               	btfsc	3,2
  4764  02F3  2AF5               	goto	u3581
  4765  02F4  2AF6               	goto	u3580
  4766  02F5                     u3581:
  4767  02F5  2B45               	goto	l5599
  4768  02F6                     u3580:
  4769  02F6                     l5565:
  4770                           
  4771                           ;../Projects/src/key_and_Other.c: 248:   {;../Projects/src/key_and_Other.c: 249:        
      +                                           if(((i==5)||(i==6)||(i==7)||(i==9)||(i==12))&&(RAM_OP1.BIT.Bit0==0));
  4772  02F6  3005               	movlw	5
  4773  02F7  066E               	xorwf	__KeyInTx@i,w
  4774  02F8  1903               	btfsc	3,2
  4775  02F9  2AFB               	goto	u3591
  4776  02FA  2AFC               	goto	u3590
  4777  02FB                     u3591:
  4778  02FB  2B14               	goto	l513
  4779  02FC                     u3590:
  4780  02FC                     l5567:
  4781  02FC  3006               	movlw	6
  4782  02FD  066E               	xorwf	__KeyInTx@i,w
  4783  02FE  1903               	btfsc	3,2
  4784  02FF  2B01               	goto	u3601
  4785  0300  2B02               	goto	u3600
  4786  0301                     u3601:
  4787  0301  2B14               	goto	l513
  4788  0302                     u3600:
  4789  0302                     l5569:
  4790  0302  3007               	movlw	7
  4791  0303  066E               	xorwf	__KeyInTx@i,w
  4792  0304  1903               	btfsc	3,2
  4793  0305  2B07               	goto	u3611
  4794  0306  2B08               	goto	u3610
  4795  0307                     u3611:
  4796  0307  2B14               	goto	l513
  4797  0308                     u3610:
  4798  0308                     l5571:
  4799  0308  3009               	movlw	9
  4800  0309  066E               	xorwf	__KeyInTx@i,w
  4801  030A  1903               	btfsc	3,2
  4802  030B  2B0D               	goto	u3621
  4803  030C  2B0E               	goto	u3620
  4804  030D                     u3621:
  4805  030D  2B14               	goto	l513
  4806  030E                     u3620:
  4807  030E                     l5573:
  4808  030E  300C               	movlw	12
  4809  030F  066E               	xorwf	__KeyInTx@i,w
  4810  0310  1D03               	btfss	3,2
  4811  0311  2B13               	goto	u3631
  4812  0312  2B14               	goto	u3630
  4813  0313                     u3631:
  4814  0313  2B82               	goto	l490
  4815  0314                     u3630:
  4816  0314                     l513:
  4817  0314  1851               	btfsc	_RAM_OP1,0	;volatile
  4818  0315  2B17               	goto	u3641
  4819  0316  2B18               	goto	u3640
  4820  0317                     u3641:
  4821  0317  2B82               	goto	l490
  4822  0318                     u3640:
  4823  0318  2B45               	goto	l5599
  4824  0319                     l5577:
  4825                           
  4826                           ;../Projects/src/key_and_Other.c: 257:           _FuncReg();
  4827  0319  318D  25DF  3181   	fcall	__FuncReg
  4828                           
  4829                           ;../Projects/src/key_and_Other.c: 258:    break ;
  4830  031C  2B82               	goto	l490
  4831  031D                     l521:	
  4832                           ;../Projects/src/key_and_Other.c: 262:   case 4 :
  4833                           
  4834                           
  4835                           ;../Projects/src/key_and_Other.c: 263:           if(RAM_OP1.BIT.Bit0==0)_FuncStop();
  4836  031D  1851               	btfsc	_RAM_OP1,0	;volatile
  4837  031E  2B20               	goto	u3651
  4838  031F  2B21               	goto	u3650
  4839  0320                     u3651:
  4840  0320  2B82               	goto	l490
  4841  0321                     u3650:
  4842  0321                     l5579:
  4843  0321  3184  2492  3181   	fcall	__FuncStop
  4844  0324  2B82               	goto	l490
  4845  0325                     l526:	
  4846                           ;../Projects/src/key_and_Other.c: 268:   case 9 :
  4847                           
  4848  0325                     l5581:
  4849                           
  4850                           ;../Projects/src/key_and_Other.c: 270:           _FuncOpenStop();
  4851  0325  318A  225E  3181   	fcall	__FuncOpenStop
  4852                           
  4853                           ;../Projects/src/key_and_Other.c: 271:    break ;
  4854  0328  2B82               	goto	l490
  4855  0329                     l5583:
  4856                           
  4857                           ;../Projects/src/key_and_Other.c: 273:           _FuncOpenReg();
  4858  0329  318B  2337  3181   	fcall	__FuncOpenReg
  4859                           
  4860                           ;../Projects/src/key_and_Other.c: 274:    break ;
  4861  032C  2B82               	goto	l490
  4862  032D                     l5585:
  4863                           
  4864                           ;../Projects/src/key_and_Other.c: 276:           _FuncStopReg();
  4865  032D  318A  22DF  3181   	fcall	__FuncStopReg
  4866                           
  4867                           ;../Projects/src/key_and_Other.c: 277:    break ;
  4868  0330  2B82               	goto	l490
  4869  0331                     l5587:
  4870                           
  4871                           ;../Projects/src/key_and_Other.c: 279:           _FuncCloseReg();
  4872  0331  318A  22C2  3181   	fcall	__FuncCloseReg
  4873                           
  4874                           ;../Projects/src/key_and_Other.c: 280:    break ;
  4875  0334  2B82               	goto	l490
  4876  0335                     l5589:
  4877                           
  4878                           ;../Projects/src/key_and_Other.c: 282:           _FuncVentReg();
  4879  0335  318A  22FC  3181   	fcall	__FuncVentReg
  4880                           
  4881                           ;../Projects/src/key_and_Other.c: 283:    break ;
  4882  0338  2B82               	goto	l490
  4883  0339                     l5591:
  4884                           
  4885                           ;../Projects/src/key_and_Other.c: 285:           _FuncAutoTxStart();
  4886  0339  3189  21CC  3181   	fcall	__FuncAutoTxStart
  4887                           
  4888                           ;../Projects/src/key_and_Other.c: 286:    break ;
  4889  033C  2B82               	goto	l490
  4890  033D                     l5593:
  4891                           
  4892                           ;../Projects/src/key_and_Other.c: 288:           _FuncAutoTxStop();
  4893  033D  3180  2002  3181   	fcall	__FuncAutoTxStop
  4894                           
  4895                           ;../Projects/src/key_and_Other.c: 289:    break ;
  4896  0340  2B82               	goto	l490
  4897  0341                     l5595:
  4898                           
  4899                           ;../Projects/src/key_and_Other.c: 291:           _FuncNoPush();
  4900  0341  318A  223B  3181   	fcall	__FuncNoPush
  4901                           
  4902                           ;../Projects/src/key_and_Other.c: 292:    break ;
  4903  0344  2B82               	goto	l490
  4904  0345                     l5599:
  4905  0345  086E               	movf	__KeyInTx@i,w
  4906  0346  00EC               	movwf	??__KeyInTx
  4907  0347  01ED               	clrf	??__KeyInTx+1
  4908                           
  4909                           ; Switch on 2 bytes has been partitioned into a top level switch of size 1, and 1 sub-sw
      +                          itches
  4910                           ; Switch size 1, requested type "simple"
  4911                           ; Number of cases is 1, Range of values is 0 to 0
  4912                           ; switch strategies available:
  4913                           ; Name         Instructions Cycles
  4914                           ; simple_byte            4     3 (average)
  4915                           ; direct_byte            8     6 (fixed)
  4916                           ; jumptable            260     6 (fixed)
  4917                           ;	Chosen strategy is simple_byte
  4918  0348  086D               	movf	??__KeyInTx+1,w
  4919  0349  3A00               	xorlw	0	; case 0
  4920  034A  1903               	skipnz
  4921  034B  2B4D               	goto	l6491
  4922  034C  2B82               	goto	l490
  4923  034D                     l6491:
  4924                           
  4925                           ; Switch size 1, requested type "simple"
  4926                           ; Number of cases is 17, Range of values is 0 to 16
  4927                           ; switch strategies available:
  4928                           ; Name         Instructions Cycles
  4929                           ; direct_byte           40     6 (fixed)
  4930                           ; simple_byte           52    27 (average)
  4931                           ; jumptable            260     6 (fixed)
  4932                           ;	Chosen strategy is simple_byte
  4933  034D  086C               	movf	??__KeyInTx,w
  4934  034E  3A00               	xorlw	0	; case 0
  4935  034F  1903               	skipnz
  4936  0350  2B19               	goto	l5577
  4937  0351  3A01               	xorlw	1	; case 1
  4938  0352  1903               	skipnz
  4939  0353  2B1D               	goto	l521
  4940  0354  3A03               	xorlw	3	; case 2
  4941  0355  1903               	skipnz
  4942  0356  2B1D               	goto	l521
  4943  0357  3A01               	xorlw	1	; case 3
  4944  0358  1903               	skipnz
  4945  0359  2B1D               	goto	l521
  4946  035A  3A07               	xorlw	7	; case 4
  4947  035B  1903               	skipnz
  4948  035C  2B1D               	goto	l521
  4949  035D  3A01               	xorlw	1	; case 5
  4950  035E  1903               	skipnz
  4951  035F  2B25               	goto	l526
  4952  0360  3A03               	xorlw	3	; case 6
  4953  0361  1903               	skipnz
  4954  0362  2B25               	goto	l5581
  4955  0363  3A01               	xorlw	1	; case 7
  4956  0364  1903               	skipnz
  4957  0365  2B25               	goto	l5581
  4958  0366  3A0F               	xorlw	15	; case 8
  4959  0367  1903               	skipnz
  4960  0368  2B29               	goto	l5583
  4961  0369  3A01               	xorlw	1	; case 9
  4962  036A  1903               	skipnz
  4963  036B  2B25               	goto	l5581
  4964  036C  3A03               	xorlw	3	; case 10
  4965  036D  1903               	skipnz
  4966  036E  2B2D               	goto	l5585
  4967  036F  3A01               	xorlw	1	; case 11
  4968  0370  1903               	skipnz
  4969  0371  2B31               	goto	l5587
  4970  0372  3A07               	xorlw	7	; case 12
  4971  0373  1903               	skipnz
  4972  0374  2B25               	goto	l5581
  4973  0375  3A01               	xorlw	1	; case 13
  4974  0376  1903               	skipnz
  4975  0377  2B35               	goto	l5589
  4976  0378  3A03               	xorlw	3	; case 14
  4977  0379  1903               	skipnz
  4978  037A  2B39               	goto	l5591
  4979  037B  3A01               	xorlw	1	; case 15
  4980  037C  1903               	skipnz
  4981  037D  2B3D               	goto	l5593
  4982  037E  3A1F               	xorlw	31	; case 16
  4983  037F  1903               	skipnz
  4984  0380  2B41               	goto	l5595
  4985  0381  2B82               	goto	l490
  4986  0382                     l490:
  4987  0382  0008               	return
  4988  0383                     __end_of__KeyInTx:
  4989                           
  4990                           	psect	text9
  4991  0B92                     __ptext9:	
  4992 ;; *************** function _dd_set_ADF7021_Power_on_Init *****************
  4993 ;; Defined at:
  4994 ;;		line 59 in file "../Projects/src/adf7012.c"
  4995 ;; Parameters:    Size  Location     Type
  4996 ;;		None
  4997 ;; Auto vars:     Size  Location     Type
  4998 ;;  register_val    4    0[BANK0 ] struct .
  4999 ;; Return value:  Size  Location     Type
  5000 ;;                  1    wreg      void 
  5001 ;; Registers used:
  5002 ;;		wreg, fsr1l, fsr1h, status,2, status,0, pclath, cstack
  5003 ;; Tracked objects:
  5004 ;;		On entry : 0/0
  5005 ;;		On exit  : 0/0
  5006 ;;		Unchanged: 0/0
  5007 ;; Data sizes:     COMMON   BANK0   BANK1   BANK2   BANK3   BANK4   BANK5   BANK6   BANK7   BANK8   BANK9  BANK10  BANK1
      +1  BANK12
  5008 ;;      Params:         0       0       0       0       0       0       0       0       0       0       0       0       
      +0       0
  5009 ;;      Locals:         0       4       0       0       0       0       0       0       0       0       0       0       
      +0       0
  5010 ;;      Temps:          0       0       0       0       0       0       0       0       0       0       0       0       
      +0       0
  5011 ;;      Totals:         0       4       0       0       0       0       0       0       0       0       0       0       
      +0       0
  5012 ;;Total ram usage:        4 bytes
  5013 ;; Hardware stack levels used:    1
  5014 ;; Hardware stack levels required when called:    3
  5015 ;; This function calls:
  5016 ;;		_dd_write_7021_reg
  5017 ;; This function is called by:
  5018 ;;		__KeyInTx
  5019 ;; This function uses a non-reentrant model
  5020 ;;
  5021                           
  5022                           
  5023                           ;psect for function _dd_set_ADF7021_Power_on_Init
  5024  0B92                     _dd_set_ADF7021_Power_on_Init:
  5025  0B92                     l5191:	
  5026                           ;incstack = 0
  5027                           ; Regs used in _dd_set_ADF7021_Power_on_Init: [wreg+fsr1l+fsr1h+status,2+status,0+pclath
      +                          +cstack]
  5028                           
  5029                           
  5030                           ;../Projects/src/adf7012.c: 61:   ADF70XX_REG_T register_value;;../Projects/src/adf7012.
      +                          c: 62:  if (RC2 == 0)
  5031  0B92  0020               	movlb	0	; select bank0
  5032  0B93  190E               	btfsc	14,2	;volatile
  5033  0B94  2B96               	goto	u3041
  5034  0B95  2B97               	goto	u3040
  5035  0B96                     u3041:
  5036  0B96  2BB0               	goto	l155
  5037  0B97                     u3040:
  5038  0B97                     l5193:
  5039                           
  5040                           ;../Projects/src/adf7012.c: 63:  {;../Projects/src/adf7012.c: 64:   RC2 = 1;
  5041  0B97  150E               	bsf	14,2	;volatile
  5042  0B98                     l5195:
  5043                           
  5044                           ;../Projects/src/adf7012.c: 74:      register_value.whole_reg = ROM_adf7012_value[3].who
      +                          le_reg & 0xFFFFFFF3;
  5045  0B98  30F3               	movlw	243
  5046  0B99  0021               	movlb	1	; select bank1
  5047  0B9A  0558               	andwf	(_ROM_adf7012_value^(0+128)+12),w
  5048  0B9B  0020               	movlb	0	; select bank0
  5049  0B9C  00D3               	movwf	dd_set_ADF7021_Power_on_Init@register_value
  5050  0B9D  30FF               	movlw	255
  5051  0B9E  0021               	movlb	1	; select bank1
  5052  0B9F  0559               	andwf	((_ROM_adf7012_value+1)^(0+128)+12),w
  5053  0BA0  0020               	movlb	0	; select bank0
  5054  0BA1  00D4               	movwf	dd_set_ADF7021_Power_on_Init@register_value+1
  5055  0BA2  30FF               	movlw	255
  5056  0BA3  0021               	movlb	1	; select bank1
  5057  0BA4  055A               	andwf	((_ROM_adf7012_value+2)^(0+128)+12),w
  5058  0BA5  0020               	movlb	0	; select bank0
  5059  0BA6  00D5               	movwf	dd_set_ADF7021_Power_on_Init@register_value+2
  5060  0BA7  30FF               	movlw	255
  5061  0BA8  0021               	movlb	1	; select bank1
  5062  0BA9  055B               	andwf	((_ROM_adf7012_value+3)^(0+128)+12),w
  5063  0BAA  0020               	movlb	0	; select bank0
  5064  0BAB  00D6               	movwf	dd_set_ADF7021_Power_on_Init@register_value+3
  5065  0BAC                     l5197:
  5066                           
  5067                           ;../Projects/src/adf7012.c: 75:             dd_write_7021_reg(&register_value.byte[0]);
  5068  0BAC  3053               	movlw	(low (dd_set_ADF7021_Power_on_Init@register_value| 0))& (0+255)
  5069  0BAD  318C  242A  318B   	fcall	_dd_write_7021_reg
  5070  0BB0                     l155:
  5071  0BB0  0008               	return
  5072  0BB1                     __end_of_dd_set_ADF7021_Power_on_Init:
  5073                           
  5074                           	psect	text10
  5075  0A12                     __ptext10:	
  5076 ;; *************** function __SwIn *****************
  5077 ;; Defined at:
  5078 ;;		line 1280 in file "../Projects/src/key_and_Other.c"
  5079 ;; Parameters:    Size  Location     Type
  5080 ;;  sw              1    wreg     unsigned char 
  5081 ;; Auto vars:     Size  Location     Type
  5082 ;;  sw              1    3[COMMON] unsigned char 
  5083 ;; Return value:  Size  Location     Type
  5084 ;;                  1    wreg      void 
  5085 ;; Registers used:
  5086 ;;		wreg, status,2, status,0
  5087 ;; Tracked objects:
  5088 ;;		On entry : 0/0
  5089 ;;		On exit  : 0/0
  5090 ;;		Unchanged: 0/0
  5091 ;; Data sizes:     COMMON   BANK0   BANK1   BANK2   BANK3   BANK4   BANK5   BANK6   BANK7   BANK8   BANK9  BANK10  BANK1
      +1  BANK12
  5092 ;;      Params:         0       0       0       0       0       0       0       0       0       0       0       0       
      +0       0
  5093 ;;      Locals:         1       0       0       0       0       0       0       0       0       0       0       0       
      +0       0
  5094 ;;      Temps:          0       0       0       0       0       0       0       0       0       0       0       0       
      +0       0
  5095 ;;      Totals:         1       0       0       0       0       0       0       0       0       0       0       0       
      +0       0
  5096 ;;Total ram usage:        1 bytes
  5097 ;; Hardware stack levels used:    1
  5098 ;; Hardware stack levels required when called:    2
  5099 ;; This function calls:
  5100 ;;		Nothing
  5101 ;; This function is called by:
  5102 ;;		__KeyInTx
  5103 ;; This function uses a non-reentrant model
  5104 ;;
  5105                           
  5106                           
  5107                           ;psect for function __SwIn
  5108  0A12                     __SwIn:
  5109                           
  5110                           ;incstack = 0
  5111                           ; Regs used in __SwIn: [wreg+status,2+status,0]
  5112                           ;__SwIn@sw stored from wreg
  5113  0A12  00F3               	movwf	__SwIn@sw
  5114  0A13                     l3459:
  5115                           
  5116                           ;../Projects/src/key_and_Other.c: 1280: void _SwIn( unsigned char sw );../Projects/src/k
      +                          ey_and_Other.c: 1281: {;../Projects/src/key_and_Other.c: 1282:  m_KeyNew<<= 1 ;
  5117  0A13  1003               	clrc
  5118  0A14  0020               	movlb	0	; select bank0
  5119  0A15  0DC6               	rlf	_m_KeyNew,f
  5120  0A16                     l3461:
  5121                           
  5122                           ;../Projects/src/key_and_Other.c: 1283:  if ( sw )
  5123  0A16  0873               	movf	__SwIn@sw,w
  5124  0A17  1903               	btfsc	3,2
  5125  0A18  2A1A               	goto	u851
  5126  0A19  2A1B               	goto	u850
  5127  0A1A                     u851:
  5128  0A1A  2A1C               	goto	l766
  5129  0A1B                     u850:
  5130  0A1B                     l3463:
  5131                           
  5132                           ;../Projects/src/key_and_Other.c: 1284:  {;../Projects/src/key_and_Other.c: 1285:   m_Ke
      +                          yNew |= 1 ;
  5133  0A1B  1446               	bsf	_m_KeyNew,0
  5134  0A1C                     l766:
  5135  0A1C  0008               	return
  5136  0A1D                     __end_of__SwIn:
  5137                           
  5138                           	psect	text11
  5139  0AFC                     __ptext11:	
  5140 ;; *************** function __FuncVentReg *****************
  5141 ;; Defined at:
  5142 ;;		line 367 in file "../Projects/src/key_and_Other.c"
  5143 ;; Parameters:    Size  Location     Type
  5144 ;;		None
  5145 ;; Auto vars:     Size  Location     Type
  5146 ;;		None
  5147 ;; Return value:  Size  Location     Type
  5148 ;;                  1    wreg      void 
  5149 ;; Registers used:
  5150 ;;		wreg, fsr0l, fsr0h, fsr1l, fsr1h, status,2, status,0, pclath, cstack
  5151 ;; Tracked objects:
  5152 ;;		On entry : 0/0
  5153 ;;		On exit  : 0/0
  5154 ;;		Unchanged: 0/0
  5155 ;; Data sizes:     COMMON   BANK0   BANK1   BANK2   BANK3   BANK4   BANK5   BANK6   BANK7   BANK8   BANK9  BANK10  BANK1
      +1  BANK12
  5156 ;;      Params:         0       0       0       0       0       0       0       0       0       0       0       0       
      +0       0
  5157 ;;      Locals:         0       0       0       0       0       0       0       0       0       0       0       0       
      +0       0
  5158 ;;      Temps:          0       1       0       0       0       0       0       0       0       0       0       0       
      +0       0
  5159 ;;      Totals:         0       1       0       0       0       0       0       0       0       0       0       0       
      +0       0
  5160 ;;Total ram usage:        1 bytes
  5161 ;; Hardware stack levels used:    1
  5162 ;; Hardware stack levels required when called:    7
  5163 ;; This function calls:
  5164 ;;		__DupliFuncClear
  5165 ;;		__Pass3secKey
  5166 ;; This function is called by:
  5167 ;;		__KeyInTx
  5168 ;; This function uses a non-reentrant model
  5169 ;;
  5170                           
  5171                           
  5172                           ;psect for function __FuncVentReg
  5173  0AFC                     __FuncVentReg:
  5174  0AFC                     l5435:	
  5175                           ;incstack = 0
  5176                           ; Regs used in __FuncVentReg: [wreg-fsr1h+status,2+status,0+pclath+cstack]
  5177                           
  5178                           
  5179                           ;../Projects/src/key_and_Other.c: 369:  _DupliFuncClear() ;
  5180  0AFC  318A  224B  318A   	fcall	__DupliFuncClear
  5181  0AFF                     l5437:
  5182                           
  5183                           ;../Projects/src/key_and_Other.c: 370:  if ( !RAM_RegSW.BIT.Bit4 )
  5184  0AFF  0020               	movlb	0	; select bank0
  5185  0B00  1A43               	btfsc	_RAM_RegSW,4	;volatile
  5186  0B01  2B03               	goto	u3381
  5187  0B02  2B04               	goto	u3380
  5188  0B03                     u3381:
  5189  0B03  2B14               	goto	l5451
  5190  0B04                     u3380:
  5191  0B04                     l5439:
  5192                           
  5193                           ;../Projects/src/key_and_Other.c: 371:  {;../Projects/src/key_and_Other.c: 372:   RAM_Re
      +                          gSW.BIT.Bit4 = 1 ;
  5194  0B04  1643               	bsf	_RAM_RegSW,4	;volatile
  5195  0B05                     l5441:
  5196                           
  5197                           ;../Projects/src/key_and_Other.c: 373:   m_TimerKey = 3000 ;
  5198  0B05  30B8               	movlw	184
  5199  0B06  00AE               	movwf	_m_TimerKey
  5200  0B07  300B               	movlw	11
  5201  0B08  00AF               	movwf	_m_TimerKey+1
  5202  0B09                     l5443:
  5203                           
  5204                           ;../Projects/src/key_and_Other.c: 374:   if(RAM_OP1.BIT.Bit5==0){
  5205  0B09  1AD1               	btfsc	_RAM_OP1,5	;volatile
  5206  0B0A  2B0C               	goto	u3391
  5207  0B0B  2B0D               	goto	u3390
  5208  0B0C                     u3391:
  5209  0B0C  2B18               	goto	l552
  5210  0B0D                     u3390:
  5211  0B0D                     l5445:
  5212                           
  5213                           ;../Projects/src/key_and_Other.c: 375:             RAM_OP1.BIT.Bit5=1;
  5214  0B0D  16D1               	bsf	_RAM_OP1,5	;volatile
  5215                           
  5216                           ;../Projects/src/key_and_Other.c: 376:             RB7=1;
  5217  0B0E  178D               	bsf	13,7	;volatile
  5218  0B0F                     l5447:
  5219                           
  5220                           ;../Projects/src/key_and_Other.c: 377:             TB_5s=78;
  5221  0B0F  304E               	movlw	78
  5222  0B10  00EB               	movwf	??__FuncVentReg
  5223  0B11  086B               	movf	??__FuncVentReg,w
  5224  0B12  00C7               	movwf	_TB_5s
  5225  0B13  2B18               	goto	l552
  5226  0B14                     l5451:
  5227                           
  5228                           ;../Projects/src/key_and_Other.c: 382:  _Pass3secKey( 13 ) ;
  5229  0B14  300D               	movlw	13
  5230  0B15  318A  228B  318A   	fcall	__Pass3secKey
  5231  0B18                     l552:
  5232  0B18  0008               	return
  5233  0B19                     __end_of__FuncVentReg:
  5234                           
  5235                           	psect	text12
  5236  0ADF                     __ptext12:	
  5237 ;; *************** function __FuncStopReg *****************
  5238 ;; Defined at:
  5239 ;;		line 390 in file "../Projects/src/key_and_Other.c"
  5240 ;; Parameters:    Size  Location     Type
  5241 ;;		None
  5242 ;; Auto vars:     Size  Location     Type
  5243 ;;		None
  5244 ;; Return value:  Size  Location     Type
  5245 ;;                  1    wreg      void 
  5246 ;; Registers used:
  5247 ;;		wreg, fsr0l, fsr0h, fsr1l, fsr1h, status,2, status,0, pclath, cstack
  5248 ;; Tracked objects:
  5249 ;;		On entry : 0/0
  5250 ;;		On exit  : 0/0
  5251 ;;		Unchanged: 0/0
  5252 ;; Data sizes:     COMMON   BANK0   BANK1   BANK2   BANK3   BANK4   BANK5   BANK6   BANK7   BANK8   BANK9  BANK10  BANK1
      +1  BANK12
  5253 ;;      Params:         0       0       0       0       0       0       0       0       0       0       0       0       
      +0       0
  5254 ;;      Locals:         0       0       0       0       0       0       0       0       0       0       0       0       
      +0       0
  5255 ;;      Temps:          0       1       0       0       0       0       0       0       0       0       0       0       
      +0       0
  5256 ;;      Totals:         0       1       0       0       0       0       0       0       0       0       0       0       
      +0       0
  5257 ;;Total ram usage:        1 bytes
  5258 ;; Hardware stack levels used:    1
  5259 ;; Hardware stack levels required when called:    7
  5260 ;; This function calls:
  5261 ;;		__DupliFuncClear
  5262 ;;		__Pass3secKey
  5263 ;; This function is called by:
  5264 ;;		__KeyInTx
  5265 ;; This function uses a non-reentrant model
  5266 ;;
  5267                           
  5268                           
  5269                           ;psect for function __FuncStopReg
  5270  0ADF                     __FuncStopReg:
  5271  0ADF                     l5399:	
  5272                           ;incstack = 0
  5273                           ; Regs used in __FuncStopReg: [wreg-fsr1h+status,2+status,0+pclath+cstack]
  5274                           
  5275                           
  5276                           ;../Projects/src/key_and_Other.c: 392:  _DupliFuncClear() ;
  5277  0ADF  318A  224B  318A   	fcall	__DupliFuncClear
  5278  0AE2                     l5401:
  5279                           
  5280                           ;../Projects/src/key_and_Other.c: 393:  if ( !RAM_RegSW.BIT.Bit1 )
  5281  0AE2  0020               	movlb	0	; select bank0
  5282  0AE3  18C3               	btfsc	_RAM_RegSW,1	;volatile
  5283  0AE4  2AE6               	goto	u3341
  5284  0AE5  2AE7               	goto	u3340
  5285  0AE6                     u3341:
  5286  0AE6  2AF7               	goto	l5415
  5287  0AE7                     u3340:
  5288  0AE7                     l5403:
  5289                           
  5290                           ;../Projects/src/key_and_Other.c: 394:  {;../Projects/src/key_and_Other.c: 395:   RAM_Re
      +                          gSW.BIT.Bit1 = 1 ;
  5291  0AE7  14C3               	bsf	_RAM_RegSW,1	;volatile
  5292  0AE8                     l5405:
  5293                           
  5294                           ;../Projects/src/key_and_Other.c: 396:   m_TimerKey = 3000 ;
  5295  0AE8  30B8               	movlw	184
  5296  0AE9  00AE               	movwf	_m_TimerKey
  5297  0AEA  300B               	movlw	11
  5298  0AEB  00AF               	movwf	_m_TimerKey+1
  5299  0AEC                     l5407:
  5300                           
  5301                           ;../Projects/src/key_and_Other.c: 397:   if(RAM_OP1.BIT.Bit5==0){
  5302  0AEC  1AD1               	btfsc	_RAM_OP1,5	;volatile
  5303  0AED  2AEF               	goto	u3351
  5304  0AEE  2AF0               	goto	u3350
  5305  0AEF                     u3351:
  5306  0AEF  2AFB               	goto	l557
  5307  0AF0                     u3350:
  5308  0AF0                     l5409:
  5309                           
  5310                           ;../Projects/src/key_and_Other.c: 398:             RAM_OP1.BIT.Bit5=1;
  5311  0AF0  16D1               	bsf	_RAM_OP1,5	;volatile
  5312                           
  5313                           ;../Projects/src/key_and_Other.c: 399:             RB7=1;
  5314  0AF1  178D               	bsf	13,7	;volatile
  5315  0AF2                     l5411:
  5316                           
  5317                           ;../Projects/src/key_and_Other.c: 400:             TB_5s=78;
  5318  0AF2  304E               	movlw	78
  5319  0AF3  00EB               	movwf	??__FuncStopReg
  5320  0AF4  086B               	movf	??__FuncStopReg,w
  5321  0AF5  00C7               	movwf	_TB_5s
  5322  0AF6  2AFB               	goto	l557
  5323  0AF7                     l5415:
  5324                           
  5325                           ;../Projects/src/key_and_Other.c: 405:  _Pass3secKey( 10 ) ;
  5326  0AF7  300A               	movlw	10
  5327  0AF8  318A  228B  318A   	fcall	__Pass3secKey
  5328  0AFB                     l557:
  5329  0AFB  0008               	return
  5330  0AFC                     __end_of__FuncStopReg:
  5331                           
  5332                           	psect	text13
  5333  0492                     __ptext13:	
  5334 ;; *************** function __FuncStop *****************
  5335 ;; Defined at:
  5336 ;;		line 469 in file "../Projects/src/key_and_Other.c"
  5337 ;; Parameters:    Size  Location     Type
  5338 ;;		None
  5339 ;; Auto vars:     Size  Location     Type
  5340 ;;		None
  5341 ;; Return value:  Size  Location     Type
  5342 ;;                  1    wreg      void 
  5343 ;; Registers used:
  5344 ;;		wreg, fsr0l, fsr0h, fsr1l, fsr1h, status,2, status,0, pclath, cstack
  5345 ;; Tracked objects:
  5346 ;;		On entry : 0/0
  5347 ;;		On exit  : 0/0
  5348 ;;		Unchanged: 0/0
  5349 ;; Data sizes:     COMMON   BANK0   BANK1   BANK2   BANK3   BANK4   BANK5   BANK6   BANK7   BANK8   BANK9  BANK10  BANK1
      +1  BANK12
  5350 ;;      Params:         0       0       0       0       0       0       0       0       0       0       0       0       
      +0       0
  5351 ;;      Locals:         0       0       0       0       0       0       0       0       0       0       0       0       
      +0       0
  5352 ;;      Temps:          0       2       0       0       0       0       0       0       0       0       0       0       
      +0       0
  5353 ;;      Totals:         0       2       0       0       0       0       0       0       0       0       0       0       
      +0       0
  5354 ;;Total ram usage:        2 bytes
  5355 ;; Hardware stack levels used:    1
  5356 ;; Hardware stack levels required when called:    6
  5357 ;; This function calls:
  5358 ;;		__DupliFuncClear
  5359 ;;		__GetNoPushState
  5360 ;;		__ReqBuzzer
  5361 ;;		__ReqTxdEdit
  5362 ;; This function is called by:
  5363 ;;		__KeyInTx
  5364 ;; This function uses a non-reentrant model
  5365 ;;
  5366                           
  5367                           
  5368                           ;psect for function __FuncStop
  5369  0492                     __FuncStop:
  5370  0492                     l5245:	
  5371                           ;incstack = 0
  5372                           ; Regs used in __FuncStop: [wreg-fsr1h+status,2+status,0+pclath+cstack]
  5373                           
  5374                           
  5375                           ;../Projects/src/key_and_Other.c: 471:  if ( _GetNoPushState() )
  5376  0492  318A  222C  3184   	fcall	__GetNoPushState
  5377  0495  3A00               	xorlw	0
  5378  0496  1903               	skipnz
  5379  0497  2C99               	goto	u3121
  5380  0498  2C9A               	goto	u3120
  5381  0499                     u3121:
  5382  0499  2CEF               	goto	l5293
  5383  049A                     u3120:
  5384  049A                     l5247:
  5385                           
  5386                           ;../Projects/src/key_and_Other.c: 472:  {;../Projects/src/key_and_Other.c: 473:   if ( R
      +                          AM_SW.BIT.Bit0 || RAM_SW.BIT.Bit1 || RAM_SW.BIT.Bit2 )
  5387  049A  0020               	movlb	0	; select bank0
  5388  049B  1842               	btfsc	_RAM_SW,0	;volatile
  5389  049C  2C9E               	goto	u3131
  5390  049D  2C9F               	goto	u3130
  5391  049E                     u3131:
  5392  049E  2CA7               	goto	l5253
  5393  049F                     u3130:
  5394  049F                     l5249:
  5395  049F  18C2               	btfsc	_RAM_SW,1	;volatile
  5396  04A0  2CA2               	goto	u3141
  5397  04A1  2CA3               	goto	u3140
  5398  04A2                     u3141:
  5399  04A2  2CA7               	goto	l5253
  5400  04A3                     u3140:
  5401  04A3                     l5251:
  5402  04A3  1D42               	btfss	_RAM_SW,2	;volatile
  5403  04A4  2CA6               	goto	u3151
  5404  04A5  2CA7               	goto	u3150
  5405  04A6                     u3151:
  5406  04A6  2D8B               	goto	l583
  5407  04A7                     u3150:
  5408  04A7                     l5253:
  5409                           
  5410                           ;../Projects/src/key_and_Other.c: 474:   {;../Projects/src/key_and_Other.c: 475:    if (
      +                          ( !m_TimerKey )&&(RAM_SW.BIT.Bit6==0)&&(TIME_Once_twice_switch==0))
  5411  04A7  082E               	movf	_m_TimerKey,w
  5412  04A8  042F               	iorwf	_m_TimerKey+1,w
  5413  04A9  1D03               	btfss	3,2
  5414  04AA  2CAC               	goto	u3161
  5415  04AB  2CAD               	goto	u3160
  5416  04AC                     u3161:
  5417  04AC  2D8B               	goto	l583
  5418  04AD                     u3160:
  5419  04AD                     l5255:
  5420  04AD  1B42               	btfsc	_RAM_SW,6	;volatile
  5421  04AE  2CB0               	goto	u3171
  5422  04AF  2CB1               	goto	u3170
  5423  04B0                     u3171:
  5424  04B0  2D8B               	goto	l583
  5425  04B1                     u3170:
  5426  04B1                     l5257:
  5427  04B1  0822               	movf	_TIME_Once_twice_switch,w
  5428  04B2  0423               	iorwf	_TIME_Once_twice_switch+1,w
  5429  04B3  1D03               	btfss	3,2
  5430  04B4  2CB6               	goto	u3181
  5431  04B5  2CB7               	goto	u3180
  5432  04B6                     u3181:
  5433  04B6  2D8B               	goto	l583
  5434  04B7                     u3180:
  5435  04B7                     l5259:
  5436                           
  5437                           ;../Projects/src/key_and_Other.c: 476:    {;../Projects/src/key_and_Other.c: 479:      i
      +                          f ( RAM_SW.BIT.Bit0 || RAM_SW.BIT.Bit2 )
  5438  04B7  1842               	btfsc	_RAM_SW,0	;volatile
  5439  04B8  2CBA               	goto	u3191
  5440  04B9  2CBB               	goto	u3190
  5441  04BA                     u3191:
  5442  04BA  2CBF               	goto	l5263
  5443  04BB                     u3190:
  5444  04BB                     l5261:
  5445  04BB  1D42               	btfss	_RAM_SW,2	;volatile
  5446  04BC  2CBE               	goto	u3201
  5447  04BD  2CBF               	goto	u3200
  5448  04BE                     u3201:
  5449  04BE  2CC6               	goto	l580
  5450  04BF                     u3200:
  5451  04BF                     l5263:
  5452                           
  5453                           ;../Projects/src/key_and_Other.c: 480:      {;../Projects/src/key_and_Other.c: 481:     
      +                            m_KeyOptSetMode = 10 ;
  5454  04BF  300A               	movlw	10
  5455  04C0  00EA               	movwf	??__FuncStop
  5456  04C1  086A               	movf	??__FuncStop,w
  5457  04C2  00C0               	movwf	_m_KeyOptSetMode
  5458  04C3                     l5265:
  5459                           
  5460                           ;../Projects/src/key_and_Other.c: 484:       m_KindOfKey = 0 ;
  5461  04C3  01C4               	clrf	_m_KindOfKey
  5462  04C4                     l5267:
  5463                           
  5464                           ;../Projects/src/key_and_Other.c: 485:       RAM_RegSW.BIT.Bit7 = 1 ;
  5465  04C4  17C3               	bsf	_RAM_RegSW,7	;volatile
  5466  04C5  2D8B               	goto	l583
  5467  04C6                     l580:	
  5468                           ;../Projects/src/key_and_Other.c: 487:      }
  5469                           
  5470                           
  5471                           ;../Projects/src/key_and_Other.c: 488:      m_KeyOptSetMode = 1 ;
  5472  04C6  01C0               	clrf	_m_KeyOptSetMode
  5473  04C7  0AC0               	incf	_m_KeyOptSetMode,f
  5474  04C8                     l5271:
  5475                           
  5476                           ;../Projects/src/key_and_Other.c: 490:      _ReqBuzzer(103,103,1);
  5477  04C8  3067               	movlw	103
  5478  04C9  00F3               	movwf	__ReqBuzzer@BEEP_on_SET
  5479  04CA  3000               	movlw	0
  5480  04CB  00F4               	movwf	__ReqBuzzer@BEEP_on_SET+1
  5481  04CC  3067               	movlw	103
  5482  04CD  00EA               	movwf	??__FuncStop
  5483  04CE  086A               	movf	??__FuncStop,w
  5484  04CF  00F5               	movwf	__ReqBuzzer@BEEP_off_SET
  5485  04D0  01F6               	clrf	__ReqBuzzer@BEEP_freq_SET
  5486  04D1  0AF6               	incf	__ReqBuzzer@BEEP_freq_SET,f
  5487  04D2  318B  2319  3184   	fcall	__ReqBuzzer
  5488  04D5                     l5273:
  5489                           
  5490                           ;../Projects/src/key_and_Other.c: 491:       RAM_OP2.BIT.Bit3=1;
  5491  04D5  15FA               	bsf	_RAM_OP2,3	;volatile
  5492  04D6                     l5275:
  5493                           
  5494                           ;../Projects/src/key_and_Other.c: 492:       if(RAM_OP1.BIT.Bit5==0){
  5495  04D6  0020               	movlb	0	; select bank0
  5496  04D7  1AD1               	btfsc	_RAM_OP1,5	;volatile
  5497  04D8  2CDA               	goto	u3211
  5498  04D9  2CDB               	goto	u3210
  5499  04DA                     u3211:
  5500  04DA  2CE1               	goto	l584
  5501  04DB                     u3210:
  5502  04DB                     l5277:
  5503                           
  5504                           ;../Projects/src/key_and_Other.c: 493:                                              RAM_
      +                          OP1.BIT.Bit5=1;
  5505  04DB  16D1               	bsf	_RAM_OP1,5	;volatile
  5506                           
  5507                           ;../Projects/src/key_and_Other.c: 494:                                              RB7=
      +                          1;
  5508  04DC  178D               	bsf	13,7	;volatile
  5509  04DD                     l5279:
  5510                           
  5511                           ;../Projects/src/key_and_Other.c: 495:                                              TB_5
      +                          s=TB_51s;
  5512  04DD  0848               	movf	_TB_51s,w
  5513  04DE  00EA               	movwf	??__FuncStop
  5514  04DF  086A               	movf	??__FuncStop,w
  5515  04E0  00C7               	movwf	_TB_5s
  5516  04E1                     l584:	
  5517                           ;../Projects/src/key_and_Other.c: 496:                                                 }
  5518                           
  5519                           
  5520                           ;../Projects/src/key_and_Other.c: 497:      m_KeyDupliSetTimeout = 4000 ;
  5521  04E1  30A0               	movlw	160
  5522  04E2  00A8               	movwf	_m_KeyDupliSetTimeout
  5523  04E3  300F               	movlw	15
  5524  04E4  00A9               	movwf	_m_KeyDupliSetTimeout+1
  5525  04E5                     l5281:
  5526                           
  5527                           ;../Projects/src/key_and_Other.c: 498:      m_KindOfKey = 0 ;
  5528  04E5  01C4               	clrf	_m_KindOfKey
  5529  04E6                     l5283:
  5530                           
  5531                           ;../Projects/src/key_and_Other.c: 499:      RAM_RegSW.BIT.Bit6=0;
  5532  04E6  1343               	bcf	_RAM_RegSW,6	;volatile
  5533  04E7                     l5285:
  5534                           
  5535                           ;../Projects/src/key_and_Other.c: 500:      RAM_RegSW.BIT.Bit7 = 1 ;
  5536  04E7  17C3               	bsf	_RAM_RegSW,7	;volatile
  5537  04E8                     l5287:
  5538                           
  5539                           ;../Projects/src/key_and_Other.c: 501:      RAM_RegSW.BIT.Bit5 = 1 ;
  5540  04E8  16C3               	bsf	_RAM_RegSW,5	;volatile
  5541  04E9                     l5289:
  5542                           
  5543                           ;../Projects/src/key_and_Other.c: 502:      if ( RAM_SW.BIT.Bit0 )
  5544  04E9  1C42               	btfss	_RAM_SW,0	;volatile
  5545  04EA  2CEC               	goto	u3221
  5546  04EB  2CED               	goto	u3220
  5547  04EC                     u3221:
  5548  04EC  2D8B               	goto	l583
  5549  04ED                     u3220:
  5550  04ED                     l5291:
  5551                           
  5552                           ;../Projects/src/key_and_Other.c: 503:      {;../Projects/src/key_and_Other.c: 504:     
      +                            RAM_RegSW.BIT.Bit5 = 0 ;
  5553  04ED  12C3               	bcf	_RAM_RegSW,5	;volatile
  5554  04EE  2D8B               	goto	l583
  5555  04EF                     l5293:
  5556                           
  5557                           ;../Projects/src/key_and_Other.c: 514:  m_KindOfKey = m_KeyNo ;
  5558  04EF  0020               	movlb	0	; select bank0
  5559  04F0  083C               	movf	_m_KeyNo,w
  5560  04F1  00EA               	movwf	??__FuncStop
  5561  04F2  086A               	movf	??__FuncStop,w
  5562  04F3  00C4               	movwf	_m_KindOfKey
  5563  04F4                     l5295:
  5564                           
  5565                           ;../Projects/src/key_and_Other.c: 515:  if ( m_KeyOptSetMode ||m_RegMode)
  5566  04F4  0840               	movf	_m_KeyOptSetMode,w
  5567  04F5  1D03               	btfss	3,2
  5568  04F6  2CF8               	goto	u3231
  5569  04F7  2CF9               	goto	u3230
  5570  04F8                     u3231:
  5571  04F8  2D8B               	goto	l583
  5572  04F9                     u3230:
  5573  04F9                     l5297:
  5574  04F9  084E               	movf	_m_RegMode,w
  5575  04FA  1903               	btfsc	3,2
  5576  04FB  2CFD               	goto	u3241
  5577  04FC  2CFE               	goto	u3240
  5578  04FD                     u3241:
  5579  04FD  2D09               	goto	l5307
  5580  04FE                     u3240:
  5581  04FE  2D8B               	goto	l583
  5582  04FF                     l590:	
  5583                           ;../Projects/src/key_and_Other.c: 521:  {;../Projects/src/key_and_Other.c: 522:   case 1
      +                           :
  5584                           
  5585                           
  5586                           ;../Projects/src/key_and_Other.c: 523:    RAM_SW.BIT.Bit0 = 1 ;
  5587  04FF  1442               	bsf	_RAM_SW,0	;volatile
  5588  0500                     l5299:
  5589                           
  5590                           ;../Projects/src/key_and_Other.c: 524:    m_TimerKey = 5000 ;
  5591  0500  3088               	movlw	136
  5592  0501  00AE               	movwf	_m_TimerKey
  5593  0502  3013               	movlw	19
  5594  0503  00AF               	movwf	_m_TimerKey+1
  5595                           
  5596                           ;../Projects/src/key_and_Other.c: 525:    break;
  5597  0504  2D1C               	goto	l5309
  5598  0505                     l592:	
  5599                           ;../Projects/src/key_and_Other.c: 527:   case 2 :
  5600                           
  5601                           
  5602                           ;../Projects/src/key_and_Other.c: 528:    RAM_SW.BIT.Bit1 = 1 ;
  5603  0505  14C2               	bsf	_RAM_SW,1	;volatile
  5604  0506  2D00               	goto	l5299
  5605  0507                     l593:	
  5606                           ;../Projects/src/key_and_Other.c: 532:   case 3 :
  5607                           
  5608                           
  5609                           ;../Projects/src/key_and_Other.c: 533:    RAM_SW.BIT.Bit2 = 1 ;
  5610  0507  1542               	bsf	_RAM_SW,2	;volatile
  5611  0508  2D00               	goto	l5299
  5612  0509                     l5307:
  5613  0509  0844               	movf	_m_KindOfKey,w
  5614  050A  00EA               	movwf	??__FuncStop
  5615  050B  01EB               	clrf	??__FuncStop+1
  5616                           
  5617                           ; Switch on 2 bytes has been partitioned into a top level switch of size 1, and 1 sub-sw
      +                          itches
  5618                           ; Switch size 1, requested type "simple"
  5619                           ; Number of cases is 1, Range of values is 0 to 0
  5620                           ; switch strategies available:
  5621                           ; Name         Instructions Cycles
  5622                           ; simple_byte            4     3 (average)
  5623                           ; direct_byte            8     6 (fixed)
  5624                           ; jumptable            260     6 (fixed)
  5625                           ;	Chosen strategy is simple_byte
  5626  050C  086B               	movf	??__FuncStop+1,w
  5627  050D  3A00               	xorlw	0	; case 0
  5628  050E  1903               	skipnz
  5629  050F  2D11               	goto	l6493
  5630  0510  2D1C               	goto	l5309
  5631  0511                     l6493:
  5632                           
  5633                           ; Switch size 1, requested type "simple"
  5634                           ; Number of cases is 3, Range of values is 1 to 3
  5635                           ; switch strategies available:
  5636                           ; Name         Instructions Cycles
  5637                           ; simple_byte           10     6 (average)
  5638                           ; direct_byte           15     9 (fixed)
  5639                           ; jumptable            263     9 (fixed)
  5640                           ;	Chosen strategy is simple_byte
  5641  0511  086A               	movf	??__FuncStop,w
  5642  0512  3A01               	xorlw	1	; case 1
  5643  0513  1903               	skipnz
  5644  0514  2CFF               	goto	l590
  5645  0515  3A03               	xorlw	3	; case 2
  5646  0516  1903               	skipnz
  5647  0517  2D05               	goto	l592
  5648  0518  3A01               	xorlw	1	; case 3
  5649  0519  1903               	skipnz
  5650  051A  2D07               	goto	l593
  5651  051B  2D1C               	goto	l5309
  5652  051C                     l5309:
  5653                           
  5654                           ;../Projects/src/key_and_Other.c: 539:  if ( !rom_KeyOpt || m_KindOfKey == 4 )
  5655  051C  084A               	movf	_rom_KeyOpt,w
  5656  051D  1903               	btfsc	3,2
  5657  051E  2D20               	goto	u3251
  5658  051F  2D21               	goto	u3250
  5659  0520                     u3251:
  5660  0520  2D27               	goto	l5313
  5661  0521                     u3250:
  5662  0521                     l5311:
  5663  0521  3004               	movlw	4
  5664  0522  0644               	xorwf	_m_KindOfKey,w
  5665  0523  1D03               	btfss	3,2
  5666  0524  2D26               	goto	u3261
  5667  0525  2D27               	goto	u3260
  5668  0526                     u3261:
  5669  0526  2D37               	goto	l5321
  5670  0527                     u3260:
  5671  0527                     l5313:
  5672                           
  5673                           ;../Projects/src/key_and_Other.c: 543:  {;../Projects/src/key_and_Other.c: 544:   _Dupli
      +                          FuncClear() ;
  5674  0527  318A  224B  3184   	fcall	__DupliFuncClear
  5675  052A                     l5315:
  5676                           
  5677                           ;../Projects/src/key_and_Other.c: 545:   _ReqTxdEdit( m_KeyNo,m_KeyNo ) ;
  5678  052A  0020               	movlb	0	; select bank0
  5679  052B  083C               	movf	_m_KeyNo,w
  5680  052C  00EA               	movwf	??__FuncStop
  5681  052D  086A               	movf	??__FuncStop,w
  5682  052E  00E4               	movwf	__ReqTxdEdit@buzreq
  5683  052F  083C               	movf	_m_KeyNo,w
  5684  0530  3183  2383  3184   	fcall	__ReqTxdEdit
  5685  0533                     l5317:
  5686                           
  5687                           ;../Projects/src/key_and_Other.c: 546:   m_TimerKeyMonitor = 0 ;
  5688  0533  0020               	movlb	0	; select bank0
  5689  0534  01AC               	clrf	_m_TimerKeyMonitor
  5690  0535  01AD               	clrf	_m_TimerKeyMonitor+1
  5691  0536  2D8B               	goto	l583
  5692  0537                     l5321:
  5693                           
  5694                           ;../Projects/src/key_and_Other.c: 551:  if ( m_KeyOptSetMode || m_RegMode )
  5695  0537  0840               	movf	_m_KeyOptSetMode,w
  5696  0538  1D03               	btfss	3,2
  5697  0539  2D3B               	goto	u3271
  5698  053A  2D3C               	goto	u3270
  5699  053B                     u3271:
  5700  053B  2D8B               	goto	l583
  5701  053C                     u3270:
  5702  053C                     l5323:
  5703  053C  084E               	movf	_m_RegMode,w
  5704  053D  1903               	btfsc	3,2
  5705  053E  2D40               	goto	u3281
  5706  053F  2D41               	goto	u3280
  5707  0540                     u3281:
  5708  0540  2D42               	goto	l5325
  5709  0541                     u3280:
  5710  0541  2D8B               	goto	l583
  5711  0542                     l5325:
  5712                           
  5713                           ;../Projects/src/key_and_Other.c: 556:  if ( m_KindOfKey == 2 )
  5714  0542  3002               	movlw	2
  5715  0543  0644               	xorwf	_m_KindOfKey,w
  5716  0544  1D03               	btfss	3,2
  5717  0545  2D47               	goto	u3291
  5718  0546  2D48               	goto	u3290
  5719  0547                     u3291:
  5720  0547  2D7B               	goto	l5357
  5721  0548                     u3290:
  5722  0548                     l5327:
  5723                           
  5724                           ;../Projects/src/key_and_Other.c: 557:  {;../Projects/src/key_and_Other.c: 558:   _Dupli
      +                          FuncClear() ;
  5725  0548  318A  224B  3184   	fcall	__DupliFuncClear
  5726  054B                     l5329:
  5727                           
  5728                           ;../Projects/src/key_and_Other.c: 559:   _ReqTxdEdit( m_KeyNo,m_KeyNo ) ;
  5729  054B  0020               	movlb	0	; select bank0
  5730  054C  083C               	movf	_m_KeyNo,w
  5731  054D  00EA               	movwf	??__FuncStop
  5732  054E  086A               	movf	??__FuncStop,w
  5733  054F  00E4               	movwf	__ReqTxdEdit@buzreq
  5734  0550  083C               	movf	_m_KeyNo,w
  5735  0551  3183  2383  3184   	fcall	__ReqTxdEdit
  5736  0554                     l5331:
  5737                           
  5738                           ;../Projects/src/key_and_Other.c: 560:   m_TimerKeyMonitor = 0 ;
  5739  0554  0020               	movlb	0	; select bank0
  5740  0555  01AC               	clrf	_m_TimerKeyMonitor
  5741  0556  01AD               	clrf	_m_TimerKeyMonitor+1
  5742  0557                     l5333:
  5743                           
  5744                           ;../Projects/src/key_and_Other.c: 561:   RAM_SW.BIT.Bit3=1;
  5745  0557  15C2               	bsf	_RAM_SW,3	;volatile
  5746  0558                     l5335:
  5747                           
  5748                           ;../Projects/src/key_and_Other.c: 562:   m_KeyDupli1stTimer = 3000 ;
  5749  0558  30B8               	movlw	184
  5750  0559  00A6               	movwf	_m_KeyDupli1stTimer
  5751  055A  300B               	movlw	11
  5752  055B  00A7               	movwf	_m_KeyDupli1stTimer+1
  5753  055C                     l5337:
  5754                           
  5755                           ;../Projects/src/key_and_Other.c: 563:   time_led=0;
  5756  055C  01A4               	clrf	_time_led
  5757  055D  01A5               	clrf	_time_led+1
  5758  055E  2D8B               	goto	l583
  5759  055F                     l603:	
  5760                           ;../Projects/src/key_and_Other.c: 594:   case 3 :
  5761                           
  5762                           
  5763                           ;../Projects/src/key_and_Other.c: 595:    if ( RAM_SW.BIT.Bit3 && m_KeyDupli1stTimer)
  5764  055F  1DC2               	btfss	_RAM_SW,3	;volatile
  5765  0560  2D62               	goto	u3301
  5766  0561  2D63               	goto	u3300
  5767  0562                     u3301:
  5768  0562  2D8B               	goto	l583
  5769  0563                     u3300:
  5770  0563                     l5341:
  5771  0563  0826               	movf	_m_KeyDupli1stTimer,w
  5772  0564  0427               	iorwf	_m_KeyDupli1stTimer+1,w
  5773  0565  1903               	btfsc	3,2
  5774  0566  2D68               	goto	u3311
  5775  0567  2D69               	goto	u3310
  5776  0568                     u3311:
  5777  0568  2D8B               	goto	l583
  5778  0569                     u3310:
  5779  0569                     l5343:
  5780                           
  5781                           ;../Projects/src/key_and_Other.c: 596:    {;../Projects/src/key_and_Other.c: 597:       
      +                               RAM_SW.BIT.Bit3=0;
  5782  0569  11C2               	bcf	_RAM_SW,3	;volatile
  5783  056A                     l5345:
  5784                           
  5785                           ;../Projects/src/key_and_Other.c: 598:     m_KeyDupli1stTimer=0;
  5786  056A  01A6               	clrf	_m_KeyDupli1stTimer
  5787  056B  01A7               	clrf	_m_KeyDupli1stTimer+1
  5788  056C                     l5347:
  5789                           
  5790                           ;../Projects/src/key_and_Other.c: 599:     _ReqTxdEdit( m_KeyNo,m_KeyNo ) ;
  5791  056C  083C               	movf	_m_KeyNo,w
  5792  056D  00EA               	movwf	??__FuncStop
  5793  056E  086A               	movf	??__FuncStop,w
  5794  056F  00E4               	movwf	__ReqTxdEdit@buzreq
  5795  0570  083C               	movf	_m_KeyNo,w
  5796  0571  3183  2383  3184   	fcall	__ReqTxdEdit
  5797  0574                     l5349:
  5798                           
  5799                           ;../Projects/src/key_and_Other.c: 600:     m_TimerKeyMonitor = 0 ;
  5800  0574  0020               	movlb	0	; select bank0
  5801  0575  01AC               	clrf	_m_TimerKeyMonitor
  5802  0576  01AD               	clrf	_m_TimerKeyMonitor+1
  5803  0577                     l5351:
  5804                           
  5805                           ;../Projects/src/key_and_Other.c: 601:     _DupliFuncClear() ;
  5806  0577  318A  224B  3184   	fcall	__DupliFuncClear
  5807  057A  2D8B               	goto	l583
  5808  057B                     l5357:
  5809  057B  0844               	movf	_m_KindOfKey,w
  5810  057C  00EA               	movwf	??__FuncStop
  5811  057D  01EB               	clrf	??__FuncStop+1
  5812                           
  5813                           ; Switch on 2 bytes has been partitioned into a top level switch of size 1, and 1 sub-sw
      +                          itches
  5814                           ; Switch size 1, requested type "simple"
  5815                           ; Number of cases is 1, Range of values is 0 to 0
  5816                           ; switch strategies available:
  5817                           ; Name         Instructions Cycles
  5818                           ; simple_byte            4     3 (average)
  5819                           ; direct_byte            8     6 (fixed)
  5820                           ; jumptable            260     6 (fixed)
  5821                           ;	Chosen strategy is simple_byte
  5822  057E  086B               	movf	??__FuncStop+1,w
  5823  057F  3A00               	xorlw	0	; case 0
  5824  0580  1903               	skipnz
  5825  0581  2D83               	goto	l6495
  5826  0582  2D8B               	goto	l583
  5827  0583                     l6495:
  5828                           
  5829                           ; Switch size 1, requested type "simple"
  5830                           ; Number of cases is 2, Range of values is 1 to 3
  5831                           ; switch strategies available:
  5832                           ; Name         Instructions Cycles
  5833                           ; simple_byte            7     4 (average)
  5834                           ; direct_byte           15     9 (fixed)
  5835                           ; jumptable            263     9 (fixed)
  5836                           ;	Chosen strategy is simple_byte
  5837  0583  086A               	movf	??__FuncStop,w
  5838  0584  3A01               	xorlw	1	; case 1
  5839  0585  1903               	skipnz
  5840  0586  2D5F               	goto	l603
  5841  0587  3A02               	xorlw	2	; case 3
  5842  0588  1903               	skipnz
  5843  0589  2D5F               	goto	l603
  5844  058A  2D8B               	goto	l583
  5845  058B                     l583:
  5846  058B  0008               	return
  5847  058C                     __end_of__FuncStop:
  5848                           
  5849                           	psect	text14
  5850  0A2C                     __ptext14:	
  5851 ;; *************** function __GetNoPushState *****************
  5852 ;; Defined at:
  5853 ;;		line 687 in file "../Projects/src/key_and_Other.c"
  5854 ;; Parameters:    Size  Location     Type
  5855 ;;		None
  5856 ;; Auto vars:     Size  Location     Type
  5857 ;;		None
  5858 ;; Return value:  Size  Location     Type
  5859 ;;                  1    wreg      unsigned char 
  5860 ;; Registers used:
  5861 ;;		wreg, status,2, status,0, pclath, cstack
  5862 ;; Tracked objects:
  5863 ;;		On entry : 0/0
  5864 ;;		On exit  : 0/0
  5865 ;;		Unchanged: 0/0
  5866 ;; Data sizes:     COMMON   BANK0   BANK1   BANK2   BANK3   BANK4   BANK5   BANK6   BANK7   BANK8   BANK9  BANK10  BANK1
      +1  BANK12
  5867 ;;      Params:         0       0       0       0       0       0       0       0       0       0       0       0       
      +0       0
  5868 ;;      Locals:         0       0       0       0       0       0       0       0       0       0       0       0       
      +0       0
  5869 ;;      Temps:          0       0       0       0       0       0       0       0       0       0       0       0       
      +0       0
  5870 ;;      Totals:         0       0       0       0       0       0       0       0       0       0       0       0       
      +0       0
  5871 ;;Total ram usage:        0 bytes
  5872 ;; Hardware stack levels used:    1
  5873 ;; Hardware stack levels required when called:    3
  5874 ;; This function calls:
  5875 ;;		__ClearSpecialMultiKeyState
  5876 ;; This function is called by:
  5877 ;;		__FuncStop
  5878 ;; This function uses a non-reentrant model
  5879 ;;
  5880                           
  5881                           
  5882                           ;psect for function __GetNoPushState
  5883  0A2C                     __GetNoPushState:
  5884  0A2C                     l3413:	
  5885                           ;incstack = 0
  5886                           ; Regs used in __GetNoPushState: [wreg+status,2+status,0+pclath+cstack]
  5887                           
  5888                           
  5889                           ;../Projects/src/key_and_Other.c: 689:  if ( !RAM_RegSW.BIT.Bit6 )
  5890  0A2C  0020               	movlb	0	; select bank0
  5891  0A2D  1B43               	btfsc	_RAM_RegSW,6	;volatile
  5892  0A2E  2A30               	goto	u791
  5893  0A2F  2A31               	goto	u790
  5894  0A30                     u791:
  5895  0A30  2A33               	goto	l627
  5896  0A31                     u790:
  5897  0A31                     l3415:
  5898                           
  5899                           ;../Projects/src/key_and_Other.c: 690:  {;../Projects/src/key_and_Other.c: 691:   return
      +                          (1) ;
  5900  0A31  3001               	movlw	1
  5901  0A32  2A3A               	goto	l628
  5902  0A33                     l627:	
  5903                           ;../Projects/src/key_and_Other.c: 692:  }
  5904                           
  5905                           
  5906                           ;../Projects/src/key_and_Other.c: 694:  RAM_RegSW.BIT.Bit6 = 0 ;
  5907  0A33  1343               	bcf	_RAM_RegSW,6	;volatile
  5908  0A34                     l3419:
  5909                           
  5910                           ;../Projects/src/key_and_Other.c: 699:  m_TimerKey = 0 ;
  5911  0A34  01AE               	clrf	_m_TimerKey
  5912  0A35  01AF               	clrf	_m_TimerKey+1
  5913  0A36                     l3421:
  5914                           
  5915                           ;../Projects/src/key_and_Other.c: 700:  _ClearSpecialMultiKeyState() ;
  5916  0A36  3189  21D6  318A   	fcall	__ClearSpecialMultiKeyState
  5917  0A39                     l3423:
  5918                           
  5919                           ;../Projects/src/key_and_Other.c: 701:  return(0) ;
  5920  0A39  3000               	movlw	0
  5921  0A3A                     l628:
  5922  0A3A  0008               	return
  5923  0A3B                     __end_of__GetNoPushState:
  5924                           
  5925                           	psect	text15
  5926  0DDF                     __ptext15:	
  5927 ;; *************** function __FuncReg *****************
  5928 ;; Defined at:
  5929 ;;		line 424 in file "../Projects/src/key_and_Other.c"
  5930 ;; Parameters:    Size  Location     Type
  5931 ;;		None
  5932 ;; Auto vars:     Size  Location     Type
  5933 ;;		None
  5934 ;; Return value:  Size  Location     Type
  5935 ;;                  1    wreg      void 
  5936 ;; Registers used:
  5937 ;;		wreg, fsr1l, fsr1h, status,2, status,0, pclath, cstack
  5938 ;; Tracked objects:
  5939 ;;		On entry : 0/0
  5940 ;;		On exit  : 0/0
  5941 ;;		Unchanged: 0/0
  5942 ;; Data sizes:     COMMON   BANK0   BANK1   BANK2   BANK3   BANK4   BANK5   BANK6   BANK7   BANK8   BANK9  BANK10  BANK1
      +1  BANK12
  5943 ;;      Params:         0       0       0       0       0       0       0       0       0       0       0       0       
      +0       0
  5944 ;;      Locals:         0       0       0       0       0       0       0       0       0       0       0       0       
      +0       0
  5945 ;;      Temps:          0       1       0       0       0       0       0       0       0       0       0       0       
      +0       0
  5946 ;;      Totals:         0       1       0       0       0       0       0       0       0       0       0       0       
      +0       0
  5947 ;;Total ram usage:        1 bytes
  5948 ;; Hardware stack levels used:    1
  5949 ;; Hardware stack levels required when called:    4
  5950 ;; This function calls:
  5951 ;;		__ClearSpecialMultiKeyState
  5952 ;;		__DupliFuncClear
  5953 ;;		__SetRegistrationMode
  5954 ;; This function is called by:
  5955 ;;		__KeyInTx
  5956 ;; This function uses a non-reentrant model
  5957 ;;
  5958                           
  5959                           
  5960                           ;psect for function __FuncReg
  5961  0DDF                     __FuncReg:
  5962  0DDF                     l5199:	
  5963                           ;incstack = 0
  5964                           ; Regs used in __FuncReg: [wreg+fsr1l+fsr1h+status,2+status,0+pclath+cstack]
  5965                           
  5966                           
  5967                           ;../Projects/src/key_and_Other.c: 426:  _DupliFuncClear() ;
  5968  0DDF  318A  224B  318D   	fcall	__DupliFuncClear
  5969  0DE2                     l5201:
  5970                           
  5971                           ;../Projects/src/key_and_Other.c: 427:  if ( RAM_RegSW.BIT.Bit6 )
  5972  0DE2  0020               	movlb	0	; select bank0
  5973  0DE3  1F43               	btfss	_RAM_RegSW,6	;volatile
  5974  0DE4  2DE6               	goto	u3051
  5975  0DE5  2DE7               	goto	u3050
  5976  0DE6                     u3051:
  5977  0DE6  2E1C               	goto	l565
  5978  0DE7                     u3050:
  5979  0DE7                     l5203:
  5980                           
  5981                           ;../Projects/src/key_and_Other.c: 428:  {;../Projects/src/key_and_Other.c: 429:   RAM_Re
      +                          gSW.BIT.Bit6 = 0 ;
  5982  0DE7  1343               	bcf	_RAM_RegSW,6	;volatile
  5983  0DE8                     l5205:
  5984                           
  5985                           ;../Projects/src/key_and_Other.c: 430:   m_KindOfKey = 5 ;
  5986  0DE8  3005               	movlw	5
  5987  0DE9  00D3               	movwf	??__FuncReg
  5988  0DEA  0853               	movf	??__FuncReg,w
  5989  0DEB  00C4               	movwf	_m_KindOfKey
  5990  0DEC                     l5207:
  5991                           
  5992                           ;../Projects/src/key_and_Other.c: 431:   _ClearSpecialMultiKeyState() ;
  5993  0DEC  3189  21D6  318D   	fcall	__ClearSpecialMultiKeyState
  5994  0DEF                     l5209:
  5995                           
  5996                           ;../Projects/src/key_and_Other.c: 432:   RAM_RegSW.BIT.Bit0 = 1 ;
  5997  0DEF  0020               	movlb	0	; select bank0
  5998  0DF0  1443               	bsf	_RAM_RegSW,0	;volatile
  5999  0DF1                     l5211:
  6000                           
  6001                           ;../Projects/src/key_and_Other.c: 433:   m_TimerKey = 3000 ;
  6002  0DF1  30B8               	movlw	184
  6003  0DF2  00AE               	movwf	_m_TimerKey
  6004  0DF3  300B               	movlw	11
  6005  0DF4  00AF               	movwf	_m_TimerKey+1
  6006  0DF5                     l5213:
  6007                           
  6008                           ;../Projects/src/key_and_Other.c: 434:   if ( !m_TimerKeyMonitor )
  6009  0DF5  082C               	movf	_m_TimerKeyMonitor,w
  6010  0DF6  042D               	iorwf	_m_TimerKeyMonitor+1,w
  6011  0DF7  1D03               	btfss	3,2
  6012  0DF8  2DFA               	goto	u3061
  6013  0DF9  2DFB               	goto	u3060
  6014  0DFA                     u3061:
  6015  0DFA  2E0E               	goto	l5223
  6016  0DFB                     u3060:
  6017  0DFB                     l5215:
  6018                           
  6019                           ;../Projects/src/key_and_Other.c: 435:   {;../Projects/src/key_and_Other.c: 436:        
      +                               if(RAM_OP1.BIT.Bit5==0){
  6020  0DFB  1AD1               	btfsc	_RAM_OP1,5	;volatile
  6021  0DFC  2DFE               	goto	u3071
  6022  0DFD  2DFF               	goto	u3070
  6023  0DFE                     u3071:
  6024  0DFE  2E05               	goto	l567
  6025  0DFF                     u3070:
  6026  0DFF                     l5217:
  6027                           
  6028                           ;../Projects/src/key_and_Other.c: 437:                       RAM_OP1.BIT.Bit5=1;
  6029  0DFF  16D1               	bsf	_RAM_OP1,5	;volatile
  6030                           
  6031                           ;../Projects/src/key_and_Other.c: 438:                       RB7=1;
  6032  0E00  178D               	bsf	13,7	;volatile
  6033  0E01                     l5219:
  6034                           
  6035                           ;../Projects/src/key_and_Other.c: 439:         TB_5s=51;
  6036  0E01  3033               	movlw	51
  6037  0E02  00D3               	movwf	??__FuncReg
  6038  0E03  0853               	movf	??__FuncReg,w
  6039  0E04  00C7               	movwf	_TB_5s
  6040  0E05                     l567:	
  6041                           ;../Projects/src/key_and_Other.c: 440:                           }
  6042                           
  6043                           
  6044                           ;../Projects/src/key_and_Other.c: 441:    m_TimerKeyMonitor = 10000 ;
  6045  0E05  3010               	movlw	16
  6046  0E06  00AC               	movwf	_m_TimerKeyMonitor
  6047  0E07  3027               	movlw	39
  6048  0E08  00AD               	movwf	_m_TimerKeyMonitor+1
  6049                           
  6050                           ;../Projects/src/key_and_Other.c: 442:    m_KeyCount = 2 ;
  6051  0E09  3002               	movlw	2
  6052  0E0A  00D3               	movwf	??__FuncReg
  6053  0E0B  0853               	movf	??__FuncReg,w
  6054  0E0C  00BB               	movwf	_m_KeyCount
  6055  0E0D  2E37               	goto	l568
  6056  0E0E                     l5223:
  6057                           
  6058                           ;../Projects/src/key_and_Other.c: 445:   if ( !--m_KeyCount )
  6059  0E0E  3001               	movlw	1
  6060  0E0F  02BB               	subwf	_m_KeyCount,f
  6061  0E10  1D03               	btfss	3,2
  6062  0E11  2E13               	goto	u3081
  6063  0E12  2E14               	goto	u3080
  6064  0E13                     u3081:
  6065  0E13  2E37               	goto	l568
  6066  0E14                     u3080:
  6067  0E14                     l5225:
  6068                           
  6069                           ;../Projects/src/key_and_Other.c: 446:   {;../Projects/src/key_and_Other.c: 447:    _Set
      +                          RegistrationMode( 1 ) ;
  6070  0E14  3001               	movlw	1
  6071  0E15  318B  23B1  318D   	fcall	__SetRegistrationMode
  6072  0E18                     l5227:
  6073                           
  6074                           ;../Projects/src/key_and_Other.c: 448:    m_KindOfKey = 0 ;
  6075  0E18  0020               	movlb	0	; select bank0
  6076  0E19  01C4               	clrf	_m_KindOfKey
  6077  0E1A                     l5229:
  6078                           
  6079                           ;../Projects/src/key_and_Other.c: 449:    RAM_RegSW.BIT.Bit7 = 1 ;
  6080  0E1A  17C3               	bsf	_RAM_RegSW,7	;volatile
  6081  0E1B  2E37               	goto	l568
  6082  0E1C                     l565:	
  6083                           ;../Projects/src/key_and_Other.c: 452:  }
  6084                           
  6085                           
  6086                           ;../Projects/src/key_and_Other.c: 455:  if ( RAM_RegSW.BIT.Bit0 )
  6087  0E1C  1C43               	btfss	_RAM_RegSW,0	;volatile
  6088  0E1D  2E1F               	goto	u3091
  6089  0E1E  2E20               	goto	u3090
  6090  0E1F                     u3091:
  6091  0E1F  2E37               	goto	l568
  6092  0E20                     u3090:
  6093  0E20                     l5233:
  6094                           
  6095                           ;../Projects/src/key_and_Other.c: 456:  {;../Projects/src/key_and_Other.c: 457:   if ( m
      +                          _TimerKey )
  6096  0E20  082E               	movf	_m_TimerKey,w
  6097  0E21  042F               	iorwf	_m_TimerKey+1,w
  6098  0E22  1903               	btfsc	3,2
  6099  0E23  2E25               	goto	u3101
  6100  0E24  2E26               	goto	u3100
  6101  0E25                     u3101:
  6102  0E25  2E37               	goto	l568
  6103  0E26                     u3100:
  6104  0E26                     l5235:
  6105                           
  6106                           ;../Projects/src/key_and_Other.c: 458:   {;../Projects/src/key_and_Other.c: 459:    if (
      +                           !--m_TimerKey )
  6107  0E26  3001               	movlw	1
  6108  0E27  02AE               	subwf	_m_TimerKey,f
  6109  0E28  3000               	movlw	0
  6110  0E29  3BAF               	subwfb	_m_TimerKey+1,f
  6111  0E2A  082E               	movf	_m_TimerKey,w
  6112  0E2B  042F               	iorwf	_m_TimerKey+1,w
  6113  0E2C  1D03               	btfss	3,2
  6114  0E2D  2E2F               	goto	u3111
  6115  0E2E  2E30               	goto	u3110
  6116  0E2F                     u3111:
  6117  0E2F  2E37               	goto	l568
  6118  0E30                     u3110:
  6119  0E30                     l5237:
  6120                           
  6121                           ;../Projects/src/key_and_Other.c: 460:    {;../Projects/src/key_and_Other.c: 461:     _S
      +                          etRegistrationMode( 2 ) ;
  6122  0E30  3002               	movlw	2
  6123  0E31  318B  23B1  318D   	fcall	__SetRegistrationMode
  6124  0E34                     l5239:
  6125                           
  6126                           ;../Projects/src/key_and_Other.c: 462:     m_KindOfKey = 0 ;
  6127  0E34  0020               	movlb	0	; select bank0
  6128  0E35  01C4               	clrf	_m_KindOfKey
  6129  0E36                     l5241:
  6130                           
  6131                           ;../Projects/src/key_and_Other.c: 463:     RAM_RegSW.BIT.Bit7 = 1 ;
  6132  0E36  17C3               	bsf	_RAM_RegSW,7	;volatile
  6133  0E37                     l568:
  6134  0E37  0008               	return
  6135  0E38                     __end_of__FuncReg:
  6136                           
  6137                           	psect	text16
  6138  0BB1                     __ptext16:	
  6139 ;; *************** function __SetRegistrationMode *****************
  6140 ;; Defined at:
  6141 ;;		line 1222 in file "../Projects/src/key_and_Other.c"
  6142 ;; Parameters:    Size  Location     Type
  6143 ;;  mode            1    wreg     unsigned char 
  6144 ;; Auto vars:     Size  Location     Type
  6145 ;;  mode            1    9[COMMON] unsigned char 
  6146 ;; Return value:  Size  Location     Type
  6147 ;;                  1    wreg      void 
  6148 ;; Registers used:
  6149 ;;		wreg, fsr1l, fsr1h, status,2, status,0, pclath, cstack
  6150 ;; Tracked objects:
  6151 ;;		On entry : 0/0
  6152 ;;		On exit  : 0/0
  6153 ;;		Unchanged: 0/0
  6154 ;; Data sizes:     COMMON   BANK0   BANK1   BANK2   BANK3   BANK4   BANK5   BANK6   BANK7   BANK8   BANK9  BANK10  BANK1
      +1  BANK12
  6155 ;;      Params:         0       0       0       0       0       0       0       0       0       0       0       0       
      +0       0
  6156 ;;      Locals:         1       0       0       0       0       0       0       0       0       0       0       0       
      +0       0
  6157 ;;      Temps:          1       0       0       0       0       0       0       0       0       0       0       0       
      +0       0
  6158 ;;      Totals:         2       0       0       0       0       0       0       0       0       0       0       0       
      +0       0
  6159 ;;Total ram usage:        2 bytes
  6160 ;; Hardware stack levels used:    1
  6161 ;; Hardware stack levels required when called:    3
  6162 ;; This function calls:
  6163 ;;		__GetRegMode
  6164 ;;		__IdClear
  6165 ;;		__ReqBuzzer
  6166 ;; This function is called by:
  6167 ;;		__FuncReg
  6168 ;; This function uses a non-reentrant model
  6169 ;;
  6170                           
  6171                           
  6172                           ;psect for function __SetRegistrationMode
  6173  0BB1                     __SetRegistrationMode:
  6174                           
  6175                           ;incstack = 0
  6176                           ; Regs used in __SetRegistrationMode: [wreg+fsr1l+fsr1h+status,2+status,0+pclath+cstack]
  6177                           ;__SetRegistrationMode@mode stored from wreg
  6178  0BB1  00F9               	movwf	__SetRegistrationMode@mode
  6179  0BB2                     l3401:
  6180                           
  6181                           ;../Projects/src/key_and_Other.c: 1222: void _SetRegistrationMode( unsigned char mode );
      +                          ../Projects/src/key_and_Other.c: 1223: {;../Projects/src/key_and_Other.c: 1224:  if ( _G
      +                          etRegMode() )
  6182  0BB2  3189  21CD  318B   	fcall	__GetRegMode
  6183  0BB5  3A00               	xorlw	0
  6184  0BB6  1903               	skipnz
  6185  0BB7  2BB9               	goto	u781
  6186  0BB8  2BBA               	goto	u780
  6187  0BB9                     u781:
  6188  0BB9  2BBB               	goto	l3405
  6189  0BBA                     u780:
  6190  0BBA  2BD2               	goto	l754
  6191  0BBB                     l3405:
  6192                           
  6193                           ;../Projects/src/key_and_Other.c: 1229:  m_RegMode = mode ;
  6194  0BBB  0879               	movf	__SetRegistrationMode@mode,w
  6195  0BBC  00F8               	movwf	??__SetRegistrationMode
  6196  0BBD  0878               	movf	??__SetRegistrationMode,w
  6197  0BBE  0020               	movlb	0	; select bank0
  6198  0BBF  00CE               	movwf	_m_RegMode
  6199  0BC0                     l3407:
  6200                           
  6201                           ;../Projects/src/key_and_Other.c: 1236:  _IdClear() ;
  6202  0BC0  3187  27E8  318B   	fcall	__IdClear
  6203  0BC3                     l3409:
  6204                           
  6205                           ;../Projects/src/key_and_Other.c: 1243:  _ReqBuzzer(1000,1,0);
  6206  0BC3  30E8               	movlw	232
  6207  0BC4  00F3               	movwf	__ReqBuzzer@BEEP_on_SET
  6208  0BC5  3003               	movlw	3
  6209  0BC6  00F4               	movwf	__ReqBuzzer@BEEP_on_SET+1
  6210  0BC7  01F5               	clrf	__ReqBuzzer@BEEP_off_SET
  6211  0BC8  0AF5               	incf	__ReqBuzzer@BEEP_off_SET,f
  6212  0BC9  01F6               	clrf	__ReqBuzzer@BEEP_freq_SET
  6213  0BCA  318B  2319  318B   	fcall	__ReqBuzzer
  6214  0BCD                     l3411:
  6215                           
  6216                           ;../Projects/src/key_and_Other.c: 1244:  m_TimerRegMode = 60000 ;
  6217  0BCD  3060               	movlw	96
  6218  0BCE  0020               	movlb	0	; select bank0
  6219  0BCF  00AA               	movwf	_m_TimerRegMode
  6220  0BD0  30EA               	movlw	234
  6221  0BD1  00AB               	movwf	_m_TimerRegMode+1
  6222  0BD2                     l754:
  6223  0BD2  0008               	return
  6224  0BD3                     __end_of__SetRegistrationMode:
  6225                           
  6226                           	psect	text17
  6227  07E8                     __ptext17:	
  6228 ;; *************** function __IdClear *****************
  6229 ;; Defined at:
  6230 ;;		line 1256 in file "../Projects/src/key_and_Other.c"
  6231 ;; Parameters:    Size  Location     Type
  6232 ;;		None
  6233 ;; Auto vars:     Size  Location     Type
  6234 ;;  i               1    4[COMMON] unsigned char 
  6235 ;; Return value:  Size  Location     Type
  6236 ;;                  1    wreg      void 
  6237 ;; Registers used:
  6238 ;;		wreg, fsr1l, fsr1h, status,2, status,0
  6239 ;; Tracked objects:
  6240 ;;		On entry : 0/0
  6241 ;;		On exit  : 0/0
  6242 ;;		Unchanged: 0/0
  6243 ;; Data sizes:     COMMON   BANK0   BANK1   BANK2   BANK3   BANK4   BANK5   BANK6   BANK7   BANK8   BANK9  BANK10  BANK1
      +1  BANK12
  6244 ;;      Params:         0       0       0       0       0       0       0       0       0       0       0       0       
      +0       0
  6245 ;;      Locals:         1       0       0       0       0       0       0       0       0       0       0       0       
      +0       0
  6246 ;;      Temps:          1       0       0       0       0       0       0       0       0       0       0       0       
      +0       0
  6247 ;;      Totals:         2       0       0       0       0       0       0       0       0       0       0       0       
      +0       0
  6248 ;;Total ram usage:        2 bytes
  6249 ;; Hardware stack levels used:    1
  6250 ;; Hardware stack levels required when called:    2
  6251 ;; This function calls:
  6252 ;;		Nothing
  6253 ;; This function is called by:
  6254 ;;		__RegistrationMode
  6255 ;;		__SetRegistrationMode
  6256 ;; This function uses a non-reentrant model
  6257 ;;
  6258                           
  6259                           
  6260                           ;psect for function __IdClear
  6261  07E8                     __IdClear:
  6262  07E8                     l3365:	
  6263                           ;incstack = 0
  6264                           ; Regs used in __IdClear: [wreg+fsr1l+fsr1h+status,2+status,0]
  6265                           
  6266                           
  6267                           ;../Projects/src/key_and_Other.c: 1258:  register unsigned char i ;;../Projects/src/key_
      +                          and_Other.c: 1260:  m_RegDigit = 0 ;
  6268  07E8  0020               	movlb	0	; select bank0
  6269  07E9  01B7               	clrf	_m_RegDigit
  6270                           
  6271                           ;../Projects/src/key_and_Other.c: 1262:  for ( i=0; i<8; i++ )
  6272  07EA  01F4               	clrf	__IdClear@i
  6273  07EB                     l3371:
  6274                           
  6275                           ;../Projects/src/key_and_Other.c: 1263:  {;../Projects/src/key_and_Other.c: 1264:   m_Re
      +                          gID[i] = '0' ;
  6276  07EB  3030               	movlw	48
  6277  07EC  00F3               	movwf	??__IdClear
  6278  07ED  0874               	movf	__IdClear@i,w
  6279  07EE  3EDC               	addlw	(low (_m_RegID| 0))& (0+255)
  6280  07EF  0086               	movwf	6
  6281  07F0  0187               	clrf	7
  6282  07F1  0873               	movf	??__IdClear,w
  6283  07F2  0081               	movwf	1
  6284  07F3                     l3373:
  6285                           
  6286                           ;../Projects/src/key_and_Other.c: 1265:  }
  6287  07F3  3001               	movlw	1
  6288  07F4  00F3               	movwf	??__IdClear
  6289  07F5  0873               	movf	??__IdClear,w
  6290  07F6  07F4               	addwf	__IdClear@i,f
  6291  07F7                     l3375:
  6292  07F7  3008               	movlw	8
  6293  07F8  0274               	subwf	__IdClear@i,w
  6294  07F9  1C03               	skipc
  6295  07FA  2FFC               	goto	u741
  6296  07FB  2FFD               	goto	u740
  6297  07FC                     u741:
  6298  07FC  2FEB               	goto	l3371
  6299  07FD                     u740:
  6300  07FD                     l3377:
  6301                           
  6302                           ;../Projects/src/key_and_Other.c: 1266:  m_RegID[8] = 0 ;
  6303  07FD  0021               	movlb	1	; select bank1
  6304  07FE  01E4               	clrf	(_m_RegID^(0+128)+8)
  6305  07FF                     l762:
  6306  07FF  0008               	return
  6307  0800                     __end_of__IdClear:
  6308                           
  6309                           	psect	text18
  6310  09CD                     __ptext18:	
  6311 ;; *************** function __GetRegMode *****************
  6312 ;; Defined at:
  6313 ;;		line 1246 in file "../Projects/src/key_and_Other.c"
  6314 ;; Parameters:    Size  Location     Type
  6315 ;;		None
  6316 ;; Auto vars:     Size  Location     Type
  6317 ;;		None
  6318 ;; Return value:  Size  Location     Type
  6319 ;;                  1    wreg      unsigned char 
  6320 ;; Registers used:
  6321 ;;		wreg
  6322 ;; Tracked objects:
  6323 ;;		On entry : 0/0
  6324 ;;		On exit  : 0/0
  6325 ;;		Unchanged: 0/0
  6326 ;; Data sizes:     COMMON   BANK0   BANK1   BANK2   BANK3   BANK4   BANK5   BANK6   BANK7   BANK8   BANK9  BANK10  BANK1
      +1  BANK12
  6327 ;;      Params:         0       0       0       0       0       0       0       0       0       0       0       0       
      +0       0
  6328 ;;      Locals:         0       0       0       0       0       0       0       0       0       0       0       0       
      +0       0
  6329 ;;      Temps:          0       0       0       0       0       0       0       0       0       0       0       0       
      +0       0
  6330 ;;      Totals:         0       0       0       0       0       0       0       0       0       0       0       0       
      +0       0
  6331 ;;Total ram usage:        0 bytes
  6332 ;; Hardware stack levels used:    1
  6333 ;; Hardware stack levels required when called:    2
  6334 ;; This function calls:
  6335 ;;		Nothing
  6336 ;; This function is called by:
  6337 ;;		__RegistrationMode
  6338 ;;		__SetRegistrationMode
  6339 ;; This function uses a non-reentrant model
  6340 ;;
  6341                           
  6342                           
  6343                           ;psect for function __GetRegMode
  6344  09CD                     __GetRegMode:
  6345  09CD                     l3361:	
  6346                           ;incstack = 0
  6347                           ; Regs used in __GetRegMode: [wreg]
  6348                           
  6349                           
  6350                           ;../Projects/src/key_and_Other.c: 1248:  return( m_RegMode ) ;
  6351  09CD  0020               	movlb	0	; select bank0
  6352  09CE  084E               	movf	_m_RegMode,w
  6353  09CF                     l757:
  6354  09CF  0008               	return
  6355  09D0                     __end_of__GetRegMode:
  6356                           
  6357                           	psect	text19
  6358  0A5E                     __ptext19:	
  6359 ;; *************** function __FuncOpenStop *****************
  6360 ;; Defined at:
  6361 ;;		line 305 in file "../Projects/src/key_and_Other.c"
  6362 ;; Parameters:    Size  Location     Type
  6363 ;;		None
  6364 ;; Auto vars:     Size  Location     Type
  6365 ;;		None
  6366 ;; Return value:  Size  Location     Type
  6367 ;;                  1    wreg      void 
  6368 ;; Registers used:
  6369 ;;		wreg, fsr0l, fsr0h, fsr1l, fsr1h, status,2, status,0, pclath, cstack
  6370 ;; Tracked objects:
  6371 ;;		On entry : 0/0
  6372 ;;		On exit  : 0/0
  6373 ;;		Unchanged: 0/0
  6374 ;; Data sizes:     COMMON   BANK0   BANK1   BANK2   BANK3   BANK4   BANK5   BANK6   BANK7   BANK8   BANK9  BANK10  BANK1
      +1  BANK12
  6375 ;;      Params:         0       0       0       0       0       0       0       0       0       0       0       0       
      +0       0
  6376 ;;      Locals:         0       0       0       0       0       0       0       0       0       0       0       0       
      +0       0
  6377 ;;      Temps:          0       1       0       0       0       0       0       0       0       0       0       0       
      +0       0
  6378 ;;      Totals:         0       1       0       0       0       0       0       0       0       0       0       0       
      +0       0
  6379 ;;Total ram usage:        1 bytes
  6380 ;; Hardware stack levels used:    1
  6381 ;; Hardware stack levels required when called:    6
  6382 ;; This function calls:
  6383 ;;		__ClearSpecialMultiKeyState
  6384 ;;		__DupliFuncClear
  6385 ;;		__ReqTxdEdit
  6386 ;; This function is called by:
  6387 ;;		__KeyInTx
  6388 ;; This function uses a non-reentrant model
  6389 ;;
  6390                           
  6391                           
  6392                           ;psect for function __FuncOpenStop
  6393  0A5E                     __FuncOpenStop:
  6394  0A5E                     l5367:	
  6395                           ;incstack = 0
  6396                           ; Regs used in __FuncOpenStop: [wreg-fsr1h+status,2+status,0+pclath+cstack]
  6397                           
  6398                           
  6399                           ;../Projects/src/key_and_Other.c: 307:  _DupliFuncClear() ;
  6400  0A5E  318A  224B  318A   	fcall	__DupliFuncClear
  6401  0A61                     l5369:
  6402                           
  6403                           ;../Projects/src/key_and_Other.c: 308:  m_KindOfKey = 0 ;
  6404  0A61  0020               	movlb	0	; select bank0
  6405  0A62  01C4               	clrf	_m_KindOfKey
  6406  0A63                     l5371:
  6407                           
  6408                           ;../Projects/src/key_and_Other.c: 309:  _ReqTxdEdit( m_KeyNo,m_KeyNo ) ;
  6409  0A63  083C               	movf	_m_KeyNo,w
  6410  0A64  00EA               	movwf	??__FuncOpenStop
  6411  0A65  086A               	movf	??__FuncOpenStop,w
  6412  0A66  00E4               	movwf	__ReqTxdEdit@buzreq
  6413  0A67  083C               	movf	_m_KeyNo,w
  6414  0A68  3183  2383  318A   	fcall	__ReqTxdEdit
  6415  0A6B                     l5373:
  6416                           
  6417                           ;../Projects/src/key_and_Other.c: 310:  _ClearSpecialMultiKeyState() ;
  6418  0A6B  3189  21D6  318A   	fcall	__ClearSpecialMultiKeyState
  6419  0A6E                     l5375:
  6420                           
  6421                           ;../Projects/src/key_and_Other.c: 311:  RAM_RegSW.BIT.Bit6 = 0 ;
  6422  0A6E  0020               	movlb	0	; select bank0
  6423  0A6F  1343               	bcf	_RAM_RegSW,6	;volatile
  6424  0A70                     l5377:
  6425                           
  6426                           ;../Projects/src/key_and_Other.c: 312:  RAM_RegSW.BIT.Bit7 = 1 ;
  6427  0A70  17C3               	bsf	_RAM_RegSW,7	;volatile
  6428  0A71                     l537:
  6429  0A71  0008               	return
  6430  0A72                     __end_of__FuncOpenStop:
  6431                           
  6432                           	psect	text20
  6433  0B37                     __ptext20:	
  6434 ;; *************** function __FuncOpenReg *****************
  6435 ;; Defined at:
  6436 ;;		line 320 in file "../Projects/src/key_and_Other.c"
  6437 ;; Parameters:    Size  Location     Type
  6438 ;;		None
  6439 ;; Auto vars:     Size  Location     Type
  6440 ;;		None
  6441 ;; Return value:  Size  Location     Type
  6442 ;;                  1    wreg      void 
  6443 ;; Registers used:
  6444 ;;		wreg, fsr0l, fsr0h, fsr1l, fsr1h, status,2, status,0, pclath, cstack
  6445 ;; Tracked objects:
  6446 ;;		On entry : 0/0
  6447 ;;		On exit  : 0/0
  6448 ;;		Unchanged: 0/0
  6449 ;; Data sizes:     COMMON   BANK0   BANK1   BANK2   BANK3   BANK4   BANK5   BANK6   BANK7   BANK8   BANK9  BANK10  BANK1
      +1  BANK12
  6450 ;;      Params:         0       0       0       0       0       0       0       0       0       0       0       0       
      +0       0
  6451 ;;      Locals:         0       0       0       0       0       0       0       0       0       0       0       0       
      +0       0
  6452 ;;      Temps:          0       1       0       0       0       0       0       0       0       0       0       0       
      +0       0
  6453 ;;      Totals:         0       1       0       0       0       0       0       0       0       0       0       0       
      +0       0
  6454 ;;Total ram usage:        1 bytes
  6455 ;; Hardware stack levels used:    1
  6456 ;; Hardware stack levels required when called:    7
  6457 ;; This function calls:
  6458 ;;		__DupliFuncClear
  6459 ;;		__Pass3secKey
  6460 ;; This function is called by:
  6461 ;;		__KeyInTx
  6462 ;; This function uses a non-reentrant model
  6463 ;;
  6464                           
  6465                           
  6466                           ;psect for function __FuncOpenReg
  6467  0B37                     __FuncOpenReg:
  6468  0B37                     l5379:	
  6469                           ;incstack = 0
  6470                           ; Regs used in __FuncOpenReg: [wreg-fsr1h+status,2+status,0+pclath+cstack]
  6471                           
  6472                           
  6473                           ;../Projects/src/key_and_Other.c: 322:  _DupliFuncClear() ;
  6474  0B37  318A  224B  318B   	fcall	__DupliFuncClear
  6475  0B3A                     l5381:
  6476                           
  6477                           ;../Projects/src/key_and_Other.c: 323:  RAM_RegSW.BIT.Bit6 = 0 ;
  6478  0B3A  0020               	movlb	0	; select bank0
  6479  0B3B  1343               	bcf	_RAM_RegSW,6	;volatile
  6480  0B3C                     l5383:
  6481                           
  6482                           ;../Projects/src/key_and_Other.c: 324:  if ( !RAM_RegSW.BIT.Bit2 )
  6483  0B3C  1943               	btfsc	_RAM_RegSW,2	;volatile
  6484  0B3D  2B3F               	goto	u3321
  6485  0B3E  2B40               	goto	u3320
  6486  0B3F                     u3321:
  6487  0B3F  2B50               	goto	l5397
  6488  0B40                     u3320:
  6489  0B40                     l5385:
  6490                           
  6491                           ;../Projects/src/key_and_Other.c: 325:  {;../Projects/src/key_and_Other.c: 326:   RAM_Re
      +                          gSW.BIT.Bit2 = 1 ;
  6492  0B40  1543               	bsf	_RAM_RegSW,2	;volatile
  6493  0B41                     l5387:
  6494                           
  6495                           ;../Projects/src/key_and_Other.c: 327:   m_TimerKey = 3000 ;
  6496  0B41  30B8               	movlw	184
  6497  0B42  00AE               	movwf	_m_TimerKey
  6498  0B43  300B               	movlw	11
  6499  0B44  00AF               	movwf	_m_TimerKey+1
  6500  0B45                     l5389:
  6501                           
  6502                           ;../Projects/src/key_and_Other.c: 328:   if(RAM_OP1.BIT.Bit5==0){
  6503  0B45  1AD1               	btfsc	_RAM_OP1,5	;volatile
  6504  0B46  2B48               	goto	u3331
  6505  0B47  2B49               	goto	u3330
  6506  0B48                     u3331:
  6507  0B48  2B54               	goto	l542
  6508  0B49                     u3330:
  6509  0B49                     l5391:
  6510                           
  6511                           ;../Projects/src/key_and_Other.c: 329:             RAM_OP1.BIT.Bit5=1;
  6512  0B49  16D1               	bsf	_RAM_OP1,5	;volatile
  6513                           
  6514                           ;../Projects/src/key_and_Other.c: 330:             RB7=1;
  6515  0B4A  178D               	bsf	13,7	;volatile
  6516  0B4B                     l5393:
  6517                           
  6518                           ;../Projects/src/key_and_Other.c: 331:             TB_5s=78;
  6519  0B4B  304E               	movlw	78
  6520  0B4C  00EB               	movwf	??__FuncOpenReg
  6521  0B4D  086B               	movf	??__FuncOpenReg,w
  6522  0B4E  00C7               	movwf	_TB_5s
  6523  0B4F  2B54               	goto	l542
  6524  0B50                     l5397:
  6525                           
  6526                           ;../Projects/src/key_and_Other.c: 336:  _Pass3secKey( 8 ) ;
  6527  0B50  3008               	movlw	8
  6528  0B51  318A  228B  318B   	fcall	__Pass3secKey
  6529  0B54                     l542:
  6530  0B54  0008               	return
  6531  0B55                     __end_of__FuncOpenReg:
  6532                           
  6533                           	psect	text21
  6534  0A3B                     __ptext21:	
  6535 ;; *************** function __FuncNoPush *****************
  6536 ;; Defined at:
  6537 ;;		line 617 in file "../Projects/src/key_and_Other.c"
  6538 ;; Parameters:    Size  Location     Type
  6539 ;;		None
  6540 ;; Auto vars:     Size  Location     Type
  6541 ;;		None
  6542 ;; Return value:  Size  Location     Type
  6543 ;;                  1    wreg      void 
  6544 ;; Registers used:
  6545 ;;		wreg, status,2, status,0, pclath, cstack
  6546 ;; Tracked objects:
  6547 ;;		On entry : 0/0
  6548 ;;		On exit  : 0/0
  6549 ;;		Unchanged: 0/0
  6550 ;; Data sizes:     COMMON   BANK0   BANK1   BANK2   BANK3   BANK4   BANK5   BANK6   BANK7   BANK8   BANK9  BANK10  BANK1
      +1  BANK12
  6551 ;;      Params:         0       0       0       0       0       0       0       0       0       0       0       0       
      +0       0
  6552 ;;      Locals:         0       0       0       0       0       0       0       0       0       0       0       0       
      +0       0
  6553 ;;      Temps:          1       0       0       0       0       0       0       0       0       0       0       0       
      +0       0
  6554 ;;      Totals:         1       0       0       0       0       0       0       0       0       0       0       0       
      +0       0
  6555 ;;Total ram usage:        1 bytes
  6556 ;; Hardware stack levels used:    1
  6557 ;; Hardware stack levels required when called:    3
  6558 ;; This function calls:
  6559 ;;		__ClearSpecialMultiKeyState
  6560 ;; This function is called by:
  6561 ;;		__KeyInTx
  6562 ;; This function uses a non-reentrant model
  6563 ;;
  6564                           
  6565                           
  6566                           ;psect for function __FuncNoPush
  6567  0A3B                     __FuncNoPush:
  6568  0A3B                     l3719:	
  6569                           ;incstack = 0
  6570                           ; Regs used in __FuncNoPush: [wreg+status,2+status,0+pclath+cstack]
  6571                           
  6572                           
  6573                           ;../Projects/src/key_and_Other.c: 619:  RAM_SW.BIT.Bit0 = 0 ;
  6574  0A3B  0020               	movlb	0	; select bank0
  6575  0A3C  1042               	bcf	_RAM_SW,0	;volatile
  6576                           
  6577                           ;../Projects/src/key_and_Other.c: 620:  RAM_SW.BIT.Bit1 = 0 ;
  6578  0A3D  10C2               	bcf	_RAM_SW,1	;volatile
  6579                           
  6580                           ;../Projects/src/key_and_Other.c: 621:  RAM_SW.BIT.Bit2 = 0 ;
  6581  0A3E  1142               	bcf	_RAM_SW,2	;volatile
  6582                           
  6583                           ;../Projects/src/key_and_Other.c: 622:  RAM_SW.BIT.Bit6=0;
  6584  0A3F  1342               	bcf	_RAM_SW,6	;volatile
  6585  0A40                     l3721:
  6586                           
  6587                           ;../Projects/src/key_and_Other.c: 624:  _ClearSpecialMultiKeyState() ;
  6588  0A40  3189  21D6  318A   	fcall	__ClearSpecialMultiKeyState
  6589  0A43                     l3723:
  6590                           
  6591                           ;../Projects/src/key_and_Other.c: 625:  RAM_RegSW.BIT.Bit6 = 1 ;
  6592  0A43  0020               	movlb	0	; select bank0
  6593  0A44  1743               	bsf	_RAM_RegSW,6	;volatile
  6594  0A45                     l3725:
  6595                           
  6596                           ;../Projects/src/key_and_Other.c: 626:  RAM_RegSW.BIT.Bit7 = 0 ;
  6597  0A45  13C3               	bcf	_RAM_RegSW,7	;volatile
  6598  0A46                     l3727:
  6599                           
  6600                           ;../Projects/src/key_and_Other.c: 627:  m_KindOfKey = 0xFF;
  6601  0A46  30FF               	movlw	255
  6602  0A47  00F3               	movwf	??__FuncNoPush
  6603  0A48  0873               	movf	??__FuncNoPush,w
  6604  0A49  00C4               	movwf	_m_KindOfKey
  6605  0A4A                     l614:
  6606  0A4A  0008               	return
  6607  0A4B                     __end_of__FuncNoPush:
  6608                           
  6609                           	psect	text22
  6610  0AC2                     __ptext22:	
  6611 ;; *************** function __FuncCloseReg *****************
  6612 ;; Defined at:
  6613 ;;		line 344 in file "../Projects/src/key_and_Other.c"
  6614 ;; Parameters:    Size  Location     Type
  6615 ;;		None
  6616 ;; Auto vars:     Size  Location     Type
  6617 ;;		None
  6618 ;; Return value:  Size  Location     Type
  6619 ;;                  1    wreg      void 
  6620 ;; Registers used:
  6621 ;;		wreg, fsr0l, fsr0h, fsr1l, fsr1h, status,2, status,0, pclath, cstack
  6622 ;; Tracked objects:
  6623 ;;		On entry : 0/0
  6624 ;;		On exit  : 0/0
  6625 ;;		Unchanged: 0/0
  6626 ;; Data sizes:     COMMON   BANK0   BANK1   BANK2   BANK3   BANK4   BANK5   BANK6   BANK7   BANK8   BANK9  BANK10  BANK1
      +1  BANK12
  6627 ;;      Params:         0       0       0       0       0       0       0       0       0       0       0       0       
      +0       0
  6628 ;;      Locals:         0       0       0       0       0       0       0       0       0       0       0       0       
      +0       0
  6629 ;;      Temps:          0       1       0       0       0       0       0       0       0       0       0       0       
      +0       0
  6630 ;;      Totals:         0       1       0       0       0       0       0       0       0       0       0       0       
      +0       0
  6631 ;;Total ram usage:        1 bytes
  6632 ;; Hardware stack levels used:    1
  6633 ;; Hardware stack levels required when called:    7
  6634 ;; This function calls:
  6635 ;;		__DupliFuncClear
  6636 ;;		__Pass3secKey
  6637 ;; This function is called by:
  6638 ;;		__KeyInTx
  6639 ;; This function uses a non-reentrant model
  6640 ;;
  6641                           
  6642                           
  6643                           ;psect for function __FuncCloseReg
  6644  0AC2                     __FuncCloseReg:
  6645  0AC2                     l5417:	
  6646                           ;incstack = 0
  6647                           ; Regs used in __FuncCloseReg: [wreg-fsr1h+status,2+status,0+pclath+cstack]
  6648                           
  6649                           
  6650                           ;../Projects/src/key_and_Other.c: 346:  _DupliFuncClear() ;
  6651  0AC2  318A  224B  318A   	fcall	__DupliFuncClear
  6652  0AC5                     l5419:
  6653                           
  6654                           ;../Projects/src/key_and_Other.c: 347:  if ( !RAM_RegSW.BIT.Bit3 )
  6655  0AC5  0020               	movlb	0	; select bank0
  6656  0AC6  19C3               	btfsc	_RAM_RegSW,3	;volatile
  6657  0AC7  2AC9               	goto	u3361
  6658  0AC8  2ACA               	goto	u3360
  6659  0AC9                     u3361:
  6660  0AC9  2ADA               	goto	l5433
  6661  0ACA                     u3360:
  6662  0ACA                     l5421:
  6663                           
  6664                           ;../Projects/src/key_and_Other.c: 348:  {;../Projects/src/key_and_Other.c: 349:   RAM_Re
      +                          gSW.BIT.Bit3 = 1 ;
  6665  0ACA  15C3               	bsf	_RAM_RegSW,3	;volatile
  6666  0ACB                     l5423:
  6667                           
  6668                           ;../Projects/src/key_and_Other.c: 350:   m_TimerKey = 3000 ;
  6669  0ACB  30B8               	movlw	184
  6670  0ACC  00AE               	movwf	_m_TimerKey
  6671  0ACD  300B               	movlw	11
  6672  0ACE  00AF               	movwf	_m_TimerKey+1
  6673  0ACF                     l5425:
  6674                           
  6675                           ;../Projects/src/key_and_Other.c: 351:   if(RAM_OP1.BIT.Bit5==0){
  6676  0ACF  1AD1               	btfsc	_RAM_OP1,5	;volatile
  6677  0AD0  2AD2               	goto	u3371
  6678  0AD1  2AD3               	goto	u3370
  6679  0AD2                     u3371:
  6680  0AD2  2ADE               	goto	l547
  6681  0AD3                     u3370:
  6682  0AD3                     l5427:
  6683                           
  6684                           ;../Projects/src/key_and_Other.c: 352:             RAM_OP1.BIT.Bit5=1;
  6685  0AD3  16D1               	bsf	_RAM_OP1,5	;volatile
  6686                           
  6687                           ;../Projects/src/key_and_Other.c: 353:             RB7=1;
  6688  0AD4  178D               	bsf	13,7	;volatile
  6689  0AD5                     l5429:
  6690                           
  6691                           ;../Projects/src/key_and_Other.c: 354:             TB_5s=78;
  6692  0AD5  304E               	movlw	78
  6693  0AD6  00EB               	movwf	??__FuncCloseReg
  6694  0AD7  086B               	movf	??__FuncCloseReg,w
  6695  0AD8  00C7               	movwf	_TB_5s
  6696  0AD9  2ADE               	goto	l547
  6697  0ADA                     l5433:
  6698                           
  6699                           ;../Projects/src/key_and_Other.c: 359:  _Pass3secKey( 11 ) ;
  6700  0ADA  300B               	movlw	11
  6701  0ADB  318A  228B  318A   	fcall	__Pass3secKey
  6702  0ADE                     l547:
  6703  0ADE  0008               	return
  6704  0ADF                     __end_of__FuncCloseReg:
  6705                           
  6706                           	psect	text23
  6707  0A8B                     __ptext23:	
  6708 ;; *************** function __Pass3secKey *****************
  6709 ;; Defined at:
  6710 ;;		line 407 in file "../Projects/src/key_and_Other.c"
  6711 ;; Parameters:    Size  Location     Type
  6712 ;;  req             1    wreg     unsigned char 
  6713 ;; Auto vars:     Size  Location     Type
  6714 ;;  req             1   23[BANK0 ] unsigned char 
  6715 ;; Return value:  Size  Location     Type
  6716 ;;                  1    wreg      void 
  6717 ;; Registers used:
  6718 ;;		wreg, fsr0l, fsr0h, fsr1l, fsr1h, status,2, status,0, pclath, cstack
  6719 ;; Tracked objects:
  6720 ;;		On entry : 0/0
  6721 ;;		On exit  : 0/0
  6722 ;;		Unchanged: 0/0
  6723 ;; Data sizes:     COMMON   BANK0   BANK1   BANK2   BANK3   BANK4   BANK5   BANK6   BANK7   BANK8   BANK9  BANK10  BANK1
      +1  BANK12
  6724 ;;      Params:         0       0       0       0       0       0       0       0       0       0       0       0       
      +0       0
  6725 ;;      Locals:         0       1       0       0       0       0       0       0       0       0       0       0       
      +0       0
  6726 ;;      Temps:          0       0       0       0       0       0       0       0       0       0       0       0       
      +0       0
  6727 ;;      Totals:         0       1       0       0       0       0       0       0       0       0       0       0       
      +0       0
  6728 ;;Total ram usage:        1 bytes
  6729 ;; Hardware stack levels used:    1
  6730 ;; Hardware stack levels required when called:    6
  6731 ;; This function calls:
  6732 ;;		__ReqTxdEdit
  6733 ;; This function is called by:
  6734 ;;		__FuncOpenReg
  6735 ;;		__FuncCloseReg
  6736 ;;		__FuncVentReg
  6737 ;;		__FuncStopReg
  6738 ;; This function uses a non-reentrant model
  6739 ;;
  6740                           
  6741                           
  6742                           ;psect for function __Pass3secKey
  6743  0A8B                     __Pass3secKey:
  6744                           
  6745                           ;incstack = 0
  6746                           ; Regs used in __Pass3secKey: [wreg-fsr1h+status,2+status,0+pclath+cstack]
  6747                           ;__Pass3secKey@req stored from wreg
  6748  0A8B  0020               	movlb	0	; select bank0
  6749  0A8C  00EA               	movwf	__Pass3secKey@req
  6750  0A8D                     l5167:
  6751                           
  6752                           ;../Projects/src/key_and_Other.c: 407: void _Pass3secKey( unsigned char req );../Project
      +                          s/src/key_and_Other.c: 408: {;../Projects/src/key_and_Other.c: 409:  if ( m_TimerKey )
  6753  0A8D  082E               	movf	_m_TimerKey,w
  6754  0A8E  042F               	iorwf	_m_TimerKey+1,w
  6755  0A8F  1903               	btfsc	3,2
  6756  0A90  2A92               	goto	u2981
  6757  0A91  2A93               	goto	u2980
  6758  0A92                     u2981:
  6759  0A92  2AA4               	goto	l562
  6760  0A93                     u2980:
  6761  0A93                     l5169:
  6762                           
  6763                           ;../Projects/src/key_and_Other.c: 410:  {;../Projects/src/key_and_Other.c: 411:   if ( !
      +                          --m_TimerKey )
  6764  0A93  3001               	movlw	1
  6765  0A94  02AE               	subwf	_m_TimerKey,f
  6766  0A95  3000               	movlw	0
  6767  0A96  3BAF               	subwfb	_m_TimerKey+1,f
  6768  0A97  082E               	movf	_m_TimerKey,w
  6769  0A98  042F               	iorwf	_m_TimerKey+1,w
  6770  0A99  1D03               	btfss	3,2
  6771  0A9A  2A9C               	goto	u2991
  6772  0A9B  2A9D               	goto	u2990
  6773  0A9C                     u2991:
  6774  0A9C  2AA4               	goto	l562
  6775  0A9D                     u2990:
  6776  0A9D                     l5171:
  6777                           
  6778                           ;../Projects/src/key_and_Other.c: 412:   {;../Projects/src/key_and_Other.c: 413:    _Req
      +                          TxdEdit( req,0 ) ;
  6779  0A9D  01E4               	clrf	__ReqTxdEdit@buzreq
  6780  0A9E  086A               	movf	__Pass3secKey@req,w
  6781  0A9F  3183  2383  318A   	fcall	__ReqTxdEdit
  6782  0AA2                     l5173:
  6783                           
  6784                           ;../Projects/src/key_and_Other.c: 414:                         RAM_SW.BIT.Bit7=1;
  6785  0AA2  0020               	movlb	0	; select bank0
  6786  0AA3  17C2               	bsf	_RAM_SW,7	;volatile
  6787  0AA4                     l562:
  6788  0AA4  0008               	return
  6789  0AA5                     __end_of__Pass3secKey:
  6790                           
  6791                           	psect	text24
  6792  0383                     __ptext24:	
  6793 ;; *************** function __ReqTxdEdit *****************
  6794 ;; Defined at:
  6795 ;;		line 703 in file "../Projects/src/key_and_Other.c"
  6796 ;; Parameters:    Size  Location     Type
  6797 ;;  txreq           1    wreg     unsigned char 
  6798 ;;  buzreq          1   17[BANK0 ] unsigned char 
  6799 ;; Auto vars:     Size  Location     Type
  6800 ;;  txreq           1   21[BANK0 ] unsigned char 
  6801 ;;  time_key        1   22[BANK0 ] unsigned char 
  6802 ;; Return value:  Size  Location     Type
  6803 ;;                  1    wreg      void 
  6804 ;; Registers used:
  6805 ;;		wreg, fsr0l, fsr0h, fsr1l, fsr1h, status,2, status,0, pclath, cstack
  6806 ;; Tracked objects:
  6807 ;;		On entry : 0/0
  6808 ;;		On exit  : 0/0
  6809 ;;		Unchanged: 0/0
  6810 ;; Data sizes:     COMMON   BANK0   BANK1   BANK2   BANK3   BANK4   BANK5   BANK6   BANK7   BANK8   BANK9  BANK10  BANK1
      +1  BANK12
  6811 ;;      Params:         0       1       0       0       0       0       0       0       0       0       0       0       
      +0       0
  6812 ;;      Locals:         0       2       0       0       0       0       0       0       0       0       0       0       
      +0       0
  6813 ;;      Temps:          0       3       0       0       0       0       0       0       0       0       0       0       
      +0       0
  6814 ;;      Totals:         0       6       0       0       0       0       0       0       0       0       0       0       
      +0       0
  6815 ;;Total ram usage:        6 bytes
  6816 ;; Hardware stack levels used:    1
  6817 ;; Hardware stack levels required when called:    5
  6818 ;; This function calls:
  6819 ;;		_SendTxData
  6820 ;;		__ReqBuzzer
  6821 ;;		_dd_set_ADF7021_Power_on
  6822 ;;		_dd_set_TX_mode
  6823 ;; This function is called by:
  6824 ;;		__FuncOpenStop
  6825 ;;		__Pass3secKey
  6826 ;;		__FuncStop
  6827 ;;		__RegistrationMode
  6828 ;; This function uses a non-reentrant model
  6829 ;;
  6830                           
  6831                           
  6832                           ;psect for function __ReqTxdEdit
  6833  0383                     __ReqTxdEdit:
  6834                           
  6835                           ;incstack = 0
  6836                           ; Regs used in __ReqTxdEdit: [wreg-fsr1h+status,2+status,0+pclath+cstack]
  6837                           ;__ReqTxdEdit@txreq stored from wreg
  6838  0383  0020               	movlb	0	; select bank0
  6839  0384  00E8               	movwf	__ReqTxdEdit@txreq
  6840  0385                     l5099:
  6841                           
  6842                           ;../Projects/src/key_and_Other.c: 703: void _ReqTxdEdit( unsigned char txreq , unsigned 
      +                          char buzreq );../Projects/src/key_and_Other.c: 704: {;../Projects/src/key_and_Other.c: 7
      +                          05:   unsigned char time_key;;../Projects/src/key_and_Other.c: 706:   if((TB_sum_5s<69)&
      +                          &(RAM_OP1.BIT.Bit5==1)&&(TB_5s<25)){
  6843  0385  3045               	movlw	69
  6844  0386  0238               	subwf	_TB_sum_5s,w
  6845  0387  1803               	skipnc
  6846  0388  2B8A               	goto	u2911
  6847  0389  2B8B               	goto	u2910
  6848  038A                     u2911:
  6849  038A  2BB8               	goto	l631
  6850  038B                     u2910:
  6851  038B                     l5101:
  6852  038B  1ED1               	btfss	_RAM_OP1,5	;volatile
  6853  038C  2B8E               	goto	u2921
  6854  038D  2B8F               	goto	u2920
  6855  038E                     u2921:
  6856  038E  2BB8               	goto	l631
  6857  038F                     u2920:
  6858  038F                     l5103:
  6859  038F  3019               	movlw	25
  6860  0390  0247               	subwf	_TB_5s,w
  6861  0391  1803               	skipnc
  6862  0392  2B94               	goto	u2931
  6863  0393  2B95               	goto	u2930
  6864  0394                     u2931:
  6865  0394  2BB8               	goto	l631
  6866  0395                     u2930:
  6867  0395                     l5105:
  6868                           
  6869                           ;../Projects/src/key_and_Other.c: 707:     time_key=25-TB_5s;
  6870  0395  0847               	movf	_TB_5s,w
  6871  0396  3C19               	sublw	25
  6872  0397  00E5               	movwf	??__ReqTxdEdit
  6873  0398  0865               	movf	??__ReqTxdEdit,w
  6874  0399  00E9               	movwf	__ReqTxdEdit@time_key
  6875                           
  6876                           ;../Projects/src/key_and_Other.c: 708:     TB_sum_5s=TB_sum_5s+time_key;
  6877  039A  0838               	movf	_TB_sum_5s,w
  6878  039B  0769               	addwf	__ReqTxdEdit@time_key,w
  6879  039C  00E5               	movwf	??__ReqTxdEdit
  6880  039D  0865               	movf	??__ReqTxdEdit,w
  6881  039E  00B8               	movwf	_TB_sum_5s
  6882                           
  6883                           ;../Projects/src/key_and_Other.c: 709:     if((69-TB_sum_5s)>=27)TB_5s=25;
  6884  039F  3000               	movlw	0
  6885  03A0  00E6               	movwf	??__ReqTxdEdit+1
  6886  03A1  0838               	movf	_TB_sum_5s,w
  6887  03A2  3C45               	sublw	69
  6888  03A3  00E5               	movwf	??__ReqTxdEdit
  6889  03A4  1C03               	skipc
  6890  03A5  03E6               	decf	??__ReqTxdEdit+1,f
  6891  03A6  0866               	movf	??__ReqTxdEdit+1,w
  6892  03A7  3A80               	xorlw	128
  6893  03A8  00E7               	movwf	??__ReqTxdEdit+2
  6894  03A9  3080               	movlw	128
  6895  03AA  0267               	subwf	??__ReqTxdEdit+2,w
  6896  03AB  1D03               	skipz
  6897  03AC  2BAF               	goto	u2945
  6898  03AD  301B               	movlw	27
  6899  03AE  0265               	subwf	??__ReqTxdEdit,w
  6900  03AF                     u2945:
  6901  03AF  1C03               	skipc
  6902  03B0  2BB2               	goto	u2941
  6903  03B1  2BB3               	goto	u2940
  6904  03B2                     u2941:
  6905  03B2  2BB8               	goto	l631
  6906  03B3                     u2940:
  6907  03B3                     l5107:
  6908  03B3  3019               	movlw	25
  6909  03B4  0020               	movlb	0	; select bank0
  6910  03B5  00E5               	movwf	??__ReqTxdEdit
  6911  03B6  0865               	movf	??__ReqTxdEdit,w
  6912  03B7  00C7               	movwf	_TB_5s
  6913  03B8                     l631:	
  6914                           ;../Projects/src/key_and_Other.c: 711:   }
  6915                           
  6916                           
  6917                           ;../Projects/src/key_and_Other.c: 712:   if((TB_5s>=25)||(TIME_2s_RestTX==0)){
  6918  03B8  3019               	movlw	25
  6919  03B9  0020               	movlb	0	; select bank0
  6920  03BA  0247               	subwf	_TB_5s,w
  6921  03BB  1803               	skipnc
  6922  03BC  2BBE               	goto	u2951
  6923  03BD  2BBF               	goto	u2950
  6924  03BE                     u2951:
  6925  03BE  2BC4               	goto	l635
  6926  03BF                     u2950:
  6927  03BF                     l5109:
  6928  03BF  0841               	movf	_TIME_2s_RestTX,w
  6929  03C0  1D03               	btfss	3,2
  6930  03C1  2BC3               	goto	u2961
  6931  03C2  2BC4               	goto	u2960
  6932  03C3                     u2961:
  6933  03C3  2C90               	goto	l633
  6934  03C4                     u2960:
  6935  03C4                     l635:
  6936                           
  6937                           ;../Projects/src/key_and_Other.c: 713:         if(RAM_OP1.BIT.Bit5==0){
  6938  03C4  1AD1               	btfsc	_RAM_OP1,5	;volatile
  6939  03C5  2BC7               	goto	u2971
  6940  03C6  2BC8               	goto	u2970
  6941  03C7                     u2971:
  6942  03C7  2BFF               	goto	l5135
  6943  03C8                     u2970:
  6944  03C8                     l5111:
  6945                           
  6946                           ;../Projects/src/key_and_Other.c: 714:  RAM_OP1.BIT.Bit5=1;
  6947  03C8  16D1               	bsf	_RAM_OP1,5	;volatile
  6948                           
  6949                           ;../Projects/src/key_and_Other.c: 715:  RB7=1;
  6950  03C9  178D               	bsf	13,7	;volatile
  6951  03CA                     l5113:
  6952                           
  6953                           ;../Projects/src/key_and_Other.c: 716:  TB_5s=TB_51s;
  6954  03CA  0848               	movf	_TB_51s,w
  6955  03CB  00E5               	movwf	??__ReqTxdEdit
  6956  03CC  0865               	movf	??__ReqTxdEdit,w
  6957  03CD  00C7               	movwf	_TB_5s
  6958  03CE  2BFF               	goto	l5135
  6959  03CF                     l5115:
  6960                           
  6961                           ;../Projects/src/key_and_Other.c: 721:           Control_code=0x08;
  6962  03CF  3008               	movlw	8
  6963  03D0  00E5               	movwf	??__ReqTxdEdit
  6964  03D1  0865               	movf	??__ReqTxdEdit,w
  6965  03D2  00CD               	movwf	_Control_code
  6966                           
  6967                           ;../Projects/src/key_and_Other.c: 722:    break ;
  6968  03D3  2C68               	goto	l5149
  6969  03D4                     l5117:
  6970                           
  6971                           ;../Projects/src/key_and_Other.c: 724:           Control_code=0x04;
  6972  03D4  3004               	movlw	4
  6973  03D5  00E5               	movwf	??__ReqTxdEdit
  6974  03D6  0865               	movf	??__ReqTxdEdit,w
  6975  03D7  00CD               	movwf	_Control_code
  6976                           
  6977                           ;../Projects/src/key_and_Other.c: 725:    break ;
  6978  03D8  2C68               	goto	l5149
  6979  03D9                     l5119:
  6980                           
  6981                           ;../Projects/src/key_and_Other.c: 727:           Control_code=0x02;
  6982  03D9  3002               	movlw	2
  6983  03DA  00E5               	movwf	??__ReqTxdEdit
  6984  03DB  0865               	movf	??__ReqTxdEdit,w
  6985  03DC  00CD               	movwf	_Control_code
  6986                           
  6987                           ;../Projects/src/key_and_Other.c: 728:    break ;
  6988  03DD  2C68               	goto	l5149
  6989  03DE                     l642:	
  6990                           ;../Projects/src/key_and_Other.c: 729:   case 4 :
  6991                           
  6992                           
  6993                           ;../Projects/src/key_and_Other.c: 730:           Control_code=0x01;
  6994  03DE  01CD               	clrf	_Control_code
  6995  03DF  0ACD               	incf	_Control_code,f
  6996                           
  6997                           ;../Projects/src/key_and_Other.c: 731:    break ;
  6998  03E0  2C68               	goto	l5149
  6999  03E1                     l5121:
  7000                           
  7001                           ;../Projects/src/key_and_Other.c: 733:           Control_code=0x14;
  7002  03E1  3014               	movlw	20
  7003  03E2  00E5               	movwf	??__ReqTxdEdit
  7004  03E3  0865               	movf	??__ReqTxdEdit,w
  7005  03E4  00CD               	movwf	_Control_code
  7006                           
  7007                           ;../Projects/src/key_and_Other.c: 734:    break ;
  7008  03E5  2C68               	goto	l5149
  7009  03E6                     l5123:
  7010                           
  7011                           ;../Projects/src/key_and_Other.c: 736:           Control_code=0x0C;
  7012  03E6  300C               	movlw	12
  7013  03E7  00E5               	movwf	??__ReqTxdEdit
  7014  03E8  0865               	movf	??__ReqTxdEdit,w
  7015  03E9  00CD               	movwf	_Control_code
  7016                           
  7017                           ;../Projects/src/key_and_Other.c: 737:           break ;
  7018  03EA  2C68               	goto	l5149
  7019  03EB                     l5125:
  7020                           
  7021                           ;../Projects/src/key_and_Other.c: 739:          Control_code=0x0A;
  7022  03EB  300A               	movlw	10
  7023  03EC  00E5               	movwf	??__ReqTxdEdit
  7024  03ED  0865               	movf	??__ReqTxdEdit,w
  7025  03EE  00CD               	movwf	_Control_code
  7026                           
  7027                           ;../Projects/src/key_and_Other.c: 740:           break ;
  7028  03EF  2C68               	goto	l5149
  7029  03F0                     l5127:
  7030                           
  7031                           ;../Projects/src/key_and_Other.c: 742:          Control_code=0x09;
  7032  03F0  3009               	movlw	9
  7033  03F1  00E5               	movwf	??__ReqTxdEdit
  7034  03F2  0865               	movf	??__ReqTxdEdit,w
  7035  03F3  00CD               	movwf	_Control_code
  7036                           
  7037                           ;../Projects/src/key_and_Other.c: 743:           break ;
  7038  03F4  2C68               	goto	l5149
  7039  03F5                     l5129:
  7040                           
  7041                           ;../Projects/src/key_and_Other.c: 745:          Control_code=0x06;
  7042  03F5  3006               	movlw	6
  7043  03F6  00E5               	movwf	??__ReqTxdEdit
  7044  03F7  0865               	movf	??__ReqTxdEdit,w
  7045  03F8  00CD               	movwf	_Control_code
  7046                           
  7047                           ;../Projects/src/key_and_Other.c: 746:           break ;
  7048  03F9  2C68               	goto	l5149
  7049  03FA                     l5131:
  7050                           
  7051                           ;../Projects/src/key_and_Other.c: 748:          Control_code=0x03;
  7052  03FA  3003               	movlw	3
  7053  03FB  00E5               	movwf	??__ReqTxdEdit
  7054  03FC  0865               	movf	??__ReqTxdEdit,w
  7055  03FD  00CD               	movwf	_Control_code
  7056                           
  7057                           ;../Projects/src/key_and_Other.c: 749:           break ;
  7058  03FE  2C68               	goto	l5149
  7059  03FF                     l5135:
  7060  03FF  0868               	movf	__ReqTxdEdit@txreq,w
  7061  0400  00E5               	movwf	??__ReqTxdEdit
  7062  0401  01E6               	clrf	??__ReqTxdEdit+1
  7063                           
  7064                           ; Switch on 2 bytes has been partitioned into a top level switch of size 1, and 1 sub-sw
      +                          itches
  7065                           ; Switch size 1, requested type "simple"
  7066                           ; Number of cases is 1, Range of values is 0 to 0
  7067                           ; switch strategies available:
  7068                           ; Name         Instructions Cycles
  7069                           ; simple_byte            4     3 (average)
  7070                           ; direct_byte            8     6 (fixed)
  7071                           ; jumptable            260     6 (fixed)
  7072                           ;	Chosen strategy is simple_byte
  7073  0402  0866               	movf	??__ReqTxdEdit+1,w
  7074  0403  3A00               	xorlw	0	; case 0
  7075  0404  1903               	skipnz
  7076  0405  2C07               	goto	l6497
  7077  0406  2C68               	goto	l5149
  7078  0407                     l6497:
  7079                           
  7080                           ; Switch size 1, requested type "simple"
  7081                           ; Number of cases is 10, Range of values is 1 to 12
  7082                           ; switch strategies available:
  7083                           ; Name         Instructions Cycles
  7084                           ; simple_byte           31    16 (average)
  7085                           ; direct_byte           33     9 (fixed)
  7086                           ; jumptable            263     9 (fixed)
  7087                           ;	Chosen strategy is simple_byte
  7088  0407  0865               	movf	??__ReqTxdEdit,w
  7089  0408  3A01               	xorlw	1	; case 1
  7090  0409  1903               	skipnz
  7091  040A  2BCF               	goto	l5115
  7092  040B  3A03               	xorlw	3	; case 2
  7093  040C  1903               	skipnz
  7094  040D  2BD4               	goto	l5117
  7095  040E  3A01               	xorlw	1	; case 3
  7096  040F  1903               	skipnz
  7097  0410  2BD9               	goto	l5119
  7098  0411  3A07               	xorlw	7	; case 4
  7099  0412  1903               	skipnz
  7100  0413  2BDE               	goto	l642
  7101  0414  3A01               	xorlw	1	; case 5
  7102  0415  1903               	skipnz
  7103  0416  2BE6               	goto	l5123
  7104  0417  3A03               	xorlw	3	; case 6
  7105  0418  1903               	skipnz
  7106  0419  2BEB               	goto	l5125
  7107  041A  3A01               	xorlw	1	; case 7
  7108  041B  1903               	skipnz
  7109  041C  2BF0               	goto	l5127
  7110  041D  3A0E               	xorlw	14	; case 9
  7111  041E  1903               	skipnz
  7112  041F  2BF5               	goto	l5129
  7113  0420  3A03               	xorlw	3	; case 10
  7114  0421  1903               	skipnz
  7115  0422  2BE1               	goto	l5121
  7116  0423  3A06               	xorlw	6	; case 12
  7117  0424  1903               	skipnz
  7118  0425  2BFA               	goto	l5131
  7119  0426  2C68               	goto	l5149
  7120  0427                     l5137:
  7121                           
  7122                           ;../Projects/src/key_and_Other.c: 754:          _ReqBuzzer(103,103,0);
  7123  0427  3067               	movlw	103
  7124  0428  00F3               	movwf	__ReqBuzzer@BEEP_on_SET
  7125  0429  3000               	movlw	0
  7126  042A  00F4               	movwf	__ReqBuzzer@BEEP_on_SET+1
  7127  042B  3067               	movlw	103
  7128  042C  00E5               	movwf	??__ReqTxdEdit
  7129  042D  0865               	movf	??__ReqTxdEdit,w
  7130  042E  00F5               	movwf	__ReqBuzzer@BEEP_off_SET
  7131  042F  01F6               	clrf	__ReqBuzzer@BEEP_freq_SET
  7132  0430  318B  2319  3183   	fcall	__ReqBuzzer
  7133                           
  7134                           ;../Projects/src/key_and_Other.c: 758:    break ;
  7135  0433  2C81               	goto	l5151
  7136  0434                     l5139:
  7137                           
  7138                           ;../Projects/src/key_and_Other.c: 760:          _ReqBuzzer(103,103,1);
  7139  0434  3067               	movlw	103
  7140  0435  00F3               	movwf	__ReqBuzzer@BEEP_on_SET
  7141  0436  3000               	movlw	0
  7142  0437  00F4               	movwf	__ReqBuzzer@BEEP_on_SET+1
  7143  0438  3067               	movlw	103
  7144  0439  00E5               	movwf	??__ReqTxdEdit
  7145  043A  0865               	movf	??__ReqTxdEdit,w
  7146  043B  00F5               	movwf	__ReqBuzzer@BEEP_off_SET
  7147  043C  01F6               	clrf	__ReqBuzzer@BEEP_freq_SET
  7148  043D  0AF6               	incf	__ReqBuzzer@BEEP_freq_SET,f
  7149  043E  318B  2319  3183   	fcall	__ReqBuzzer
  7150                           
  7151                           ;../Projects/src/key_and_Other.c: 764:    break ;
  7152  0441  2C81               	goto	l5151
  7153  0442                     l5141:
  7154                           
  7155                           ;../Projects/src/key_and_Other.c: 766:         _ReqBuzzer(103,103,2);
  7156  0442  3067               	movlw	103
  7157  0443  00F3               	movwf	__ReqBuzzer@BEEP_on_SET
  7158  0444  3000               	movlw	0
  7159  0445  00F4               	movwf	__ReqBuzzer@BEEP_on_SET+1
  7160  0446  3067               	movlw	103
  7161  0447  00E5               	movwf	??__ReqTxdEdit
  7162  0448  0865               	movf	??__ReqTxdEdit,w
  7163  0449  00F5               	movwf	__ReqBuzzer@BEEP_off_SET
  7164  044A  3002               	movlw	2
  7165  044B  00E6               	movwf	??__ReqTxdEdit+1
  7166  044C  0866               	movf	??__ReqTxdEdit+1,w
  7167  044D  00F6               	movwf	__ReqBuzzer@BEEP_freq_SET
  7168  044E  318B  2319  3183   	fcall	__ReqBuzzer
  7169                           
  7170                           ;../Projects/src/key_and_Other.c: 770:    break ;
  7171  0451  2C81               	goto	l5151
  7172  0452                     l5143:
  7173                           
  7174                           ;../Projects/src/key_and_Other.c: 772:         _ReqBuzzer(500,1,0);
  7175  0452  30F4               	movlw	244
  7176  0453  00F3               	movwf	__ReqBuzzer@BEEP_on_SET
  7177  0454  3001               	movlw	1
  7178  0455  00F4               	movwf	__ReqBuzzer@BEEP_on_SET+1
  7179  0456  01F5               	clrf	__ReqBuzzer@BEEP_off_SET
  7180  0457  0AF5               	incf	__ReqBuzzer@BEEP_off_SET,f
  7181  0458  01F6               	clrf	__ReqBuzzer@BEEP_freq_SET
  7182  0459  318B  2319  3183   	fcall	__ReqBuzzer
  7183                           
  7184                           ;../Projects/src/key_and_Other.c: 773:         break ;
  7185  045C  2C81               	goto	l5151
  7186  045D                     l5145:
  7187                           
  7188                           ;../Projects/src/key_and_Other.c: 775:          _ReqBuzzer(1000,1,0);
  7189  045D  30E8               	movlw	232
  7190  045E  00F3               	movwf	__ReqBuzzer@BEEP_on_SET
  7191  045F  3003               	movlw	3
  7192  0460  00F4               	movwf	__ReqBuzzer@BEEP_on_SET+1
  7193  0461  01F5               	clrf	__ReqBuzzer@BEEP_off_SET
  7194  0462  0AF5               	incf	__ReqBuzzer@BEEP_off_SET,f
  7195  0463  01F6               	clrf	__ReqBuzzer@BEEP_freq_SET
  7196  0464  318B  2319  3183   	fcall	__ReqBuzzer
  7197                           
  7198                           ;../Projects/src/key_and_Other.c: 779:    break ;
  7199  0467  2C81               	goto	l5151
  7200  0468                     l5149:
  7201  0468  0864               	movf	__ReqTxdEdit@buzreq,w
  7202  0469  00E5               	movwf	??__ReqTxdEdit
  7203  046A  01E6               	clrf	??__ReqTxdEdit+1
  7204                           
  7205                           ; Switch on 2 bytes has been partitioned into a top level switch of size 1, and 1 sub-sw
      +                          itches
  7206                           ; Switch size 1, requested type "simple"
  7207                           ; Number of cases is 1, Range of values is 0 to 0
  7208                           ; switch strategies available:
  7209                           ; Name         Instructions Cycles
  7210                           ; simple_byte            4     3 (average)
  7211                           ; direct_byte            8     6 (fixed)
  7212                           ; jumptable            260     6 (fixed)
  7213                           ;	Chosen strategy is simple_byte
  7214  046B  0866               	movf	??__ReqTxdEdit+1,w
  7215  046C  3A00               	xorlw	0	; case 0
  7216  046D  1903               	skipnz
  7217  046E  2C70               	goto	l6499
  7218  046F  2C81               	goto	l5151
  7219  0470                     l6499:
  7220                           
  7221                           ; Switch size 1, requested type "simple"
  7222                           ; Number of cases is 5, Range of values is 1 to 20
  7223                           ; switch strategies available:
  7224                           ; Name         Instructions Cycles
  7225                           ; simple_byte           16     9 (average)
  7226                           ; direct_byte           49     9 (fixed)
  7227                           ; jumptable            263     9 (fixed)
  7228                           ;	Chosen strategy is simple_byte
  7229  0470  0865               	movf	??__ReqTxdEdit,w
  7230  0471  3A01               	xorlw	1	; case 1
  7231  0472  1903               	skipnz
  7232  0473  2C27               	goto	l5137
  7233  0474  3A03               	xorlw	3	; case 2
  7234  0475  1903               	skipnz
  7235  0476  2C34               	goto	l5139
  7236  0477  3A01               	xorlw	1	; case 3
  7237  0478  1903               	skipnz
  7238  0479  2C42               	goto	l5141
  7239  047A  3A07               	xorlw	7	; case 4
  7240  047B  1903               	skipnz
  7241  047C  2C52               	goto	l5143
  7242  047D  3A10               	xorlw	16	; case 20
  7243  047E  1903               	skipnz
  7244  047F  2C5D               	goto	l5145
  7245  0480  2C81               	goto	l5151
  7246  0481                     l5151:
  7247                           
  7248                           ;../Projects/src/key_and_Other.c: 781:         dd_set_ADF7021_Power_on();
  7249  0481  3189  21E4  3183   	fcall	_dd_set_ADF7021_Power_on
  7250  0484                     l5153:
  7251                           
  7252                           ;../Projects/src/key_and_Other.c: 782:         dd_set_TX_mode();
  7253  0484  318D  2587  3183   	fcall	_dd_set_TX_mode
  7254  0487                     l5155:
  7255                           
  7256                           ;../Projects/src/key_and_Other.c: 785:         SendTxData();
  7257  0487  318F  272A  3183   	fcall	_SendTxData
  7258  048A                     l5157:
  7259                           
  7260                           ;../Projects/src/key_and_Other.c: 786:         TIME_2s_RestTX=25;
  7261  048A  3019               	movlw	25
  7262  048B  0020               	movlb	0	; select bank0
  7263  048C  00E5               	movwf	??__ReqTxdEdit
  7264  048D  0865               	movf	??__ReqTxdEdit,w
  7265  048E  00C1               	movwf	_TIME_2s_RestTX
  7266                           
  7267                           ;../Projects/src/key_and_Other.c: 787:   }
  7268  048F  2C91               	goto	l657
  7269  0490                     l633:	
  7270                           ;../Projects/src/key_and_Other.c: 788:   else RB5=0;
  7271                           
  7272  0490  128D               	bcf	13,5	;volatile
  7273  0491                     l657:
  7274  0491  0008               	return
  7275  0492                     __end_of__ReqTxdEdit:
  7276                           
  7277                           	psect	text25
  7278  0D87                     __ptext25:	
  7279 ;; *************** function _dd_set_TX_mode *****************
  7280 ;; Defined at:
  7281 ;;		line 100 in file "../Projects/src/adf7012.c"
  7282 ;; Parameters:    Size  Location     Type
  7283 ;;		None
  7284 ;; Auto vars:     Size  Location     Type
  7285 ;;  register_val    4    0[BANK0 ] struct .
  7286 ;; Return value:  Size  Location     Type
  7287 ;;                  1    wreg      void 
  7288 ;; Registers used:
  7289 ;;		wreg, fsr1l, fsr1h, status,2, status,0, pclath, cstack
  7290 ;; Tracked objects:
  7291 ;;		On entry : 0/0
  7292 ;;		On exit  : 0/0
  7293 ;;		Unchanged: 0/0
  7294 ;; Data sizes:     COMMON   BANK0   BANK1   BANK2   BANK3   BANK4   BANK5   BANK6   BANK7   BANK8   BANK9  BANK10  BANK1
      +1  BANK12
  7295 ;;      Params:         0       0       0       0       0       0       0       0       0       0       0       0       
      +0       0
  7296 ;;      Locals:         0       4       0       0       0       0       0       0       0       0       0       0       
      +0       0
  7297 ;;      Temps:          0       0       0       0       0       0       0       0       0       0       0       0       
      +0       0
  7298 ;;      Totals:         0       4       0       0       0       0       0       0       0       0       0       0       
      +0       0
  7299 ;;Total ram usage:        4 bytes
  7300 ;; Hardware stack levels used:    1
  7301 ;; Hardware stack levels required when called:    3
  7302 ;; This function calls:
  7303 ;;		_Delayus
  7304 ;;		_dd_write_7021_reg
  7305 ;; This function is called by:
  7306 ;;		__ReqTxdEdit
  7307 ;;		_test_mode_control
  7308 ;; This function uses a non-reentrant model
  7309 ;;
  7310                           
  7311                           
  7312                           ;psect for function _dd_set_TX_mode
  7313  0D87                     _dd_set_TX_mode:
  7314  0D87                     l5075:	
  7315                           ;incstack = 0
  7316                           ; Regs used in _dd_set_TX_mode: [wreg+fsr1l+fsr1h+status,2+status,0+pclath+cstack]
  7317                           
  7318                           
  7319                           ;../Projects/src/adf7012.c: 175:       ADF70XX_REG_T register_value;;../Projects/src/adf
      +                          7012.c: 178:       register_value.whole_reg = ROM_adf7012_value[0].whole_reg;
  7320  0D87  0021               	movlb	1	; select bank1
  7321  0D88  084F               	movf	(_ROM_adf7012_value+3)^(0+128),w
  7322  0D89  0020               	movlb	0	; select bank0
  7323  0D8A  00D6               	movwf	dd_set_TX_mode@register_value+3
  7324  0D8B  0021               	movlb	1	; select bank1
  7325  0D8C  084E               	movf	(_ROM_adf7012_value+2)^(0+128),w
  7326  0D8D  0020               	movlb	0	; select bank0
  7327  0D8E  00D5               	movwf	dd_set_TX_mode@register_value+2
  7328  0D8F  0021               	movlb	1	; select bank1
  7329  0D90  084D               	movf	(_ROM_adf7012_value+1)^(0+128),w
  7330  0D91  0020               	movlb	0	; select bank0
  7331  0D92  00D4               	movwf	dd_set_TX_mode@register_value+1
  7332  0D93  0021               	movlb	1	; select bank1
  7333  0D94  084C               	movf	_ROM_adf7012_value^(0+128),w
  7334  0D95  0020               	movlb	0	; select bank0
  7335  0D96  00D3               	movwf	dd_set_TX_mode@register_value
  7336  0D97                     l5077:
  7337                           
  7338                           ;../Projects/src/adf7012.c: 179:       dd_write_7021_reg(&register_value.byte[0]);
  7339  0D97  3053               	movlw	(low (dd_set_TX_mode@register_value| 0))& (0+255)
  7340  0D98  318C  242A  318D   	fcall	_dd_write_7021_reg
  7341  0D9B                     l5079:
  7342                           
  7343                           ;../Projects/src/adf7012.c: 180:       Delayus(25);
  7344  0D9B  3019               	movlw	25
  7345  0D9C  318A  221D  318D   	fcall	_Delayus
  7346  0D9F                     l5081:
  7347                           
  7348                           ;../Projects/src/adf7012.c: 183:       register_value.whole_reg = ROM_adf7012_value[1].w
      +                          hole_reg;
  7349  0D9F  3004               	movlw	4
  7350  0DA0  3ECC               	addlw	(low (_ROM_adf7012_value| 0))& (0+255)
  7351  0DA1  0086               	movwf	6
  7352  0DA2  0187               	clrf	7
  7353  0DA3  3F40               	moviw [0]fsr1
  7354  0DA4  0020               	movlb	0	; select bank0
  7355  0DA5  00D3               	movwf	dd_set_TX_mode@register_value
  7356  0DA6  3F41               	moviw [1]fsr1
  7357  0DA7  00D4               	movwf	dd_set_TX_mode@register_value+1
  7358  0DA8  3F42               	moviw [2]fsr1
  7359  0DA9  00D5               	movwf	dd_set_TX_mode@register_value+2
  7360  0DAA  3F43               	moviw [3]fsr1
  7361  0DAB  00D6               	movwf	dd_set_TX_mode@register_value+3
  7362  0DAC                     l5083:
  7363                           
  7364                           ;../Projects/src/adf7012.c: 184:       dd_write_7021_reg(&register_value.byte[0]);
  7365  0DAC  3053               	movlw	(low (dd_set_TX_mode@register_value| 0))& (0+255)
  7366  0DAD  318C  242A  318D   	fcall	_dd_write_7021_reg
  7367  0DB0                     l5085:
  7368                           
  7369                           ;../Projects/src/adf7012.c: 185:       Delayus(25);
  7370  0DB0  3019               	movlw	25
  7371  0DB1  318A  221D  318D   	fcall	_Delayus
  7372  0DB4                     l5087:
  7373                           
  7374                           ;../Projects/src/adf7012.c: 188:       register_value.whole_reg = ROM_adf7012_value[2].w
      +                          hole_reg;
  7375  0DB4  3008               	movlw	8
  7376  0DB5  3ECC               	addlw	(low (_ROM_adf7012_value| 0))& (0+255)
  7377  0DB6  0086               	movwf	6
  7378  0DB7  0187               	clrf	7
  7379  0DB8  3F40               	moviw [0]fsr1
  7380  0DB9  0020               	movlb	0	; select bank0
  7381  0DBA  00D3               	movwf	dd_set_TX_mode@register_value
  7382  0DBB  3F41               	moviw [1]fsr1
  7383  0DBC  00D4               	movwf	dd_set_TX_mode@register_value+1
  7384  0DBD  3F42               	moviw [2]fsr1
  7385  0DBE  00D5               	movwf	dd_set_TX_mode@register_value+2
  7386  0DBF  3F43               	moviw [3]fsr1
  7387  0DC0  00D6               	movwf	dd_set_TX_mode@register_value+3
  7388  0DC1                     l5089:
  7389                           
  7390                           ;../Projects/src/adf7012.c: 189:       dd_write_7021_reg(&register_value.byte[0]);
  7391  0DC1  3053               	movlw	(low (dd_set_TX_mode@register_value| 0))& (0+255)
  7392  0DC2  318C  242A  318D   	fcall	_dd_write_7021_reg
  7393  0DC5                     l5091:
  7394                           
  7395                           ;../Projects/src/adf7012.c: 190:       Delayus(25);
  7396  0DC5  3019               	movlw	25
  7397  0DC6  318A  221D  318D   	fcall	_Delayus
  7398  0DC9                     l5093:
  7399                           
  7400                           ;../Projects/src/adf7012.c: 194:       register_value.whole_reg = ROM_adf7012_value[3].w
      +                          hole_reg;
  7401  0DC9  300C               	movlw	12
  7402  0DCA  3ECC               	addlw	(low (_ROM_adf7012_value| 0))& (0+255)
  7403  0DCB  0086               	movwf	6
  7404  0DCC  0187               	clrf	7
  7405  0DCD  3F40               	moviw [0]fsr1
  7406  0DCE  0020               	movlb	0	; select bank0
  7407  0DCF  00D3               	movwf	dd_set_TX_mode@register_value
  7408  0DD0  3F41               	moviw [1]fsr1
  7409  0DD1  00D4               	movwf	dd_set_TX_mode@register_value+1
  7410  0DD2  3F42               	moviw [2]fsr1
  7411  0DD3  00D5               	movwf	dd_set_TX_mode@register_value+2
  7412  0DD4  3F43               	moviw [3]fsr1
  7413  0DD5  00D6               	movwf	dd_set_TX_mode@register_value+3
  7414  0DD6                     l5095:
  7415                           
  7416                           ;../Projects/src/adf7012.c: 195:       dd_write_7021_reg(&register_value.byte[0]);
  7417  0DD6  3053               	movlw	(low (dd_set_TX_mode@register_value| 0))& (0+255)
  7418  0DD7  318C  242A  318D   	fcall	_dd_write_7021_reg
  7419  0DDA                     l5097:
  7420                           
  7421                           ;../Projects/src/adf7012.c: 196:       Delayus(25);
  7422  0DDA  3019               	movlw	25
  7423  0DDB  318A  221D  318D   	fcall	_Delayus
  7424  0DDE                     l162:
  7425  0DDE  0008               	return
  7426  0DDF                     __end_of_dd_set_TX_mode:
  7427                           
  7428                           	psect	text26
  7429  0C2A                     __ptext26:	
  7430 ;; *************** function _dd_write_7021_reg *****************
  7431 ;; Defined at:
  7432 ;;		line 17 in file "../Projects/src/adf7012.c"
  7433 ;; Parameters:    Size  Location     Type
  7434 ;;  reg_bytes       1    wreg     PTR unsigned char 
  7435 ;;		 -> dd_set_TX_mode@register_value(4), ROM_adf7012_value(16), dd_set_ADF7021_Power_on_Init@register_value(4), 
  7436 ;; Auto vars:     Size  Location     Type
  7437 ;;  reg_bytes       1    8[COMMON] PTR unsigned char 
  7438 ;;		 -> dd_set_TX_mode@register_value(4), ROM_adf7012_value(16), dd_set_ADF7021_Power_on_Init@register_value(4), 
  7439 ;;  i               1    7[COMMON] unsigned char 
  7440 ;;  byte            1    6[COMMON] unsigned char 
  7441 ;;  j               1    5[COMMON] unsigned char 
  7442 ;; Return value:  Size  Location     Type
  7443 ;;                  1    wreg      void 
  7444 ;; Registers used:
  7445 ;;		wreg, fsr1l, fsr1h, status,2, status,0
  7446 ;; Tracked objects:
  7447 ;;		On entry : 0/0
  7448 ;;		On exit  : 0/0
  7449 ;;		Unchanged: 0/0
  7450 ;; Data sizes:     COMMON   BANK0   BANK1   BANK2   BANK3   BANK4   BANK5   BANK6   BANK7   BANK8   BANK9  BANK10  BANK1
      +1  BANK12
  7451 ;;      Params:         0       0       0       0       0       0       0       0       0       0       0       0       
      +0       0
  7452 ;;      Locals:         4       0       0       0       0       0       0       0       0       0       0       0       
      +0       0
  7453 ;;      Temps:          2       0       0       0       0       0       0       0       0       0       0       0       
      +0       0
  7454 ;;      Totals:         6       0       0       0       0       0       0       0       0       0       0       0       
      +0       0
  7455 ;;Total ram usage:        6 bytes
  7456 ;; Hardware stack levels used:    1
  7457 ;; Hardware stack levels required when called:    2
  7458 ;; This function calls:
  7459 ;;		Nothing
  7460 ;; This function is called by:
  7461 ;;		_dd_set_ADF7021_Power_on_Init
  7462 ;;		_dd_set_TX_mode
  7463 ;;		_PC_PRG
  7464 ;; This function uses a non-reentrant model
  7465 ;;
  7466                           
  7467                           
  7468                           ;psect for function _dd_write_7021_reg
  7469  0C2A                     _dd_write_7021_reg:
  7470                           
  7471                           ;incstack = 0
  7472                           ; Regs used in _dd_write_7021_reg: [wreg+fsr1l+fsr1h+status,2+status,0]
  7473                           ;dd_write_7021_reg@reg_bytes stored from wreg
  7474  0C2A  00F8               	movwf	dd_write_7021_reg@reg_bytes
  7475  0C2B                     l5001:
  7476                           
  7477                           ;../Projects/src/adf7012.c: 17: void dd_write_7021_reg(unsigned char* reg_bytes);../Proj
      +                          ects/src/adf7012.c: 18: {;../Projects/src/adf7012.c: 19:     unsigned char i, j;;../Proj
      +                          ects/src/adf7012.c: 20:     unsigned char byte;;../Projects/src/adf7012.c: 22:     RC6 =
      +                           0;
  7478  0C2B  0020               	movlb	0	; select bank0
  7479  0C2C  130E               	bcf	14,6	;volatile
  7480                           
  7481                           ;../Projects/src/adf7012.c: 23:     RB6 = 0;
  7482  0C2D  130D               	bcf	13,6	;volatile
  7483  0C2E                     l5003:
  7484                           
  7485                           ;../Projects/src/adf7012.c: 32:     for (i=0; i<=3; i++)
  7486  0C2E  01F7               	clrf	dd_write_7021_reg@i
  7487  0C2F                     l5009:
  7488                           
  7489                           ;../Projects/src/adf7012.c: 33:     {;../Projects/src/adf7012.c: 34:         byte = reg_
      +                          bytes[i];
  7490  0C2F  0877               	movf	dd_write_7021_reg@i,w
  7491  0C30  0778               	addwf	dd_write_7021_reg@reg_bytes,w
  7492  0C31  00F3               	movwf	??_dd_write_7021_reg
  7493  0C32  0873               	movf	??_dd_write_7021_reg,w
  7494  0C33  0086               	movwf	6
  7495  0C34  0187               	clrf	7
  7496  0C35  0801               	movf	1,w
  7497  0C36  00F4               	movwf	??_dd_write_7021_reg+1
  7498  0C37  0874               	movf	??_dd_write_7021_reg+1,w
  7499  0C38  00F6               	movwf	dd_write_7021_reg@byte
  7500  0C39                     l5011:
  7501                           
  7502                           ;../Projects/src/adf7012.c: 36:         for (j=8; j>0; j--)
  7503  0C39  3008               	movlw	8
  7504  0C3A  00F3               	movwf	??_dd_write_7021_reg
  7505  0C3B  0873               	movf	??_dd_write_7021_reg,w
  7506  0C3C  00F5               	movwf	dd_write_7021_reg@j
  7507  0C3D                     l147:
  7508                           
  7509                           ;../Projects/src/adf7012.c: 37:         {;../Projects/src/adf7012.c: 38:             RB6
      +                           = 0;
  7510  0C3D  130D               	bcf	13,6	;volatile
  7511                           
  7512                           ;../Projects/src/adf7012.c: 39:             if (byte & 0x80) RC7 = 1;
  7513  0C3E  1FF6               	btfss	dd_write_7021_reg@byte,7
  7514  0C3F  2C41               	goto	u2841
  7515  0C40  2C42               	goto	u2840
  7516  0C41                     u2841:
  7517  0C41  2C44               	goto	l149
  7518  0C42                     u2840:
  7519  0C42                     l5017:
  7520  0C42  178E               	bsf	14,7	;volatile
  7521  0C43  2C45               	goto	l150
  7522  0C44                     l149:	
  7523                           ;../Projects/src/adf7012.c: 40:             else RC7 = 0;
  7524                           
  7525  0C44  138E               	bcf	14,7	;volatile
  7526  0C45                     l150:
  7527                           
  7528                           ;../Projects/src/adf7012.c: 41:             RB6 = 1;
  7529  0C45  170D               	bsf	13,6	;volatile
  7530  0C46                     l5019:
  7531                           
  7532                           ;../Projects/src/adf7012.c: 42:             byte += byte;
  7533  0C46  0876               	movf	dd_write_7021_reg@byte,w
  7534  0C47  00F3               	movwf	??_dd_write_7021_reg
  7535  0C48  0873               	movf	??_dd_write_7021_reg,w
  7536  0C49  07F6               	addwf	dd_write_7021_reg@byte,f
  7537                           
  7538                           ;../Projects/src/adf7012.c: 43:         }
  7539  0C4A  3001               	movlw	1
  7540  0C4B  02F5               	subwf	dd_write_7021_reg@j,f
  7541  0C4C  0875               	movf	dd_write_7021_reg@j,w
  7542  0C4D  1D03               	btfss	3,2
  7543  0C4E  2C50               	goto	u2851
  7544  0C4F  2C51               	goto	u2850
  7545  0C50                     u2851:
  7546  0C50  2C3D               	goto	l147
  7547  0C51                     u2850:
  7548  0C51                     l148:
  7549                           
  7550                           ;../Projects/src/adf7012.c: 44:         RB6 = 0;
  7551  0C51  130D               	bcf	13,6	;volatile
  7552  0C52                     l5021:
  7553                           
  7554                           ;../Projects/src/adf7012.c: 45:     }
  7555  0C52  3001               	movlw	1
  7556  0C53  00F3               	movwf	??_dd_write_7021_reg
  7557  0C54  0873               	movf	??_dd_write_7021_reg,w
  7558  0C55  07F7               	addwf	dd_write_7021_reg@i,f
  7559  0C56                     l5023:
  7560  0C56  3004               	movlw	4
  7561  0C57  0277               	subwf	dd_write_7021_reg@i,w
  7562  0C58  1C03               	skipc
  7563  0C59  2C5B               	goto	u2861
  7564  0C5A  2C5C               	goto	u2860
  7565  0C5B                     u2861:
  7566  0C5B  2C2F               	goto	l5009
  7567  0C5C                     u2860:
  7568  0C5C                     l146:
  7569                           
  7570                           ;../Projects/src/adf7012.c: 50:     RC6 = 1;
  7571  0C5C  170E               	bsf	14,6	;volatile
  7572                           
  7573                           ;../Projects/src/adf7012.c: 51:     RC6 = 1;
  7574  0C5D  170E               	bsf	14,6	;volatile
  7575                           
  7576                           ;../Projects/src/adf7012.c: 52:     RC7 = 0;
  7577  0C5E  138E               	bcf	14,7	;volatile
  7578                           
  7579                           ;../Projects/src/adf7012.c: 53:     RC6 = 0;
  7580  0C5F  130E               	bcf	14,6	;volatile
  7581  0C60                     l151:
  7582  0C60  0008               	return
  7583  0C61                     __end_of_dd_write_7021_reg:
  7584                           
  7585                           	psect	text27
  7586  0A1D                     __ptext27:	
  7587 ;; *************** function _Delayus *****************
  7588 ;; Defined at:
  7589 ;;		line 100 in file "../Projects/src/initial.c"
  7590 ;; Parameters:    Size  Location     Type
  7591 ;;  timer           1    wreg     unsigned char 
  7592 ;; Auto vars:     Size  Location     Type
  7593 ;;  timer           1    4[COMMON] unsigned char 
  7594 ;;  x               1    5[COMMON] unsigned char 
  7595 ;; Return value:  Size  Location     Type
  7596 ;;                  1    wreg      void 
  7597 ;; Registers used:
  7598 ;;		wreg, status,2, status,0
  7599 ;; Tracked objects:
  7600 ;;		On entry : 0/0
  7601 ;;		On exit  : 0/0
  7602 ;;		Unchanged: 0/0
  7603 ;; Data sizes:     COMMON   BANK0   BANK1   BANK2   BANK3   BANK4   BANK5   BANK6   BANK7   BANK8   BANK9  BANK10  BANK1
      +1  BANK12
  7604 ;;      Params:         0       0       0       0       0       0       0       0       0       0       0       0       
      +0       0
  7605 ;;      Locals:         2       0       0       0       0       0       0       0       0       0       0       0       
      +0       0
  7606 ;;      Temps:          1       0       0       0       0       0       0       0       0       0       0       0       
      +0       0
  7607 ;;      Totals:         3       0       0       0       0       0       0       0       0       0       0       0       
      +0       0
  7608 ;;Total ram usage:        3 bytes
  7609 ;; Hardware stack levels used:    1
  7610 ;; Hardware stack levels required when called:    2
  7611 ;; This function calls:
  7612 ;;		Nothing
  7613 ;; This function is called by:
  7614 ;;		_dd_set_TX_mode
  7615 ;;		_test_mode_control
  7616 ;;		_PC_PRG
  7617 ;; This function uses a non-reentrant model
  7618 ;;
  7619                           
  7620                           
  7621                           ;psect for function _Delayus
  7622  0A1D                     _Delayus:
  7623                           
  7624                           ;incstack = 0
  7625                           ; Regs used in _Delayus: [wreg+status,2+status,0]
  7626                           ;Delayus@timer stored from wreg
  7627  0A1D  00F4               	movwf	Delayus@timer
  7628  0A1E                     l5025:
  7629                           
  7630                           ;../Projects/src/initial.c: 100: void Delayus(unsigned char timer);../Projects/src/initi
      +                          al.c: 101: {;../Projects/src/initial.c: 102: unsigned char x;;../Projects/src/initial.c:
      +                           103:  for(x=0;x<timer;x++)
  7631  0A1E  01F5               	clrf	Delayus@x
  7632  0A1F  2A25               	goto	l5029
  7633  0A20                     l289:
  7634  0A20  0000               	nop	;# 
  7635  0A21                     l5027:
  7636  0A21  3001               	movlw	1
  7637  0A22  00F3               	movwf	??_Delayus
  7638  0A23  0873               	movf	??_Delayus,w
  7639  0A24  07F5               	addwf	Delayus@x,f
  7640  0A25                     l5029:
  7641  0A25  0874               	movf	Delayus@timer,w
  7642  0A26  0275               	subwf	Delayus@x,w
  7643  0A27  1C03               	skipc
  7644  0A28  2A2A               	goto	u2871
  7645  0A29  2A2B               	goto	u2870
  7646  0A2A                     u2871:
  7647  0A2A  2A20               	goto	l289
  7648  0A2B                     u2870:
  7649  0A2B                     l291:
  7650  0A2B  0008               	return
  7651  0A2C                     __end_of_Delayus:
  7652                           
  7653                           	psect	text28
  7654  09E4                     __ptext28:	
  7655 ;; *************** function _dd_set_ADF7021_Power_on *****************
  7656 ;; Defined at:
  7657 ;;		line 81 in file "../Projects/src/adf7012.c"
  7658 ;; Parameters:    Size  Location     Type
  7659 ;;		None
  7660 ;; Auto vars:     Size  Location     Type
  7661 ;;		None
  7662 ;; Return value:  Size  Location     Type
  7663 ;;                  1    wreg      void 
  7664 ;; Registers used:
  7665 ;;		None
  7666 ;; Tracked objects:
  7667 ;;		On entry : 0/0
  7668 ;;		On exit  : 0/0
  7669 ;;		Unchanged: 0/0
  7670 ;; Data sizes:     COMMON   BANK0   BANK1   BANK2   BANK3   BANK4   BANK5   BANK6   BANK7   BANK8   BANK9  BANK10  BANK1
      +1  BANK12
  7671 ;;      Params:         0       0       0       0       0       0       0       0       0       0       0       0       
      +0       0
  7672 ;;      Locals:         0       0       0       0       0       0       0       0       0       0       0       0       
      +0       0
  7673 ;;      Temps:          0       0       0       0       0       0       0       0       0       0       0       0       
      +0       0
  7674 ;;      Totals:         0       0       0       0       0       0       0       0       0       0       0       0       
      +0       0
  7675 ;;Total ram usage:        0 bytes
  7676 ;; Hardware stack levels used:    1
  7677 ;; Hardware stack levels required when called:    2
  7678 ;; This function calls:
  7679 ;;		Nothing
  7680 ;; This function is called by:
  7681 ;;		__ReqTxdEdit
  7682 ;;		_test_mode_control
  7683 ;; This function uses a non-reentrant model
  7684 ;;
  7685                           
  7686                           
  7687                           ;psect for function _dd_set_ADF7021_Power_on
  7688  09E4                     _dd_set_ADF7021_Power_on:
  7689  09E4                     l3259:	
  7690                           ;incstack = 0
  7691                           ; Regs used in _dd_set_ADF7021_Power_on: []
  7692                           
  7693                           
  7694                           ;../Projects/src/adf7012.c: 86:  if (RC2 == 0)
  7695  09E4  0020               	movlb	0	; select bank0
  7696  09E5  190E               	btfsc	14,2	;volatile
  7697  09E6  29E8               	goto	u651
  7698  09E7  29E9               	goto	u650
  7699  09E8                     u651:
  7700  09E8  29EA               	goto	l159
  7701  09E9                     u650:
  7702  09E9                     l3261:
  7703                           
  7704                           ;../Projects/src/adf7012.c: 87:  {;../Projects/src/adf7012.c: 88:   RC2 = 1;
  7705  09E9  150E               	bsf	14,2	;volatile
  7706  09EA                     l159:
  7707  09EA  0008               	return
  7708  09EB                     __end_of_dd_set_ADF7021_Power_on:
  7709                           
  7710                           	psect	text29
  7711  0F2A                     __ptext29:	
  7712 ;; *************** function _SendTxData *****************
  7713 ;; Defined at:
  7714 ;;		line 123 in file "../Projects/src/EXIT_FUN.c"
  7715 ;; Parameters:    Size  Location     Type
  7716 ;;		None
  7717 ;; Auto vars:     Size  Location     Type
  7718 ;;  def_preamble    1   16[BANK0 ] unsigned char 
  7719 ;;  i               1   15[BANK0 ] unsigned char 
  7720 ;; Return value:  Size  Location     Type
  7721 ;;                  1    wreg      void 
  7722 ;; Registers used:
  7723 ;;		wreg, fsr1l, fsr1h, status,2, status,0, pclath, cstack
  7724 ;; Tracked objects:
  7725 ;;		On entry : 0/0
  7726 ;;		On exit  : 0/0
  7727 ;;		Unchanged: 0/0
  7728 ;; Data sizes:     COMMON   BANK0   BANK1   BANK2   BANK3   BANK4   BANK5   BANK6   BANK7   BANK8   BANK9  BANK10  BANK1
      +1  BANK12
  7729 ;;      Params:         0       0       0       0       0       0       0       0       0       0       0       0       
      +0       0
  7730 ;;      Locals:         0       2       0       0       0       0       0       0       0       0       0       0       
      +0       0
  7731 ;;      Temps:          0       2       0       0       0       0       0       0       0       0       0       0       
      +0       0
  7732 ;;      Totals:         0       4       0       0       0       0       0       0       0       0       0       0       
      +0       0
  7733 ;;Total ram usage:        4 bytes
  7734 ;; Hardware stack levels used:    1
  7735 ;; Hardware stack levels required when called:    4
  7736 ;; This function calls:
  7737 ;;		_SetTxData
  7738 ;; This function is called by:
  7739 ;;		__ReqTxdEdit
  7740 ;; This function uses a non-reentrant model
  7741 ;;
  7742                           
  7743                           
  7744                           ;psect for function _SendTxData
  7745  0F2A                     _SendTxData:
  7746  0F2A                     l5031:	
  7747                           ;incstack = 0
  7748                           ; Regs used in _SendTxData: [wreg+fsr1l+fsr1h+status,2+status,0+pclath+cstack]
  7749                           
  7750                           
  7751                           ;../Projects/src/EXIT_FUN.c: 125:   unsigned char i, def_preamble=8;
  7752  0F2A  3008               	movlw	8
  7753  0F2B  0020               	movlb	0	; select bank0
  7754  0F2C  00E0               	movwf	??_SendTxData
  7755  0F2D  0860               	movf	??_SendTxData,w
  7756  0F2E  00E3               	movwf	SendTxData@def_preamble
  7757                           
  7758                           ;../Projects/src/EXIT_FUN.c: 126:        m_RFNormalBuf[0]=0x55;
  7759  0F2F  3055               	movlw	85
  7760  0F30  00E0               	movwf	??_SendTxData
  7761  0F31  0860               	movf	??_SendTxData,w
  7762  0F32  0022               	movlb	2	; select bank2
  7763  0F33  00A0               	movwf	_m_RFNormalBuf^(0+256)
  7764  0F34                     l5033:
  7765                           
  7766                           ;../Projects/src/EXIT_FUN.c: 127:        for(i=1;i<=def_preamble;i++)m_RFNormalBuf[i]=0x
      +                          55;
  7767  0F34  0020               	movlb	0	; select bank0
  7768  0F35  01E2               	clrf	SendTxData@i
  7769  0F36  0AE2               	incf	SendTxData@i,f
  7770  0F37  2F45               	goto	l5039
  7771  0F38                     l5035:
  7772  0F38  3055               	movlw	85
  7773  0F39  00E0               	movwf	??_SendTxData
  7774  0F3A  0862               	movf	SendTxData@i,w
  7775  0F3B  3E20               	addlw	(low (_m_RFNormalBuf| (0+256)))& (0+255)
  7776  0F3C  0086               	movwf	6
  7777  0F3D  3001               	movlw	1	; select bank2/3
  7778  0F3E  0087               	movwf	7
  7779  0F3F  0860               	movf	??_SendTxData,w
  7780  0F40  0081               	movwf	1
  7781  0F41                     l5037:
  7782  0F41  3001               	movlw	1
  7783  0F42  00E0               	movwf	??_SendTxData
  7784  0F43  0860               	movf	??_SendTxData,w
  7785  0F44  07E2               	addwf	SendTxData@i,f
  7786  0F45                     l5039:
  7787  0F45  0862               	movf	SendTxData@i,w
  7788  0F46  0263               	subwf	SendTxData@def_preamble,w
  7789  0F47  1803               	skipnc
  7790  0F48  2F4A               	goto	u2881
  7791  0F49  2F4B               	goto	u2880
  7792  0F4A                     u2881:
  7793  0F4A  2F38               	goto	l5035
  7794  0F4B                     u2880:
  7795  0F4B                     l5041:
  7796                           
  7797                           ;../Projects/src/EXIT_FUN.c: 128:        m_RFNormalBuf[def_preamble+1]=0x15;
  7798  0F4B  3015               	movlw	21
  7799  0F4C  00E0               	movwf	??_SendTxData
  7800  0F4D  0863               	movf	SendTxData@def_preamble,w
  7801  0F4E  3E21               	addlw	(low ((_m_RFNormalBuf| (0+256)+1)))& (0+255)
  7802  0F4F  0086               	movwf	6
  7803  0F50  3001               	movlw	1	; select bank2/3
  7804  0F51  0087               	movwf	7
  7805  0F52  0860               	movf	??_SendTxData,w
  7806  0F53  0081               	movwf	1
  7807  0F54                     l5043:
  7808                           
  7809                           ;../Projects/src/EXIT_FUN.c: 129:        RB5=1;
  7810  0F54  168D               	bsf	13,5	;volatile
  7811  0F55                     l5045:
  7812                           
  7813                           ;../Projects/src/EXIT_FUN.c: 130:        if(m_RegMode==0){
  7814  0F55  084E               	movf	_m_RegMode,w
  7815  0F56  1D03               	btfss	3,2
  7816  0F57  2F59               	goto	u2891
  7817  0F58  2F5A               	goto	u2890
  7818  0F59                     u2891:
  7819  0F59  2F8F               	goto	l5053
  7820  0F5A                     u2890:
  7821  0F5A                     l5047:
  7822                           
  7823                           ;../Projects/src/EXIT_FUN.c: 131:   txphase_end=(def_preamble+15)*8-4;
  7824  0F5A  0863               	movf	SendTxData@def_preamble,w
  7825  0F5B  00E0               	movwf	??_SendTxData
  7826  0F5C  01E1               	clrf	??_SendTxData+1
  7827  0F5D  35E0               	lslf	??_SendTxData,f
  7828  0F5E  0DE1               	rlf	??_SendTxData+1,f
  7829  0F5F  35E0               	lslf	??_SendTxData,f
  7830  0F60  0DE1               	rlf	??_SendTxData+1,f
  7831  0F61  35E0               	lslf	??_SendTxData,f
  7832  0F62  0DE1               	rlf	??_SendTxData+1,f
  7833  0F63  0860               	movf	??_SendTxData,w
  7834  0F64  3E74               	addlw	116
  7835  0F65  0021               	movlb	1	; select bank1
  7836  0F66  00CA               	movwf	_txphase_end^(0+128)
  7837  0F67  3000               	movlw	0
  7838  0F68  0020               	movlb	0	; select bank0
  7839  0F69  3D61               	addwfc	??_SendTxData+1,w
  7840  0F6A  0021               	movlb	1	; select bank1
  7841  0F6B  00CB               	movwf	(_txphase_end+1)^(0+128)
  7842  0F6C                     l5049:
  7843                           
  7844                           ;../Projects/src/EXIT_FUN.c: 132:   SetTxData(def_preamble+2,ID_data,Control_code);
  7845  0F6C  083F               	movf	(_ID_data+3)^(0+128),w
  7846  0F6D  0020               	movlb	0	; select bank0
  7847  0F6E  00D6               	movwf	SetTxData@ID_data_set+3
  7848  0F6F  0021               	movlb	1	; select bank1
  7849  0F70  083E               	movf	(_ID_data+2)^(0+128),w
  7850  0F71  0020               	movlb	0	; select bank0
  7851  0F72  00D5               	movwf	SetTxData@ID_data_set+2
  7852  0F73  0021               	movlb	1	; select bank1
  7853  0F74  083D               	movf	(_ID_data+1)^(0+128),w
  7854  0F75  0020               	movlb	0	; select bank0
  7855  0F76  00D4               	movwf	SetTxData@ID_data_set+1
  7856  0F77  0021               	movlb	1	; select bank1
  7857  0F78  083C               	movf	_ID_data^(0+128),w
  7858  0F79  0020               	movlb	0	; select bank0
  7859  0F7A  00D3               	movwf	SetTxData@ID_data_set
  7860  0F7B  084D               	movf	_Control_code,w
  7861  0F7C  00E0               	movwf	??_SendTxData
  7862  0F7D  0860               	movf	??_SendTxData,w
  7863  0F7E  00D7               	movwf	SetTxData@Control_code_set
  7864  0F7F  0863               	movf	SendTxData@def_preamble,w
  7865  0F80  3E02               	addlw	2
  7866  0F81  3186  267A  318F   	fcall	_SetTxData
  7867  0F84                     l5051:
  7868                           
  7869                           ;../Projects/src/EXIT_FUN.c: 133:          m_RFNormalBuf[def_preamble+14]=0xFF;
  7870  0F84  30FF               	movlw	255
  7871  0F85  0020               	movlb	0	; select bank0
  7872  0F86  00E0               	movwf	??_SendTxData
  7873  0F87  0863               	movf	SendTxData@def_preamble,w
  7874  0F88  3E2E               	addlw	(low ((_m_RFNormalBuf| (0+256)+14)))& (0+255)
  7875  0F89  0086               	movwf	6
  7876  0F8A  3001               	movlw	1	; select bank2/3
  7877  0F8B  0087               	movwf	7
  7878  0F8C  0860               	movf	??_SendTxData,w
  7879  0F8D  0081               	movwf	1
  7880                           
  7881                           ;../Projects/src/EXIT_FUN.c: 134:        }
  7882  0F8E  2FF9               	goto	l5065
  7883  0F8F                     l5053:
  7884                           
  7885                           ;../Projects/src/EXIT_FUN.c: 136:   txphase_end=(def_preamble+27)*8-4;
  7886  0F8F  0863               	movf	SendTxData@def_preamble,w
  7887  0F90  00E0               	movwf	??_SendTxData
  7888  0F91  01E1               	clrf	??_SendTxData+1
  7889  0F92  35E0               	lslf	??_SendTxData,f
  7890  0F93  0DE1               	rlf	??_SendTxData+1,f
  7891  0F94  35E0               	lslf	??_SendTxData,f
  7892  0F95  0DE1               	rlf	??_SendTxData+1,f
  7893  0F96  35E0               	lslf	??_SendTxData,f
  7894  0F97  0DE1               	rlf	??_SendTxData+1,f
  7895  0F98  0860               	movf	??_SendTxData,w
  7896  0F99  3ED4               	addlw	212
  7897  0F9A  0021               	movlb	1	; select bank1
  7898  0F9B  00CA               	movwf	_txphase_end^(0+128)
  7899  0F9C  3000               	movlw	0
  7900  0F9D  0020               	movlb	0	; select bank0
  7901  0F9E  3D61               	addwfc	??_SendTxData+1,w
  7902  0F9F  0021               	movlb	1	; select bank1
  7903  0FA0  00CB               	movwf	(_txphase_end+1)^(0+128)
  7904  0FA1                     l5055:
  7905                           
  7906                           ;../Projects/src/EXIT_FUN.c: 137:   SetTxData(def_preamble+2,ID_data,0x80);
  7907  0FA1  083F               	movf	(_ID_data+3)^(0+128),w
  7908  0FA2  0020               	movlb	0	; select bank0
  7909  0FA3  00D6               	movwf	SetTxData@ID_data_set+3
  7910  0FA4  0021               	movlb	1	; select bank1
  7911  0FA5  083E               	movf	(_ID_data+2)^(0+128),w
  7912  0FA6  0020               	movlb	0	; select bank0
  7913  0FA7  00D5               	movwf	SetTxData@ID_data_set+2
  7914  0FA8  0021               	movlb	1	; select bank1
  7915  0FA9  083D               	movf	(_ID_data+1)^(0+128),w
  7916  0FAA  0020               	movlb	0	; select bank0
  7917  0FAB  00D4               	movwf	SetTxData@ID_data_set+1
  7918  0FAC  0021               	movlb	1	; select bank1
  7919  0FAD  083C               	movf	_ID_data^(0+128),w
  7920  0FAE  0020               	movlb	0	; select bank0
  7921  0FAF  00D3               	movwf	SetTxData@ID_data_set
  7922  0FB0  3080               	movlw	128
  7923  0FB1  00E0               	movwf	??_SendTxData
  7924  0FB2  0860               	movf	??_SendTxData,w
  7925  0FB3  00D7               	movwf	SetTxData@Control_code_set
  7926  0FB4  0863               	movf	SendTxData@def_preamble,w
  7927  0FB5  3E02               	addlw	2
  7928  0FB6  3186  267A  318F   	fcall	_SetTxData
  7929  0FB9                     l5057:
  7930                           
  7931                           ;../Projects/src/EXIT_FUN.c: 138:   if(m_RegMode==1)SetTxData(def_preamble+14,ID_data_ad
      +                          d,0xFF);
  7932  0FB9  0020               	movlb	0	; select bank0
  7933  0FBA  034E               	decf	_m_RegMode,w
  7934  0FBB  1D03               	btfss	3,2
  7935  0FBC  2FBE               	goto	u2901
  7936  0FBD  2FBF               	goto	u2900
  7937  0FBE                     u2901:
  7938  0FBE  2FD9               	goto	l5061
  7939  0FBF                     u2900:
  7940  0FBF                     l5059:
  7941  0FBF  0021               	movlb	1	; select bank1
  7942  0FC0  083B               	movf	(_ID_data_add+3)^(0+128),w
  7943  0FC1  0020               	movlb	0	; select bank0
  7944  0FC2  00D6               	movwf	SetTxData@ID_data_set+3
  7945  0FC3  0021               	movlb	1	; select bank1
  7946  0FC4  083A               	movf	(_ID_data_add+2)^(0+128),w
  7947  0FC5  0020               	movlb	0	; select bank0
  7948  0FC6  00D5               	movwf	SetTxData@ID_data_set+2
  7949  0FC7  0021               	movlb	1	; select bank1
  7950  0FC8  0839               	movf	(_ID_data_add+1)^(0+128),w
  7951  0FC9  0020               	movlb	0	; select bank0
  7952  0FCA  00D4               	movwf	SetTxData@ID_data_set+1
  7953  0FCB  0021               	movlb	1	; select bank1
  7954  0FCC  0838               	movf	_ID_data_add^(0+128),w
  7955  0FCD  0020               	movlb	0	; select bank0
  7956  0FCE  00D3               	movwf	SetTxData@ID_data_set
  7957  0FCF  30FF               	movlw	255
  7958  0FD0  00E0               	movwf	??_SendTxData
  7959  0FD1  0860               	movf	??_SendTxData,w
  7960  0FD2  00D7               	movwf	SetTxData@Control_code_set
  7961  0FD3  0863               	movf	SendTxData@def_preamble,w
  7962  0FD4  3E0E               	addlw	14
  7963  0FD5  3186  267A  318F   	fcall	_SetTxData
  7964  0FD8  2FEF               	goto	l5063
  7965  0FD9                     l5061:
  7966  0FD9  0021               	movlb	1	; select bank1
  7967  0FDA  083B               	movf	(_ID_data_add+3)^(0+128),w
  7968  0FDB  0020               	movlb	0	; select bank0
  7969  0FDC  00D6               	movwf	SetTxData@ID_data_set+3
  7970  0FDD  0021               	movlb	1	; select bank1
  7971  0FDE  083A               	movf	(_ID_data_add+2)^(0+128),w
  7972  0FDF  0020               	movlb	0	; select bank0
  7973  0FE0  00D5               	movwf	SetTxData@ID_data_set+2
  7974  0FE1  0021               	movlb	1	; select bank1
  7975  0FE2  0839               	movf	(_ID_data_add+1)^(0+128),w
  7976  0FE3  0020               	movlb	0	; select bank0
  7977  0FE4  00D4               	movwf	SetTxData@ID_data_set+1
  7978  0FE5  0021               	movlb	1	; select bank1
  7979  0FE6  0838               	movf	_ID_data_add^(0+128),w
  7980  0FE7  0020               	movlb	0	; select bank0
  7981  0FE8  00D3               	movwf	SetTxData@ID_data_set
  7982  0FE9  01D7               	clrf	SetTxData@Control_code_set
  7983  0FEA  0863               	movf	SendTxData@def_preamble,w
  7984  0FEB  3E0E               	addlw	14
  7985  0FEC  3186  267A  318F   	fcall	_SetTxData
  7986  0FEF                     l5063:
  7987                           
  7988                           ;../Projects/src/EXIT_FUN.c: 140:          m_RFNormalBuf[def_preamble+26]=0xFF;
  7989  0FEF  30FF               	movlw	255
  7990  0FF0  0020               	movlb	0	; select bank0
  7991  0FF1  00E0               	movwf	??_SendTxData
  7992  0FF2  0863               	movf	SendTxData@def_preamble,w
  7993  0FF3  3E3A               	addlw	(low ((_m_RFNormalBuf| (0+256)+26)))& (0+255)
  7994  0FF4  0086               	movwf	6
  7995  0FF5  3001               	movlw	1	; select bank2/3
  7996  0FF6  0087               	movwf	7
  7997  0FF7  0860               	movf	??_SendTxData,w
  7998  0FF8  0081               	movwf	1
  7999  0FF9                     l5065:
  8000                           
  8001                           ;../Projects/src/EXIT_FUN.c: 142:        txphase=0;
  8002  0FF9  01B2               	clrf	_txphase
  8003  0FFA  01B3               	clrf	_txphase+1
  8004  0FFB                     l5067:
  8005                           
  8006                           ;../Projects/src/EXIT_FUN.c: 143:        txphase_Repeat=0;
  8007  0FFB  01CF               	clrf	_txphase_Repeat
  8008  0FFC                     l5069:
  8009                           
  8010                           ;../Projects/src/EXIT_FUN.c: 144:        ID_INT_CODE=0;
  8011  0FFC  01D0               	clrf	_ID_INT_CODE
  8012  0FFD                     l5071:
  8013                           
  8014                           ;../Projects/src/EXIT_FUN.c: 145:        RAM_OP1.BIT.Bit0=1;
  8015  0FFD  1451               	bsf	_RAM_OP1,0	;volatile
  8016  0FFE                     l5073:
  8017                           
  8018                           ;../Projects/src/EXIT_FUN.c: 146:     RAM_OP3.BIT.Bit0=1;
  8019  0FFE  1452               	bsf	_RAM_OP3,0	;volatile
  8020  0FFF                     l65:
  8021  0FFF  0008               	return
  8022  1000                     __end_of_SendTxData:
  8023                           
  8024                           	psect	text30
  8025  067A                     __ptext30:	
  8026 ;; *************** function _SetTxData *****************
  8027 ;; Defined at:
  8028 ;;		line 149 in file "../Projects/src/EXIT_FUN.c"
  8029 ;; Parameters:    Size  Location     Type
  8030 ;;  count_set       1    wreg     unsigned char 
  8031 ;;  ID_data_set     4    0[BANK0 ] struct .
  8032 ;;  Control_code    1    4[BANK0 ] unsigned char 
  8033 ;; Auto vars:     Size  Location     Type
  8034 ;;  count_set       1   10[BANK0 ] unsigned char 
  8035 ;;  unii            2   11[BANK0 ] struct .
  8036 ;;  unij            2    8[BANK0 ] struct .
  8037 ;;  unik            2    6[BANK0 ] struct .
  8038 ;; Return value:  Size  Location     Type
  8039 ;;                  1    wreg      void 
  8040 ;; Registers used:
  8041 ;;		wreg, fsr1l, fsr1h, status,2, status,0, pclath, cstack
  8042 ;; Tracked objects:
  8043 ;;		On entry : 0/0
  8044 ;;		On exit  : 0/0
  8045 ;;		Unchanged: 0/0
  8046 ;; Data sizes:     COMMON   BANK0   BANK1   BANK2   BANK3   BANK4   BANK5   BANK6   BANK7   BANK8   BANK9  BANK10  BANK1
      +1  BANK12
  8047 ;;      Params:         0       5       0       0       0       0       0       0       0       0       0       0       
      +0       0
  8048 ;;      Locals:         0       7       0       0       0       0       0       0       0       0       0       0       
      +0       0
  8049 ;;      Temps:          0       1       0       0       0       0       0       0       0       0       0       0       
      +0       0
  8050 ;;      Totals:         0      13       0       0       0       0       0       0       0       0       0       0       
      +0       0
  8051 ;;Total ram usage:       13 bytes
  8052 ;; Hardware stack levels used:    1
  8053 ;; Hardware stack levels required when called:    3
  8054 ;; This function calls:
  8055 ;;		_SetFixedLengthCode
  8056 ;; This function is called by:
  8057 ;;		_SendTxData
  8058 ;; This function uses a non-reentrant model
  8059 ;;
  8060                           
  8061                           
  8062                           ;psect for function _SetTxData
  8063  067A                     _SetTxData:
  8064                           
  8065                           ;incstack = 0
  8066                           ; Regs used in _SetTxData: [wreg+fsr1l+fsr1h+status,2+status,0+pclath+cstack]
  8067                           ;SetTxData@count_set stored from wreg
  8068  067A  0020               	movlb	0	; select bank0
  8069  067B  00DD               	movwf	SetTxData@count_set
  8070  067C                     l4939:
  8071                           
  8072                           ;../Projects/src/EXIT_FUN.c: 149: void SetTxData(unsigned char count_set ,uni_rom_id ID_
      +                          data_set,unsigned char Control_code_set);../Projects/src/EXIT_FUN.c: 150: {;../Projects/
      +                          src/EXIT_FUN.c: 151:     uni_i unii,unij,unik;;../Projects/src/EXIT_FUN.c: 153:  unii.ui
      +                           = SetFixedLengthCode(ID_data_set.IDB[3]) ;
  8073  067C  0856               	movf	SetTxData@ID_data_set+3,w
  8074  067D  318B  2373  3186   	fcall	_SetFixedLengthCode
  8075  0680  0874               	movf	?_SetFixedLengthCode+1,w
  8076  0681  0020               	movlb	0	; select bank0
  8077  0682  00DF               	movwf	SetTxData@unii+1
  8078  0683  0873               	movf	?_SetFixedLengthCode,w
  8079  0684  00DE               	movwf	SetTxData@unii
  8080  0685                     l4941:
  8081                           
  8082                           ;../Projects/src/EXIT_FUN.c: 154:  m_RFNormalBuf[count_set++] = unii.uc[0] ;
  8083  0685  085E               	movf	SetTxData@unii,w
  8084  0686  00D8               	movwf	??_SetTxData
  8085  0687  085D               	movf	SetTxData@count_set,w
  8086  0688  3E20               	addlw	(low (_m_RFNormalBuf| (0+256)))& (0+255)
  8087  0689  0086               	movwf	6
  8088  068A  3001               	movlw	1	; select bank2/3
  8089  068B  0087               	movwf	7
  8090  068C  0858               	movf	??_SetTxData,w
  8091  068D  0081               	movwf	1
  8092  068E                     l4943:
  8093  068E  3001               	movlw	1
  8094  068F  00D8               	movwf	??_SetTxData
  8095  0690  0858               	movf	??_SetTxData,w
  8096  0691  07DD               	addwf	SetTxData@count_set,f
  8097  0692                     l4945:
  8098                           
  8099                           ;../Projects/src/EXIT_FUN.c: 155:  m_RFNormalBuf[count_set++] = unii.uc[1] ;
  8100  0692  085F               	movf	SetTxData@unii+1,w
  8101  0693  00D8               	movwf	??_SetTxData
  8102  0694  085D               	movf	SetTxData@count_set,w
  8103  0695  3E20               	addlw	(low (_m_RFNormalBuf| (0+256)))& (0+255)
  8104  0696  0086               	movwf	6
  8105  0697  3001               	movlw	1	; select bank2/3
  8106  0698  0087               	movwf	7
  8107  0699  0858               	movf	??_SetTxData,w
  8108  069A  0081               	movwf	1
  8109  069B                     l4947:
  8110  069B  3001               	movlw	1
  8111  069C  00D8               	movwf	??_SetTxData
  8112  069D  0858               	movf	??_SetTxData,w
  8113  069E  07DD               	addwf	SetTxData@count_set,f
  8114                           
  8115                           ;../Projects/src/EXIT_FUN.c: 156:  unii.ui = SetFixedLengthCode(ID_data_set.IDB[2]) ;
  8116  069F  0855               	movf	SetTxData@ID_data_set+2,w
  8117  06A0  318B  2373  3186   	fcall	_SetFixedLengthCode
  8118  06A3  0874               	movf	?_SetFixedLengthCode+1,w
  8119  06A4  0020               	movlb	0	; select bank0
  8120  06A5  00DF               	movwf	SetTxData@unii+1
  8121  06A6  0873               	movf	?_SetFixedLengthCode,w
  8122  06A7  00DE               	movwf	SetTxData@unii
  8123  06A8                     l4949:
  8124                           
  8125                           ;../Projects/src/EXIT_FUN.c: 157:  m_RFNormalBuf[count_set++] = unii.uc[0] ;
  8126  06A8  085E               	movf	SetTxData@unii,w
  8127  06A9  00D8               	movwf	??_SetTxData
  8128  06AA  085D               	movf	SetTxData@count_set,w
  8129  06AB  3E20               	addlw	(low (_m_RFNormalBuf| (0+256)))& (0+255)
  8130  06AC  0086               	movwf	6
  8131  06AD  3001               	movlw	1	; select bank2/3
  8132  06AE  0087               	movwf	7
  8133  06AF  0858               	movf	??_SetTxData,w
  8134  06B0  0081               	movwf	1
  8135  06B1                     l4951:
  8136  06B1  3001               	movlw	1
  8137  06B2  00D8               	movwf	??_SetTxData
  8138  06B3  0858               	movf	??_SetTxData,w
  8139  06B4  07DD               	addwf	SetTxData@count_set,f
  8140  06B5                     l4953:
  8141                           
  8142                           ;../Projects/src/EXIT_FUN.c: 158:  m_RFNormalBuf[count_set++] = unii.uc[1] ;
  8143  06B5  085F               	movf	SetTxData@unii+1,w
  8144  06B6  00D8               	movwf	??_SetTxData
  8145  06B7  085D               	movf	SetTxData@count_set,w
  8146  06B8  3E20               	addlw	(low (_m_RFNormalBuf| (0+256)))& (0+255)
  8147  06B9  0086               	movwf	6
  8148  06BA  3001               	movlw	1	; select bank2/3
  8149  06BB  0087               	movwf	7
  8150  06BC  0858               	movf	??_SetTxData,w
  8151  06BD  0081               	movwf	1
  8152  06BE                     l4955:
  8153  06BE  3001               	movlw	1
  8154  06BF  00D8               	movwf	??_SetTxData
  8155  06C0  0858               	movf	??_SetTxData,w
  8156  06C1  07DD               	addwf	SetTxData@count_set,f
  8157                           
  8158                           ;../Projects/src/EXIT_FUN.c: 159:  unii.ui = SetFixedLengthCode(ID_data_set.IDB[1]) ;
  8159  06C2  0854               	movf	SetTxData@ID_data_set+1,w
  8160  06C3  318B  2373  3186   	fcall	_SetFixedLengthCode
  8161  06C6  0874               	movf	?_SetFixedLengthCode+1,w
  8162  06C7  0020               	movlb	0	; select bank0
  8163  06C8  00DF               	movwf	SetTxData@unii+1
  8164  06C9  0873               	movf	?_SetFixedLengthCode,w
  8165  06CA  00DE               	movwf	SetTxData@unii
  8166  06CB                     l4957:
  8167                           
  8168                           ;../Projects/src/EXIT_FUN.c: 160:  m_RFNormalBuf[count_set++] = unii.uc[0] ;
  8169  06CB  085E               	movf	SetTxData@unii,w
  8170  06CC  00D8               	movwf	??_SetTxData
  8171  06CD  085D               	movf	SetTxData@count_set,w
  8172  06CE  3E20               	addlw	(low (_m_RFNormalBuf| (0+256)))& (0+255)
  8173  06CF  0086               	movwf	6
  8174  06D0  3001               	movlw	1	; select bank2/3
  8175  06D1  0087               	movwf	7
  8176  06D2  0858               	movf	??_SetTxData,w
  8177  06D3  0081               	movwf	1
  8178  06D4                     l4959:
  8179  06D4  3001               	movlw	1
  8180  06D5  00D8               	movwf	??_SetTxData
  8181  06D6  0858               	movf	??_SetTxData,w
  8182  06D7  07DD               	addwf	SetTxData@count_set,f
  8183  06D8                     l4961:
  8184                           
  8185                           ;../Projects/src/EXIT_FUN.c: 161:  m_RFNormalBuf[count_set++] = unii.uc[1] ;
  8186  06D8  085F               	movf	SetTxData@unii+1,w
  8187  06D9  00D8               	movwf	??_SetTxData
  8188  06DA  085D               	movf	SetTxData@count_set,w
  8189  06DB  3E20               	addlw	(low (_m_RFNormalBuf| (0+256)))& (0+255)
  8190  06DC  0086               	movwf	6
  8191  06DD  3001               	movlw	1	; select bank2/3
  8192  06DE  0087               	movwf	7
  8193  06DF  0858               	movf	??_SetTxData,w
  8194  06E0  0081               	movwf	1
  8195  06E1                     l4963:
  8196  06E1  3001               	movlw	1
  8197  06E2  00D8               	movwf	??_SetTxData
  8198  06E3  0858               	movf	??_SetTxData,w
  8199  06E4  07DD               	addwf	SetTxData@count_set,f
  8200                           
  8201                           ;../Projects/src/EXIT_FUN.c: 163:  unii.ui = SetFixedLengthCode(Control_code_set) ;
  8202  06E5  0857               	movf	SetTxData@Control_code_set,w
  8203  06E6  318B  2373  3186   	fcall	_SetFixedLengthCode
  8204  06E9  0874               	movf	?_SetFixedLengthCode+1,w
  8205  06EA  0020               	movlb	0	; select bank0
  8206  06EB  00DF               	movwf	SetTxData@unii+1
  8207  06EC  0873               	movf	?_SetFixedLengthCode,w
  8208  06ED  00DE               	movwf	SetTxData@unii
  8209  06EE                     l4965:
  8210                           
  8211                           ;../Projects/src/EXIT_FUN.c: 164:  m_RFNormalBuf[count_set++] = unii.uc[0] ;
  8212  06EE  085E               	movf	SetTxData@unii,w
  8213  06EF  00D8               	movwf	??_SetTxData
  8214  06F0  085D               	movf	SetTxData@count_set,w
  8215  06F1  3E20               	addlw	(low (_m_RFNormalBuf| (0+256)))& (0+255)
  8216  06F2  0086               	movwf	6
  8217  06F3  3001               	movlw	1	; select bank2/3
  8218  06F4  0087               	movwf	7
  8219  06F5  0858               	movf	??_SetTxData,w
  8220  06F6  0081               	movwf	1
  8221  06F7                     l4967:
  8222  06F7  3001               	movlw	1
  8223  06F8  00D8               	movwf	??_SetTxData
  8224  06F9  0858               	movf	??_SetTxData,w
  8225  06FA  07DD               	addwf	SetTxData@count_set,f
  8226  06FB                     l4969:
  8227                           
  8228                           ;../Projects/src/EXIT_FUN.c: 165:  m_RFNormalBuf[count_set++] = unii.uc[1] ;
  8229  06FB  085F               	movf	SetTxData@unii+1,w
  8230  06FC  00D8               	movwf	??_SetTxData
  8231  06FD  085D               	movf	SetTxData@count_set,w
  8232  06FE  3E20               	addlw	(low (_m_RFNormalBuf| (0+256)))& (0+255)
  8233  06FF  0086               	movwf	6
  8234  0700  3001               	movlw	1	; select bank2/3
  8235  0701  0087               	movwf	7
  8236  0702  0858               	movf	??_SetTxData,w
  8237  0703  0081               	movwf	1
  8238  0704                     l4971:
  8239  0704  3001               	movlw	1
  8240  0705  00D8               	movwf	??_SetTxData
  8241  0706  0858               	movf	??_SetTxData,w
  8242  0707  07DD               	addwf	SetTxData@count_set,f
  8243  0708                     l4973:
  8244                           
  8245                           ;../Projects/src/EXIT_FUN.c: 167:  unii.uc[1] = ID_data_set.IDB[1] ;
  8246  0708  0854               	movf	SetTxData@ID_data_set+1,w
  8247  0709  00D8               	movwf	??_SetTxData
  8248  070A  0858               	movf	??_SetTxData,w
  8249  070B  00DF               	movwf	SetTxData@unii+1
  8250  070C                     l4975:
  8251                           
  8252                           ;../Projects/src/EXIT_FUN.c: 168:  unii.uc[0] = Control_code_set;
  8253  070C  0857               	movf	SetTxData@Control_code_set,w
  8254  070D  00D8               	movwf	??_SetTxData
  8255  070E  0858               	movf	??_SetTxData,w
  8256  070F  00DE               	movwf	SetTxData@unii
  8257  0710                     l4977:
  8258                           
  8259                           ;../Projects/src/EXIT_FUN.c: 169:  unij.uc[1] = ID_data_set.IDB[3] ;
  8260  0710  0856               	movf	SetTxData@ID_data_set+3,w
  8261  0711  00D8               	movwf	??_SetTxData
  8262  0712  0858               	movf	??_SetTxData,w
  8263  0713  00DC               	movwf	SetTxData@unij+1
  8264  0714                     l4979:
  8265                           
  8266                           ;../Projects/src/EXIT_FUN.c: 170:  unij.uc[0] = ID_data_set.IDB[2] ;
  8267  0714  0855               	movf	SetTxData@ID_data_set+2,w
  8268  0715  00D8               	movwf	??_SetTxData
  8269  0716  0858               	movf	??_SetTxData,w
  8270  0717  00DB               	movwf	SetTxData@unij
  8271  0718                     l4981:
  8272                           
  8273                           ;../Projects/src/EXIT_FUN.c: 171:  unik.ui = unii.ui + unij.ui ;
  8274  0718  085B               	movf	SetTxData@unij,w
  8275  0719  075E               	addwf	SetTxData@unii,w
  8276  071A  00D9               	movwf	SetTxData@unik
  8277  071B  085C               	movf	SetTxData@unij+1,w
  8278  071C  3D5F               	addwfc	SetTxData@unii+1,w
  8279  071D  00DA               	movwf	SetTxData@unik+1
  8280  071E                     l4983:
  8281                           
  8282                           ;../Projects/src/EXIT_FUN.c: 172:  unii.ui = SetFixedLengthCode(unik.uc[1]) ;
  8283  071E  085A               	movf	SetTxData@unik+1,w
  8284  071F  318B  2373  3186   	fcall	_SetFixedLengthCode
  8285  0722  0874               	movf	?_SetFixedLengthCode+1,w
  8286  0723  0020               	movlb	0	; select bank0
  8287  0724  00DF               	movwf	SetTxData@unii+1
  8288  0725  0873               	movf	?_SetFixedLengthCode,w
  8289  0726  00DE               	movwf	SetTxData@unii
  8290  0727                     l4985:
  8291                           
  8292                           ;../Projects/src/EXIT_FUN.c: 173:  m_RFNormalBuf[count_set++] = unii.uc[0] ;
  8293  0727  085E               	movf	SetTxData@unii,w
  8294  0728  00D8               	movwf	??_SetTxData
  8295  0729  085D               	movf	SetTxData@count_set,w
  8296  072A  3E20               	addlw	(low (_m_RFNormalBuf| (0+256)))& (0+255)
  8297  072B  0086               	movwf	6
  8298  072C  3001               	movlw	1	; select bank2/3
  8299  072D  0087               	movwf	7
  8300  072E  0858               	movf	??_SetTxData,w
  8301  072F  0081               	movwf	1
  8302  0730                     l4987:
  8303  0730  3001               	movlw	1
  8304  0731  00D8               	movwf	??_SetTxData
  8305  0732  0858               	movf	??_SetTxData,w
  8306  0733  07DD               	addwf	SetTxData@count_set,f
  8307                           
  8308                           ;../Projects/src/EXIT_FUN.c: 174:  m_RFNormalBuf[count_set++] = unii.uc[1] ;
  8309  0734  085F               	movf	SetTxData@unii+1,w
  8310  0735  00D8               	movwf	??_SetTxData
  8311  0736  085D               	movf	SetTxData@count_set,w
  8312  0737  3E20               	addlw	(low (_m_RFNormalBuf| (0+256)))& (0+255)
  8313  0738  0086               	movwf	6
  8314  0739  3001               	movlw	1	; select bank2/3
  8315  073A  0087               	movwf	7
  8316  073B  0858               	movf	??_SetTxData,w
  8317  073C  0081               	movwf	1
  8318  073D                     l4989:
  8319  073D  3001               	movlw	1
  8320  073E  00D8               	movwf	??_SetTxData
  8321  073F  0858               	movf	??_SetTxData,w
  8322  0740  07DD               	addwf	SetTxData@count_set,f
  8323  0741                     l4991:
  8324                           
  8325                           ;../Projects/src/EXIT_FUN.c: 175:  unii.ui = SetFixedLengthCode(unik.uc[0]) ;
  8326  0741  0859               	movf	SetTxData@unik,w
  8327  0742  318B  2373  3186   	fcall	_SetFixedLengthCode
  8328  0745  0874               	movf	?_SetFixedLengthCode+1,w
  8329  0746  0020               	movlb	0	; select bank0
  8330  0747  00DF               	movwf	SetTxData@unii+1
  8331  0748  0873               	movf	?_SetFixedLengthCode,w
  8332  0749  00DE               	movwf	SetTxData@unii
  8333  074A                     l4993:
  8334                           
  8335                           ;../Projects/src/EXIT_FUN.c: 176:  m_RFNormalBuf[count_set++] = unii.uc[0] ;
  8336  074A  085E               	movf	SetTxData@unii,w
  8337  074B  00D8               	movwf	??_SetTxData
  8338  074C  085D               	movf	SetTxData@count_set,w
  8339  074D  3E20               	addlw	(low (_m_RFNormalBuf| (0+256)))& (0+255)
  8340  074E  0086               	movwf	6
  8341  074F  3001               	movlw	1	; select bank2/3
  8342  0750  0087               	movwf	7
  8343  0751  0858               	movf	??_SetTxData,w
  8344  0752  0081               	movwf	1
  8345  0753                     l4995:
  8346  0753  3001               	movlw	1
  8347  0754  00D8               	movwf	??_SetTxData
  8348  0755  0858               	movf	??_SetTxData,w
  8349  0756  07DD               	addwf	SetTxData@count_set,f
  8350  0757                     l4997:
  8351                           
  8352                           ;../Projects/src/EXIT_FUN.c: 177:  m_RFNormalBuf[count_set++] = unii.uc[1] ;
  8353  0757  085F               	movf	SetTxData@unii+1,w
  8354  0758  00D8               	movwf	??_SetTxData
  8355  0759  085D               	movf	SetTxData@count_set,w
  8356  075A  3E20               	addlw	(low (_m_RFNormalBuf| (0+256)))& (0+255)
  8357  075B  0086               	movwf	6
  8358  075C  3001               	movlw	1	; select bank2/3
  8359  075D  0087               	movwf	7
  8360  075E  0858               	movf	??_SetTxData,w
  8361  075F  0081               	movwf	1
  8362  0760                     l4999:
  8363  0760  3001               	movlw	1
  8364  0761  00D8               	movwf	??_SetTxData
  8365  0762  0858               	movf	??_SetTxData,w
  8366  0763  07DD               	addwf	SetTxData@count_set,f
  8367  0764                     l68:
  8368  0764  0008               	return
  8369  0765                     __end_of_SetTxData:
  8370                           
  8371                           	psect	text31
  8372  0B73                     __ptext31:	
  8373 ;; *************** function _SetFixedLengthCode *****************
  8374 ;; Defined at:
  8375 ;;		line 180 in file "../Projects/src/EXIT_FUN.c"
  8376 ;; Parameters:    Size  Location     Type
  8377 ;;  data            1    wreg     unsigned char 
  8378 ;; Auto vars:     Size  Location     Type
  8379 ;;  data            1    6[COMMON] unsigned char 
  8380 ;;  code            2    7[COMMON] unsigned int 
  8381 ;;  i               1    9[COMMON] unsigned char 
  8382 ;; Return value:  Size  Location     Type
  8383 ;;                  2    3[COMMON] unsigned int 
  8384 ;; Registers used:
  8385 ;;		wreg, status,2, status,0
  8386 ;; Tracked objects:
  8387 ;;		On entry : 0/0
  8388 ;;		On exit  : 0/0
  8389 ;;		Unchanged: 0/0
  8390 ;; Data sizes:     COMMON   BANK0   BANK1   BANK2   BANK3   BANK4   BANK5   BANK6   BANK7   BANK8   BANK9  BANK10  BANK1
      +1  BANK12
  8391 ;;      Params:         2       0       0       0       0       0       0       0       0       0       0       0       
      +0       0
  8392 ;;      Locals:         4       0       0       0       0       0       0       0       0       0       0       0       
      +0       0
  8393 ;;      Temps:          1       0       0       0       0       0       0       0       0       0       0       0       
      +0       0
  8394 ;;      Totals:         7       0       0       0       0       0       0       0       0       0       0       0       
      +0       0
  8395 ;;Total ram usage:        7 bytes
  8396 ;; Hardware stack levels used:    1
  8397 ;; Hardware stack levels required when called:    2
  8398 ;; This function calls:
  8399 ;;		Nothing
  8400 ;; This function is called by:
  8401 ;;		_SetTxData
  8402 ;; This function uses a non-reentrant model
  8403 ;;
  8404                           
  8405                           
  8406                           ;psect for function _SetFixedLengthCode
  8407  0B73                     _SetFixedLengthCode:
  8408                           
  8409                           ;incstack = 0
  8410                           ; Regs used in _SetFixedLengthCode: [wreg+status,2+status,0]
  8411                           ;SetFixedLengthCode@data stored from wreg
  8412  0B73  00F6               	movwf	SetFixedLengthCode@data
  8413  0B74                     l3101:
  8414                           
  8415                           ;../Projects/src/EXIT_FUN.c: 180: unsigned int SetFixedLengthCode(unsigned char data );.
      +                          ./Projects/src/EXIT_FUN.c: 181: {;../Projects/src/EXIT_FUN.c: 182:  unsigned int code ;;
      +                          ../Projects/src/EXIT_FUN.c: 183:  unsigned char i ;;../Projects/src/EXIT_FUN.c: 185:  fo
      +                          r (i=0; i<8; i++)
  8416  0B74  01F9               	clrf	SetFixedLengthCode@i
  8417  0B75                     l3107:
  8418                           
  8419                           ;../Projects/src/EXIT_FUN.c: 186:  {;../Projects/src/EXIT_FUN.c: 187:   code <<=2 ;
  8420  0B75  3002               	movlw	2
  8421  0B76                     u555:
  8422  0B76  35F7               	lslf	SetFixedLengthCode@code,f
  8423  0B77  0DF8               	rlf	SetFixedLengthCode@code+1,f
  8424  0B78  0B89               	decfsz	9,f
  8425  0B79  2B76               	goto	u555
  8426  0B7A                     l3109:
  8427                           
  8428                           ;../Projects/src/EXIT_FUN.c: 188:   if ( data & 0x01)
  8429  0B7A  1C76               	btfss	SetFixedLengthCode@data,0
  8430  0B7B  2B7D               	goto	u561
  8431  0B7C  2B7E               	goto	u560
  8432  0B7D                     u561:
  8433  0B7D  2B80               	goto	l73
  8434  0B7E                     u560:
  8435  0B7E                     l3111:
  8436                           
  8437                           ;../Projects/src/EXIT_FUN.c: 189:   {;../Projects/src/EXIT_FUN.c: 190:    code |= 0x0002
      +                           ;
  8438  0B7E  14F7               	bsf	SetFixedLengthCode@code,1
  8439                           
  8440                           ;../Projects/src/EXIT_FUN.c: 191:   }
  8441  0B7F  2B81               	goto	l3113
  8442  0B80                     l73:	
  8443                           ;../Projects/src/EXIT_FUN.c: 192:   else
  8444                           
  8445                           
  8446                           ;../Projects/src/EXIT_FUN.c: 193:   {;../Projects/src/EXIT_FUN.c: 194:    code |= 0x0001
      +                           ;
  8447  0B80  1477               	bsf	SetFixedLengthCode@code,0
  8448  0B81                     l3113:
  8449                           
  8450                           ;../Projects/src/EXIT_FUN.c: 197:   data >>= 1 ;
  8451  0B81  1003               	clrc
  8452  0B82  0CF6               	rrf	SetFixedLengthCode@data,f
  8453  0B83                     l3115:
  8454                           
  8455                           ;../Projects/src/EXIT_FUN.c: 198:  }
  8456  0B83  3001               	movlw	1
  8457  0B84  00F5               	movwf	??_SetFixedLengthCode
  8458  0B85  0875               	movf	??_SetFixedLengthCode,w
  8459  0B86  07F9               	addwf	SetFixedLengthCode@i,f
  8460  0B87                     l3117:
  8461  0B87  3008               	movlw	8
  8462  0B88  0279               	subwf	SetFixedLengthCode@i,w
  8463  0B89  1C03               	skipc
  8464  0B8A  2B8C               	goto	u571
  8465  0B8B  2B8D               	goto	u570
  8466  0B8C                     u571:
  8467  0B8C  2B75               	goto	l3107
  8468  0B8D                     u570:
  8469  0B8D                     l3119:
  8470                           
  8471                           ;../Projects/src/EXIT_FUN.c: 199:  return(code) ;
  8472  0B8D  0878               	movf	SetFixedLengthCode@code+1,w
  8473  0B8E  00F4               	movwf	?_SetFixedLengthCode+1
  8474  0B8F  0877               	movf	SetFixedLengthCode@code,w
  8475  0B90  00F3               	movwf	?_SetFixedLengthCode
  8476  0B91                     l75:
  8477  0B91  0008               	return
  8478  0B92                     __end_of_SetFixedLengthCode:
  8479                           
  8480                           	psect	text32
  8481  0002                     __ptext32:	
  8482 ;; *************** function __FuncAutoTxStop *****************
  8483 ;; Defined at:
  8484 ;;		line 613 in file "../Projects/src/key_and_Other.c"
  8485 ;; Parameters:    Size  Location     Type
  8486 ;;		None
  8487 ;; Auto vars:     Size  Location     Type
  8488 ;;		None
  8489 ;; Return value:  Size  Location     Type
  8490 ;;                  1    wreg      void 
  8491 ;; Registers used:
  8492 ;;		None
  8493 ;; Tracked objects:
  8494 ;;		On entry : 0/0
  8495 ;;		On exit  : 0/0
  8496 ;;		Unchanged: 0/0
  8497 ;; Data sizes:     COMMON   BANK0   BANK1   BANK2   BANK3   BANK4   BANK5   BANK6   BANK7   BANK8   BANK9  BANK10  BANK1
      +1  BANK12
  8498 ;;      Params:         0       0       0       0       0       0       0       0       0       0       0       0       
      +0       0
  8499 ;;      Locals:         0       0       0       0       0       0       0       0       0       0       0       0       
      +0       0
  8500 ;;      Temps:          0       0       0       0       0       0       0       0       0       0       0       0       
      +0       0
  8501 ;;      Totals:         0       0       0       0       0       0       0       0       0       0       0       0       
      +0       0
  8502 ;;Total ram usage:        0 bytes
  8503 ;; Hardware stack levels used:    1
  8504 ;; Hardware stack levels required when called:    2
  8505 ;; This function calls:
  8506 ;;		Nothing
  8507 ;; This function is called by:
  8508 ;;		__KeyInTx
  8509 ;; This function uses a non-reentrant model
  8510 ;;
  8511                           
  8512                           
  8513                           ;psect for function __FuncAutoTxStop
  8514  0002                     __FuncAutoTxStop:
  8515  0002                     l611:	
  8516                           ;incstack = 0
  8517                           ; Regs used in __FuncAutoTxStop: []
  8518                           
  8519  0002  0008               	return
  8520  0003                     __end_of__FuncAutoTxStop:
  8521                           
  8522                           	psect	text33
  8523  09CC                     __ptext33:	
  8524 ;; *************** function __FuncAutoTxStart *****************
  8525 ;; Defined at:
  8526 ;;		line 609 in file "../Projects/src/key_and_Other.c"
  8527 ;; Parameters:    Size  Location     Type
  8528 ;;		None
  8529 ;; Auto vars:     Size  Location     Type
  8530 ;;		None
  8531 ;; Return value:  Size  Location     Type
  8532 ;;                  1    wreg      void 
  8533 ;; Registers used:
  8534 ;;		None
  8535 ;; Tracked objects:
  8536 ;;		On entry : 0/0
  8537 ;;		On exit  : 0/0
  8538 ;;		Unchanged: 0/0
  8539 ;; Data sizes:     COMMON   BANK0   BANK1   BANK2   BANK3   BANK4   BANK5   BANK6   BANK7   BANK8   BANK9  BANK10  BANK1
      +1  BANK12
  8540 ;;      Params:         0       0       0       0       0       0       0       0       0       0       0       0       
      +0       0
  8541 ;;      Locals:         0       0       0       0       0       0       0       0       0       0       0       0       
      +0       0
  8542 ;;      Temps:          0       0       0       0       0       0       0       0       0       0       0       0       
      +0       0
  8543 ;;      Totals:         0       0       0       0       0       0       0       0       0       0       0       0       
      +0       0
  8544 ;;Total ram usage:        0 bytes
  8545 ;; Hardware stack levels used:    1
  8546 ;; Hardware stack levels required when called:    2
  8547 ;; This function calls:
  8548 ;;		Nothing
  8549 ;; This function is called by:
  8550 ;;		__KeyInTx
  8551 ;; This function uses a non-reentrant model
  8552 ;;
  8553                           
  8554                           
  8555                           ;psect for function __FuncAutoTxStart
  8556  09CC                     __FuncAutoTxStart:
  8557  09CC                     l608:	
  8558                           ;incstack = 0
  8559                           ; Regs used in __FuncAutoTxStart: []
  8560                           
  8561  09CC  0008               	return
  8562  09CD                     __end_of__FuncAutoTxStart:
  8563                           
  8564                           	psect	text34
  8565  003A                     __ptext34:	
  8566 ;; *************** function __DupliFuncSetMode *****************
  8567 ;; Defined at:
  8568 ;;		line 802 in file "../Projects/src/key_and_Other.c"
  8569 ;; Parameters:    Size  Location     Type
  8570 ;;		None
  8571 ;; Auto vars:     Size  Location     Type
  8572 ;;  m_KeyOpt        1    9[COMMON] unsigned char 
  8573 ;; Return value:  Size  Location     Type
  8574 ;;                  1    wreg      void 
  8575 ;; Registers used:
  8576 ;;		wreg, fsr0l, fsr0h, fsr1l, fsr1h, status,2, status,0, pclath, cstack
  8577 ;; Tracked objects:
  8578 ;;		On entry : 0/0
  8579 ;;		On exit  : 0/0
  8580 ;;		Unchanged: 0/0
  8581 ;; Data sizes:     COMMON   BANK0   BANK1   BANK2   BANK3   BANK4   BANK5   BANK6   BANK7   BANK8   BANK9  BANK10  BANK1
      +1  BANK12
  8582 ;;      Params:         0       0       0       0       0       0       0       0       0       0       0       0       
      +0       0
  8583 ;;      Locals:         1       0       0       0       0       0       0       0       0       0       0       0       
      +0       0
  8584 ;;      Temps:          0       2       0       0       0       0       0       0       0       0       0       0       
      +0       0
  8585 ;;      Totals:         1       2       0       0       0       0       0       0       0       0       0       0       
      +0       0
  8586 ;;Total ram usage:        3 bytes
  8587 ;; Hardware stack levels used:    1
  8588 ;; Hardware stack levels required when called:    4
  8589 ;; This function calls:
  8590 ;;		_KeyOpt_EEPROM_write
  8591 ;;		__DupliFuncClear
  8592 ;;		__ReqBuzzer
  8593 ;; This function is called by:
  8594 ;;		_key_check
  8595 ;; This function uses a non-reentrant model
  8596 ;;
  8597                           
  8598                           
  8599                           ;psect for function __DupliFuncSetMode
  8600  003A                     __DupliFuncSetMode:
  8601  003A                     l5671:	
  8602                           ;incstack = 0
  8603                           ; Regs used in __DupliFuncSetMode: [wreg-fsr1h+status,2+status,0+pclath+cstack]
  8604                           
  8605                           
  8606                           ;../Projects/src/key_and_Other.c: 804:   unsigned char m_KeyOpt;;../Projects/src/key_and
      +                          _Other.c: 805:  switch ( m_KeyOptSetMode )
  8607  003A  29BD               	goto	l5891
  8608  003B                     l661:	
  8609                           ;../Projects/src/key_and_Other.c: 806:  {;../Projects/src/key_and_Other.c: 807:   case 1
      +                           :
  8610                           
  8611                           
  8612                           ;../Projects/src/key_and_Other.c: 808:    if ( !RAM_RegSW.BIT.Bit7 )
  8613  003B  1BC3               	btfsc	_RAM_RegSW,7	;volatile
  8614  003C  283E               	goto	u3741
  8615  003D  283F               	goto	u3740
  8616  003E                     u3741:
  8617  003E  2848               	goto	l5679
  8618  003F                     u3740:
  8619  003F                     l5673:
  8620                           
  8621                           ;../Projects/src/key_and_Other.c: 809:    {;../Projects/src/key_and_Other.c: 810:     m_
      +                          KeyDupliSetTimeout = 1000 ;
  8622  003F  30E8               	movlw	232
  8623  0040  00A8               	movwf	_m_KeyDupliSetTimeout
  8624  0041  3003               	movlw	3
  8625  0042  00A9               	movwf	_m_KeyDupliSetTimeout+1
  8626  0043                     l5675:
  8627                           
  8628                           ;../Projects/src/key_and_Other.c: 811:     ++m_KeyOptSetMode ;
  8629  0043  3001               	movlw	1
  8630  0044  00D3               	movwf	??__DupliFuncSetMode
  8631  0045  0853               	movf	??__DupliFuncSetMode,w
  8632  0046  07C0               	addwf	_m_KeyOptSetMode,f
  8633  0047  29E6               	goto	l663
  8634  0048                     l5679:
  8635                           
  8636                           ;../Projects/src/key_and_Other.c: 814:    if ( !m_KeyDupliSetTimeout )
  8637  0048  0828               	movf	_m_KeyDupliSetTimeout,w
  8638  0049  0429               	iorwf	_m_KeyDupliSetTimeout+1,w
  8639  004A  1D03               	btfss	3,2
  8640  004B  284D               	goto	u3751
  8641  004C  284E               	goto	u3750
  8642  004D                     u3751:
  8643  004D  29E6               	goto	l663
  8644  004E                     u3750:
  8645  004E                     l5681:
  8646                           
  8647                           ;../Projects/src/key_and_Other.c: 815:    {;../Projects/src/key_and_Other.c: 816:     m_
      +                          KeyOptSetMode = 10 ;
  8648  004E  300A               	movlw	10
  8649  004F  00D3               	movwf	??__DupliFuncSetMode
  8650  0050  0853               	movf	??__DupliFuncSetMode,w
  8651  0051  00C0               	movwf	_m_KeyOptSetMode
  8652  0052  29E6               	goto	l663
  8653  0053                     l5683:
  8654                           
  8655                           ;../Projects/src/key_and_Other.c: 824:    if ( !m_KeyDupliSetTimeout )
  8656  0053  0828               	movf	_m_KeyDupliSetTimeout,w
  8657  0054  0429               	iorwf	_m_KeyDupliSetTimeout+1,w
  8658  0055  1D03               	btfss	3,2
  8659  0056  2858               	goto	u3761
  8660  0057  2859               	goto	u3760
  8661  0058                     u3761:
  8662  0058  286E               	goto	l5693
  8663  0059                     u3760:
  8664  0059                     l5685:
  8665                           
  8666                           ;../Projects/src/key_and_Other.c: 825:    {;../Projects/src/key_and_Other.c: 826:     ++
      +                          m_KeyOptSetMode;
  8667  0059  3001               	movlw	1
  8668  005A  00D3               	movwf	??__DupliFuncSetMode
  8669  005B  0853               	movf	??__DupliFuncSetMode,w
  8670  005C  07C0               	addwf	_m_KeyOptSetMode,f
  8671  005D                     l5687:
  8672                           
  8673                           ;../Projects/src/key_and_Other.c: 827:     m_KeyDupliSetTimeout = 3000 ;
  8674  005D  30B8               	movlw	184
  8675  005E  00A8               	movwf	_m_KeyDupliSetTimeout
  8676  005F  300B               	movlw	11
  8677  0060  00A9               	movwf	_m_KeyDupliSetTimeout+1
  8678  0061                     l5689:
  8679                           
  8680                           ;../Projects/src/key_and_Other.c: 829:     _ReqBuzzer(103,103,0);
  8681  0061  3067               	movlw	103
  8682  0062  00F3               	movwf	__ReqBuzzer@BEEP_on_SET
  8683  0063  3000               	movlw	0
  8684  0064  00F4               	movwf	__ReqBuzzer@BEEP_on_SET+1
  8685  0065  3067               	movlw	103
  8686  0066  00D3               	movwf	??__DupliFuncSetMode
  8687  0067  0853               	movf	??__DupliFuncSetMode,w
  8688  0068  00F5               	movwf	__ReqBuzzer@BEEP_off_SET
  8689  0069  01F6               	clrf	__ReqBuzzer@BEEP_freq_SET
  8690  006A  318B  2319  3180   	fcall	__ReqBuzzer
  8691  006D                     l5691:
  8692                           
  8693                           ;../Projects/src/key_and_Other.c: 830:     RAM_OP2.BIT.Bit3=1;
  8694  006D  15FA               	bsf	_RAM_OP2,3	;volatile
  8695  006E                     l5693:
  8696                           
  8697                           ;../Projects/src/key_and_Other.c: 833:    if ( m_KindOfKey != 0 && m_KindOfKey != 0xFF )
  8698  006E  0020               	movlb	0	; select bank0
  8699  006F  0844               	movf	_m_KindOfKey,w
  8700  0070  1903               	btfsc	3,2
  8701  0071  2873               	goto	u3771
  8702  0072  2874               	goto	u3770
  8703  0073                     u3771:
  8704  0073  29E6               	goto	l663
  8705  0074                     u3770:
  8706  0074                     l5695:
  8707  0074  0A44               	incf	_m_KindOfKey,w
  8708  0075  1903               	btfsc	3,2
  8709  0076  2878               	goto	u3781
  8710  0077  2879               	goto	u3780
  8711  0078                     u3781:
  8712  0078  29E6               	goto	l663
  8713  0079                     u3780:
  8714  0079                     l5697:
  8715                           
  8716                           ;../Projects/src/key_and_Other.c: 834:    {;../Projects/src/key_and_Other.c: 835:     _D
      +                          upliFuncClear() ;
  8717  0079  318A  224B  3180   	fcall	__DupliFuncClear
  8718  007C  29E6               	goto	l663
  8719  007D                     l5699:
  8720                           
  8721                           ;../Projects/src/key_and_Other.c: 840:    if ( !m_KeyDupliSetTimeout )
  8722  007D  0828               	movf	_m_KeyDupliSetTimeout,w
  8723  007E  0429               	iorwf	_m_KeyDupliSetTimeout+1,w
  8724  007F  1D03               	btfss	3,2
  8725  0080  2882               	goto	u3791
  8726  0081  2883               	goto	u3790
  8727  0082                     u3791:
  8728  0082  2884               	goto	l5705
  8729  0083                     u3790:
  8730  0083  2879               	goto	l5697
  8731  0084                     l5705:
  8732                           
  8733                           ;../Projects/src/key_and_Other.c: 846:    if ( m_KindOfKey == 0 || m_KindOfKey == 0xFF )
  8734  0084  0844               	movf	_m_KindOfKey,w
  8735  0085  1903               	btfsc	3,2
  8736  0086  2888               	goto	u3801
  8737  0087  2889               	goto	u3800
  8738  0088                     u3801:
  8739  0088  29E6               	goto	l663
  8740  0089                     u3800:
  8741  0089                     l5707:
  8742  0089  0A44               	incf	_m_KindOfKey,w
  8743  008A  1D03               	btfss	3,2
  8744  008B  288D               	goto	u3811
  8745  008C  288E               	goto	u3810
  8746  008D                     u3811:
  8747  008D  288F               	goto	l671
  8748  008E                     u3810:
  8749  008E  29E6               	goto	l663
  8750  008F                     l671:	
  8751                           ;../Projects/src/key_and_Other.c: 849:    }
  8752                           
  8753                           
  8754                           ;../Projects/src/key_and_Other.c: 851:    if ( RAM_RegSW.BIT.Bit5 )
  8755  008F  1EC3               	btfss	_RAM_RegSW,5	;volatile
  8756  0090  2892               	goto	u3821
  8757  0091  2893               	goto	u3820
  8758  0092                     u3821:
  8759  0092  289A               	goto	l5719
  8760  0093                     u3820:
  8761  0093                     l5709:
  8762                           
  8763                           ;../Projects/src/key_and_Other.c: 852:    {;../Projects/src/key_and_Other.c: 853:     if
      +                           ( m_KindOfKey == 2 )
  8764  0093  3002               	movlw	2
  8765  0094  0644               	xorwf	_m_KindOfKey,w
  8766  0095  1D03               	btfss	3,2
  8767  0096  2898               	goto	u3831
  8768  0097  2899               	goto	u3830
  8769  0098                     u3831:
  8770  0098  2879               	goto	l5697
  8771  0099                     u3830:
  8772  0099  283F               	goto	l5673
  8773  009A                     l5719:
  8774                           
  8775                           ;../Projects/src/key_and_Other.c: 866:    {;../Projects/src/key_and_Other.c: 867:     if
      +                           ( m_KindOfKey == 1 )
  8776  009A  0344               	decf	_m_KindOfKey,w
  8777  009B  1D03               	btfss	3,2
  8778  009C  289E               	goto	u3841
  8779  009D  289F               	goto	u3840
  8780  009E                     u3841:
  8781  009E  2879               	goto	l5697
  8782  009F                     u3840:
  8783  009F  283F               	goto	l5673
  8784  00A0                     l5729:
  8785                           
  8786                           ;../Projects/src/key_and_Other.c: 882:    if ( !m_KeyDupliSetTimeout )
  8787  00A0  0828               	movf	_m_KeyDupliSetTimeout,w
  8788  00A1  0429               	iorwf	_m_KeyDupliSetTimeout+1,w
  8789  00A2  1D03               	btfss	3,2
  8790  00A3  28A5               	goto	u3851
  8791  00A4  28A6               	goto	u3850
  8792  00A5                     u3851:
  8793  00A5  29E6               	goto	l663
  8794  00A6                     u3850:
  8795  00A6                     l5731:
  8796                           
  8797                           ;../Projects/src/key_and_Other.c: 883:    {;../Projects/src/key_and_Other.c: 884:     ++
      +                          m_KeyOptSetMode ;
  8798  00A6  3001               	movlw	1
  8799  00A7  00D3               	movwf	??__DupliFuncSetMode
  8800  00A8  0853               	movf	??__DupliFuncSetMode,w
  8801  00A9  07C0               	addwf	_m_KeyOptSetMode,f
  8802  00AA                     l5733:
  8803                           
  8804                           ;../Projects/src/key_and_Other.c: 885:     m_KeyDupliSetTimeout = 3000 ;
  8805  00AA  30B8               	movlw	184
  8806  00AB  00A8               	movwf	_m_KeyDupliSetTimeout
  8807  00AC  300B               	movlw	11
  8808  00AD  00A9               	movwf	_m_KeyDupliSetTimeout+1
  8809  00AE                     l5735:
  8810                           
  8811                           ;../Projects/src/key_and_Other.c: 887:     _ReqBuzzer(103,103,0);
  8812  00AE  3067               	movlw	103
  8813  00AF  00F3               	movwf	__ReqBuzzer@BEEP_on_SET
  8814  00B0  3000               	movlw	0
  8815  00B1  00F4               	movwf	__ReqBuzzer@BEEP_on_SET+1
  8816  00B2  3067               	movlw	103
  8817  00B3  00D3               	movwf	??__DupliFuncSetMode
  8818  00B4  0853               	movf	??__DupliFuncSetMode,w
  8819  00B5  00F5               	movwf	__ReqBuzzer@BEEP_off_SET
  8820  00B6  01F6               	clrf	__ReqBuzzer@BEEP_freq_SET
  8821  00B7  318B  2319  3180   	fcall	__ReqBuzzer
  8822  00BA                     l5737:
  8823                           
  8824                           ;../Projects/src/key_and_Other.c: 888:     RAM_OP2.BIT.Bit3=1;
  8825  00BA  15FA               	bsf	_RAM_OP2,3	;volatile
  8826  00BB  29E6               	goto	l663
  8827  00BC                     l5739:
  8828                           
  8829                           ;../Projects/src/key_and_Other.c: 898:    if ( !m_KeyDupliSetTimeout )
  8830  00BC  0828               	movf	_m_KeyDupliSetTimeout,w
  8831  00BD  0429               	iorwf	_m_KeyDupliSetTimeout+1,w
  8832  00BE  1D03               	btfss	3,2
  8833  00BF  28C1               	goto	u3861
  8834  00C0  28C2               	goto	u3860
  8835  00C1                     u3861:
  8836  00C1  28C3               	goto	l5745
  8837  00C2                     u3860:
  8838  00C2  2879               	goto	l5697
  8839  00C3                     l5745:
  8840                           
  8841                           ;../Projects/src/key_and_Other.c: 904:    if ( m_KindOfKey == 0 || m_KindOfKey == 0xFF )
  8842  00C3  0844               	movf	_m_KindOfKey,w
  8843  00C4  1903               	btfsc	3,2
  8844  00C5  28C7               	goto	u3871
  8845  00C6  28C8               	goto	u3870
  8846  00C7                     u3871:
  8847  00C7  29E6               	goto	l663
  8848  00C8                     u3870:
  8849  00C8                     l5747:
  8850  00C8  0A44               	incf	_m_KindOfKey,w
  8851  00C9  1D03               	btfss	3,2
  8852  00CA  28CC               	goto	u3881
  8853  00CB  28CD               	goto	u3880
  8854  00CC                     u3881:
  8855  00CC  28CE               	goto	l684
  8856  00CD                     u3880:
  8857  00CD  29E6               	goto	l663
  8858  00CE                     l684:	
  8859                           ;../Projects/src/key_and_Other.c: 907:    }
  8860                           
  8861                           
  8862                           ;../Projects/src/key_and_Other.c: 909:    if ( RAM_RegSW.BIT.Bit5 )
  8863  00CE  1EC3               	btfss	_RAM_RegSW,5	;volatile
  8864  00CF  28D1               	goto	u3891
  8865  00D0  28D2               	goto	u3890
  8866  00D1                     u3891:
  8867  00D1  28E2               	goto	l5761
  8868  00D2                     u3890:
  8869  00D2                     l5749:
  8870                           
  8871                           ;../Projects/src/key_and_Other.c: 910:    {;../Projects/src/key_and_Other.c: 911:     if
      +                           ( m_KindOfKey == 2 )
  8872  00D2  3002               	movlw	2
  8873  00D3  0644               	xorwf	_m_KindOfKey,w
  8874  00D4  1D03               	btfss	3,2
  8875  00D5  28D7               	goto	u3901
  8876  00D6  28D8               	goto	u3900
  8877  00D7                     u3901:
  8878  00D7  2879               	goto	l5697
  8879  00D8                     u3900:
  8880  00D8                     l5751:
  8881                           
  8882                           ;../Projects/src/key_and_Other.c: 912:     {;../Projects/src/key_and_Other.c: 913:      
      +                          m_KeyDupliSetTimeout = 1000 ;
  8883  00D8  30E8               	movlw	232
  8884  00D9  00A8               	movwf	_m_KeyDupliSetTimeout
  8885  00DA  3003               	movlw	3
  8886  00DB  00A9               	movwf	_m_KeyDupliSetTimeout+1
  8887  00DC                     l5753:
  8888                           
  8889                           ;../Projects/src/key_and_Other.c: 914:      ++m_KeyOptSetMode ;
  8890  00DC  3001               	movlw	1
  8891  00DD  00D3               	movwf	??__DupliFuncSetMode
  8892  00DE  0853               	movf	??__DupliFuncSetMode,w
  8893  00DF  07C0               	addwf	_m_KeyOptSetMode,f
  8894  00E0                     l5755:
  8895                           
  8896                           ;../Projects/src/key_and_Other.c: 915:      RAM_RegSW.BIT.Bit7 = 1 ;
  8897  00E0  17C3               	bsf	_RAM_RegSW,7	;volatile
  8898                           
  8899                           ;../Projects/src/key_and_Other.c: 916:     }
  8900  00E1  29E6               	goto	l663
  8901  00E2                     l5761:
  8902                           
  8903                           ;../Projects/src/key_and_Other.c: 924:    {;../Projects/src/key_and_Other.c: 925:     if
      +                           ( m_KindOfKey == 1 )
  8904  00E2  0344               	decf	_m_KindOfKey,w
  8905  00E3  1D03               	btfss	3,2
  8906  00E4  28E6               	goto	u3911
  8907  00E5  28E7               	goto	u3910
  8908  00E6                     u3911:
  8909  00E6  2879               	goto	l5697
  8910  00E7                     u3910:
  8911  00E7  283F               	goto	l5673
  8912  00E8                     l5771:
  8913                           
  8914                           ;../Projects/src/key_and_Other.c: 939:    if ( !m_KeyDupliSetTimeout )
  8915  00E8  0828               	movf	_m_KeyDupliSetTimeout,w
  8916  00E9  0429               	iorwf	_m_KeyDupliSetTimeout+1,w
  8917  00EA  1D03               	btfss	3,2
  8918  00EB  28ED               	goto	u3921
  8919  00EC  28EE               	goto	u3920
  8920  00ED                     u3921:
  8921  00ED  29E6               	goto	l663
  8922  00EE                     u3920:
  8923  00EE                     l5773:
  8924                           
  8925                           ;../Projects/src/key_and_Other.c: 940:    {;../Projects/src/key_and_Other.c: 941:     ++
      +                          m_KeyOptSetMode ;
  8926  00EE  3001               	movlw	1
  8927  00EF  00D3               	movwf	??__DupliFuncSetMode
  8928  00F0  0853               	movf	??__DupliFuncSetMode,w
  8929  00F1  07C0               	addwf	_m_KeyOptSetMode,f
  8930  00F2                     l5775:
  8931                           
  8932                           ;../Projects/src/key_and_Other.c: 942:     m_KeyDupliSetTimeout = 3000 ;
  8933  00F2  30B8               	movlw	184
  8934  00F3  00A8               	movwf	_m_KeyDupliSetTimeout
  8935  00F4  300B               	movlw	11
  8936  00F5  00A9               	movwf	_m_KeyDupliSetTimeout+1
  8937  00F6                     l5777:
  8938                           
  8939                           ;../Projects/src/key_and_Other.c: 944:     _ReqBuzzer(103,103,2);
  8940  00F6  3067               	movlw	103
  8941  00F7  00F3               	movwf	__ReqBuzzer@BEEP_on_SET
  8942  00F8  3000               	movlw	0
  8943  00F9  00F4               	movwf	__ReqBuzzer@BEEP_on_SET+1
  8944  00FA  3067               	movlw	103
  8945  00FB  00D3               	movwf	??__DupliFuncSetMode
  8946  00FC  0853               	movf	??__DupliFuncSetMode,w
  8947  00FD  00F5               	movwf	__ReqBuzzer@BEEP_off_SET
  8948  00FE  3002               	movlw	2
  8949  00FF  00D4               	movwf	??__DupliFuncSetMode+1
  8950  0100  0854               	movf	??__DupliFuncSetMode+1,w
  8951  0101  00F6               	movwf	__ReqBuzzer@BEEP_freq_SET
  8952  0102  318B  2319  3180   	fcall	__ReqBuzzer
  8953  0105                     l5779:
  8954                           
  8955                           ;../Projects/src/key_and_Other.c: 945:                                 RAM_OP2.BIT.Bit3=
      +                          1;
  8956  0105  15FA               	bsf	_RAM_OP2,3	;volatile
  8957  0106  29E6               	goto	l663
  8958  0107                     l5781:
  8959                           
  8960                           ;../Projects/src/key_and_Other.c: 955:    if ( !m_KeyDupliSetTimeout )
  8961  0107  0828               	movf	_m_KeyDupliSetTimeout,w
  8962  0108  0429               	iorwf	_m_KeyDupliSetTimeout+1,w
  8963  0109  1D03               	btfss	3,2
  8964  010A  290C               	goto	u3931
  8965  010B  290D               	goto	u3930
  8966  010C                     u3931:
  8967  010C  290E               	goto	l5787
  8968  010D                     u3930:
  8969  010D  2879               	goto	l5697
  8970  010E                     l5787:
  8971                           
  8972                           ;../Projects/src/key_and_Other.c: 961:    if ( m_KindOfKey == 0 || m_KindOfKey == 0xFF )
  8973  010E  0844               	movf	_m_KindOfKey,w
  8974  010F  1903               	btfsc	3,2
  8975  0110  2912               	goto	u3941
  8976  0111  2913               	goto	u3940
  8977  0112                     u3941:
  8978  0112  29E6               	goto	l663
  8979  0113                     u3940:
  8980  0113                     l5789:
  8981  0113  0A44               	incf	_m_KindOfKey,w
  8982  0114  1D03               	btfss	3,2
  8983  0115  2917               	goto	u3951
  8984  0116  2918               	goto	u3950
  8985  0117                     u3951:
  8986  0117  2919               	goto	l697
  8987  0118                     u3950:
  8988  0118  29E6               	goto	l663
  8989  0119                     l697:	
  8990                           ;../Projects/src/key_and_Other.c: 964:    }
  8991                           
  8992                           
  8993                           ;../Projects/src/key_and_Other.c: 966:    if ( RAM_RegSW.BIT.Bit5 )
  8994  0119  1EC3               	btfss	_RAM_RegSW,5	;volatile
  8995  011A  291C               	goto	u3961
  8996  011B  291D               	goto	u3960
  8997  011C                     u3961:
  8998  011C  292D               	goto	l5803
  8999  011D                     u3960:
  9000  011D                     l5791:
  9001                           
  9002                           ;../Projects/src/key_and_Other.c: 967:    {;../Projects/src/key_and_Other.c: 968:     if
      +                           ( m_KindOfKey == 2 )
  9003  011D  3002               	movlw	2
  9004  011E  0644               	xorwf	_m_KindOfKey,w
  9005  011F  1D03               	btfss	3,2
  9006  0120  2922               	goto	u3971
  9007  0121  2923               	goto	u3970
  9008  0122                     u3971:
  9009  0122  2879               	goto	l5697
  9010  0123                     u3970:
  9011  0123                     l5793:
  9012                           
  9013                           ;../Projects/src/key_and_Other.c: 969:     {;../Projects/src/key_and_Other.c: 970:      
      +                          m_KeyDupliSetTimeout = 10000 ;
  9014  0123  3010               	movlw	16
  9015  0124  00A8               	movwf	_m_KeyDupliSetTimeout
  9016  0125  3027               	movlw	39
  9017  0126  00A9               	movwf	_m_KeyDupliSetTimeout+1
  9018  0127                     l5795:
  9019                           
  9020                           ;../Projects/src/key_and_Other.c: 971:      ++m_KeyOptSetMode ;
  9021  0127  3001               	movlw	1
  9022  0128  00D3               	movwf	??__DupliFuncSetMode
  9023  0129  0853               	movf	??__DupliFuncSetMode,w
  9024  012A  07C0               	addwf	_m_KeyOptSetMode,f
  9025  012B                     l5797:
  9026                           
  9027                           ;../Projects/src/key_and_Other.c: 972:      RAM_RegSW.BIT.Bit7 = 1 ;
  9028  012B  17C3               	bsf	_RAM_RegSW,7	;volatile
  9029                           
  9030                           ;../Projects/src/key_and_Other.c: 973:     }
  9031  012C  29E6               	goto	l663
  9032  012D                     l5803:
  9033                           
  9034                           ;../Projects/src/key_and_Other.c: 981:    {;../Projects/src/key_and_Other.c: 982:     if
      +                           ( m_KindOfKey == 1 )
  9035  012D  0344               	decf	_m_KindOfKey,w
  9036  012E  1D03               	btfss	3,2
  9037  012F  2931               	goto	u3981
  9038  0130  2932               	goto	u3980
  9039  0131                     u3981:
  9040  0131  2879               	goto	l5697
  9041  0132                     u3980:
  9042  0132                     l5805:
  9043                           
  9044                           ;../Projects/src/key_and_Other.c: 983:     {;../Projects/src/key_and_Other.c: 984:      
      +                          m_KeyDupliSetTimeout = 10000 ;
  9045  0132  3010               	movlw	16
  9046  0133  00A8               	movwf	_m_KeyDupliSetTimeout
  9047  0134  3027               	movlw	39
  9048  0135  00A9               	movwf	_m_KeyDupliSetTimeout+1
  9049  0136  2843               	goto	l5675
  9050  0137                     l5813:
  9051                           
  9052                           ;../Projects/src/key_and_Other.c: 997:    if ( !m_KeyDupliSetTimeout )
  9053  0137  0828               	movf	_m_KeyDupliSetTimeout,w
  9054  0138  0429               	iorwf	_m_KeyDupliSetTimeout+1,w
  9055  0139  1D03               	btfss	3,2
  9056  013A  293C               	goto	u3991
  9057  013B  293D               	goto	u3990
  9058  013C                     u3991:
  9059  013C  293E               	goto	l5819
  9060  013D                     u3990:
  9061  013D  2879               	goto	l5697
  9062  013E                     l5819:
  9063                           
  9064                           ;../Projects/src/key_and_Other.c: 1003:    if ( m_KindOfKey == 0 || m_KindOfKey == 0xFF 
      +                          )
  9065  013E  0844               	movf	_m_KindOfKey,w
  9066  013F  1903               	btfsc	3,2
  9067  0140  2942               	goto	u4001
  9068  0141  2943               	goto	u4000
  9069  0142                     u4001:
  9070  0142  29E6               	goto	l663
  9071  0143                     u4000:
  9072  0143                     l5821:
  9073  0143  0A44               	incf	_m_KindOfKey,w
  9074  0144  1D03               	btfss	3,2
  9075  0145  2947               	goto	u4011
  9076  0146  2948               	goto	u4010
  9077  0147                     u4011:
  9078  0147  2949               	goto	l709
  9079  0148                     u4010:
  9080  0148  29E6               	goto	l663
  9081  0149                     l709:	
  9082                           ;../Projects/src/key_and_Other.c: 1006:    }
  9083                           
  9084                           
  9085                           ;../Projects/src/key_and_Other.c: 1008:    if ( RAM_RegSW.BIT.Bit5 )
  9086  0149  1EC3               	btfss	_RAM_RegSW,5	;volatile
  9087  014A  294C               	goto	u4021
  9088  014B  294D               	goto	u4020
  9089  014C                     u4021:
  9090  014C  2985               	goto	l5855
  9091  014D                     u4020:
  9092  014D                     l5823:
  9093                           
  9094                           ;../Projects/src/key_and_Other.c: 1009:    {;../Projects/src/key_and_Other.c: 1010:     
      +                          if ( m_KindOfKey == 2 )
  9095  014D  3002               	movlw	2
  9096  014E  0644               	xorwf	_m_KindOfKey,w
  9097  014F  1D03               	btfss	3,2
  9098  0150  2952               	goto	u4031
  9099  0151  2953               	goto	u4030
  9100  0152                     u4031:
  9101  0152  2879               	goto	l5697
  9102  0153                     u4030:
  9103  0153                     l5825:
  9104                           
  9105                           ;../Projects/src/key_and_Other.c: 1011:     {;../Projects/src/key_and_Other.c: 1012:    
      +                            if ( m_KeyOptSetMode == 9 )
  9106  0153  3009               	movlw	9
  9107  0154  0640               	xorwf	_m_KeyOptSetMode,w
  9108  0155  1D03               	btfss	3,2
  9109  0156  2958               	goto	u4041
  9110  0157  2959               	goto	u4040
  9111  0158                     u4041:
  9112  0158  2843               	goto	l5675
  9113  0159                     u4040:
  9114  0159                     l5827:
  9115                           
  9116                           ;../Projects/src/key_and_Other.c: 1013:      {;../Projects/src/key_and_Other.c: 1014:   
      +                              m_KeyOpt = rom_KeyOpt ;
  9117  0159  084A               	movf	_rom_KeyOpt,w
  9118  015A  00D3               	movwf	??__DupliFuncSetMode
  9119  015B  0853               	movf	??__DupliFuncSetMode,w
  9120  015C  00F9               	movwf	__DupliFuncSetMode@m_KeyOpt
  9121  015D                     l5829:
  9122                           
  9123                           ;../Projects/src/key_and_Other.c: 1015:       if ( m_KeyOpt )
  9124  015D  0879               	movf	__DupliFuncSetMode@m_KeyOpt,w
  9125  015E  1903               	btfsc	3,2
  9126  015F  2961               	goto	u4051
  9127  0160  2962               	goto	u4050
  9128  0161                     u4051:
  9129  0161  2964               	goto	l715
  9130  0162                     u4050:
  9131  0162                     l5831:
  9132                           
  9133                           ;../Projects/src/key_and_Other.c: 1016:       {;../Projects/src/key_and_Other.c: 1017:  
      +                                m_KeyOpt = 0 ;
  9134  0162  01F9               	clrf	__DupliFuncSetMode@m_KeyOpt
  9135                           
  9136                           ;../Projects/src/key_and_Other.c: 1018:       }
  9137  0163  2966               	goto	l5833
  9138  0164                     l715:	
  9139                           ;../Projects/src/key_and_Other.c: 1019:       else
  9140                           
  9141                           
  9142                           ;../Projects/src/key_and_Other.c: 1020:       {;../Projects/src/key_and_Other.c: 1021:  
      +                                m_KeyOpt = 1 ;
  9143  0164  01F9               	clrf	__DupliFuncSetMode@m_KeyOpt
  9144  0165  0AF9               	incf	__DupliFuncSetMode@m_KeyOpt,f
  9145  0166                     l5833:
  9146                           
  9147                           ;../Projects/src/key_and_Other.c: 1023:       rom_KeyOpt=m_KeyOpt;
  9148  0166  0879               	movf	__DupliFuncSetMode@m_KeyOpt,w
  9149  0167  00D3               	movwf	??__DupliFuncSetMode
  9150  0168  0853               	movf	??__DupliFuncSetMode,w
  9151  0169  00CA               	movwf	_rom_KeyOpt
  9152  016A                     l5835:
  9153                           
  9154                           ;../Projects/src/key_and_Other.c: 1024:       KeyOpt_EEPROM_write();
  9155  016A  318A  2272  3180   	fcall	_KeyOpt_EEPROM_write
  9156  016D                     l5837:
  9157                           
  9158                           ;../Projects/src/key_and_Other.c: 1028:       _ReqBuzzer(103,103,4);
  9159  016D  3067               	movlw	103
  9160  016E  00F3               	movwf	__ReqBuzzer@BEEP_on_SET
  9161  016F  3000               	movlw	0
  9162  0170  00F4               	movwf	__ReqBuzzer@BEEP_on_SET+1
  9163  0171  3067               	movlw	103
  9164  0172  0020               	movlb	0	; select bank0
  9165  0173  00D3               	movwf	??__DupliFuncSetMode
  9166  0174  0853               	movf	??__DupliFuncSetMode,w
  9167  0175  00F5               	movwf	__ReqBuzzer@BEEP_off_SET
  9168  0176  3004               	movlw	4
  9169  0177  00D4               	movwf	??__DupliFuncSetMode+1
  9170  0178  0854               	movf	??__DupliFuncSetMode+1,w
  9171  0179  00F6               	movwf	__ReqBuzzer@BEEP_freq_SET
  9172  017A  318B  2319  3180   	fcall	__ReqBuzzer
  9173  017D                     l5839:
  9174                           
  9175                           ;../Projects/src/key_and_Other.c: 1029:                                                 
      +                          RAM_OP2.BIT.Bit3=1;
  9176  017D  15FA               	bsf	_RAM_OP2,3	;volatile
  9177  017E                     l5841:
  9178                           
  9179                           ;../Projects/src/key_and_Other.c: 1030:       RAM_SW.BIT.Bit3=0;
  9180  017E  0020               	movlb	0	; select bank0
  9181  017F  11C2               	bcf	_RAM_SW,3	;volatile
  9182  0180                     l5843:
  9183                           
  9184                           ;../Projects/src/key_and_Other.c: 1031:       TB_5s=20;
  9185  0180  3014               	movlw	20
  9186  0181  00D3               	movwf	??__DupliFuncSetMode
  9187  0182  0853               	movf	??__DupliFuncSetMode,w
  9188  0183  00C7               	movwf	_TB_5s
  9189  0184  2879               	goto	l5697
  9190  0185                     l5855:
  9191                           
  9192                           ;../Projects/src/key_and_Other.c: 1044:    {;../Projects/src/key_and_Other.c: 1045:     
      +                          if ( m_KindOfKey == 1 )
  9193  0185  0344               	decf	_m_KindOfKey,w
  9194  0186  1D03               	btfss	3,2
  9195  0187  2989               	goto	u4061
  9196  0188  298A               	goto	u4060
  9197  0189                     u4061:
  9198  0189  2879               	goto	l5697
  9199  018A                     u4060:
  9200  018A                     l5857:
  9201                           
  9202                           ;../Projects/src/key_and_Other.c: 1046:     {;../Projects/src/key_and_Other.c: 1047:    
      +                            if ( m_KeyOptSetMode == 9 )
  9203  018A  3009               	movlw	9
  9204  018B  0640               	xorwf	_m_KeyOptSetMode,w
  9205  018C  1D03               	btfss	3,2
  9206  018D  298F               	goto	u4071
  9207  018E  2990               	goto	u4070
  9208  018F                     u4071:
  9209  018F  2843               	goto	l5675
  9210  0190                     u4070:
  9211  0190                     l5859:
  9212                           
  9213                           ;../Projects/src/key_and_Other.c: 1048:      {;../Projects/src/key_and_Other.c: 1049:   
      +                              m_KeyOpt = rom_KeyOpt ;
  9214  0190  084A               	movf	_rom_KeyOpt,w
  9215  0191  00D3               	movwf	??__DupliFuncSetMode
  9216  0192  0853               	movf	??__DupliFuncSetMode,w
  9217  0193  00F9               	movwf	__DupliFuncSetMode@m_KeyOpt
  9218  0194                     l5861:
  9219                           
  9220                           ;../Projects/src/key_and_Other.c: 1050:       if ( m_KeyOpt )
  9221  0194  0879               	movf	__DupliFuncSetMode@m_KeyOpt,w
  9222  0195  1903               	btfsc	3,2
  9223  0196  2998               	goto	u4081
  9224  0197  2999               	goto	u4080
  9225  0198                     u4081:
  9226  0198  299B               	goto	l721
  9227  0199                     u4080:
  9228  0199                     l5863:
  9229                           
  9230                           ;../Projects/src/key_and_Other.c: 1051:       {;../Projects/src/key_and_Other.c: 1052:  
      +                                m_KeyOpt = 0 ;
  9231  0199  01F9               	clrf	__DupliFuncSetMode@m_KeyOpt
  9232                           
  9233                           ;../Projects/src/key_and_Other.c: 1053:       }
  9234  019A  299D               	goto	l5865
  9235  019B                     l721:	
  9236                           ;../Projects/src/key_and_Other.c: 1054:       else
  9237                           
  9238                           
  9239                           ;../Projects/src/key_and_Other.c: 1055:       {;../Projects/src/key_and_Other.c: 1056:  
      +                                m_KeyOpt = 1 ;
  9240  019B  01F9               	clrf	__DupliFuncSetMode@m_KeyOpt
  9241  019C  0AF9               	incf	__DupliFuncSetMode@m_KeyOpt,f
  9242  019D                     l5865:
  9243                           
  9244                           ;../Projects/src/key_and_Other.c: 1058:       rom_KeyOpt=m_KeyOpt;
  9245  019D  0879               	movf	__DupliFuncSetMode@m_KeyOpt,w
  9246  019E  00D3               	movwf	??__DupliFuncSetMode
  9247  019F  0853               	movf	??__DupliFuncSetMode,w
  9248  01A0  00CA               	movwf	_rom_KeyOpt
  9249  01A1                     l5867:
  9250                           
  9251                           ;../Projects/src/key_and_Other.c: 1059:       KeyOpt_EEPROM_write();
  9252  01A1  318A  2272  3180   	fcall	_KeyOpt_EEPROM_write
  9253  01A4                     l5869:
  9254                           
  9255                           ;../Projects/src/key_and_Other.c: 1062:       _ReqBuzzer(103,103,4);
  9256  01A4  3067               	movlw	103
  9257  01A5  00F3               	movwf	__ReqBuzzer@BEEP_on_SET
  9258  01A6  3000               	movlw	0
  9259  01A7  00F4               	movwf	__ReqBuzzer@BEEP_on_SET+1
  9260  01A8  3067               	movlw	103
  9261  01A9  0020               	movlb	0	; select bank0
  9262  01AA  00D3               	movwf	??__DupliFuncSetMode
  9263  01AB  0853               	movf	??__DupliFuncSetMode,w
  9264  01AC  00F5               	movwf	__ReqBuzzer@BEEP_off_SET
  9265  01AD  3004               	movlw	4
  9266  01AE  00D4               	movwf	??__DupliFuncSetMode+1
  9267  01AF  0854               	movf	??__DupliFuncSetMode+1,w
  9268  01B0  00F6               	movwf	__ReqBuzzer@BEEP_freq_SET
  9269  01B1  318B  2319  3180   	fcall	__ReqBuzzer
  9270  01B4                     l5871:
  9271                           
  9272                           ;../Projects/src/key_and_Other.c: 1063:                                                 
      +                          RAM_OP2.BIT.Bit3=1;
  9273  01B4  15FA               	bsf	_RAM_OP2,3	;volatile
  9274  01B5                     l5873:
  9275                           
  9276                           ;../Projects/src/key_and_Other.c: 1064:       RAM_SW.BIT.Bit3=0;
  9277  01B5  0020               	movlb	0	; select bank0
  9278  01B6  11C2               	bcf	_RAM_SW,3	;volatile
  9279  01B7  2879               	goto	l5697
  9280  01B8                     l724:	
  9281                           ;../Projects/src/key_and_Other.c: 1079:   case 10 :
  9282                           
  9283                           
  9284                           ;../Projects/src/key_and_Other.c: 1080:    if ( !RAM_RegSW.BIT.Bit7 )
  9285  01B8  1BC3               	btfsc	_RAM_RegSW,7	;volatile
  9286  01B9  29BB               	goto	u4091
  9287  01BA  29BC               	goto	u4090
  9288  01BB                     u4091:
  9289  01BB  29E6               	goto	l663
  9290  01BC                     u4090:
  9291  01BC  2879               	goto	l5697
  9292  01BD                     l5891:
  9293  01BD  0020               	movlb	0	; select bank0
  9294  01BE  0840               	movf	_m_KeyOptSetMode,w
  9295  01BF  00D3               	movwf	??__DupliFuncSetMode
  9296  01C0  01D4               	clrf	??__DupliFuncSetMode+1
  9297                           
  9298                           ; Switch on 2 bytes has been partitioned into a top level switch of size 1, and 1 sub-sw
      +                          itches
  9299                           ; Switch size 1, requested type "simple"
  9300                           ; Number of cases is 1, Range of values is 0 to 0
  9301                           ; switch strategies available:
  9302                           ; Name         Instructions Cycles
  9303                           ; simple_byte            4     3 (average)
  9304                           ; direct_byte            8     6 (fixed)
  9305                           ; jumptable            260     6 (fixed)
  9306                           ;	Chosen strategy is simple_byte
  9307  01C1  0854               	movf	??__DupliFuncSetMode+1,w
  9308  01C2  3A00               	xorlw	0	; case 0
  9309  01C3  1903               	skipnz
  9310  01C4  29C6               	goto	l6501
  9311  01C5  29E6               	goto	l663
  9312  01C6                     l6501:
  9313                           
  9314                           ; Switch size 1, requested type "simple"
  9315                           ; Number of cases is 10, Range of values is 1 to 10
  9316                           ; switch strategies available:
  9317                           ; Name         Instructions Cycles
  9318                           ; direct_byte           29     9 (fixed)
  9319                           ; simple_byte           31    16 (average)
  9320                           ; jumptable            263     9 (fixed)
  9321                           ;	Chosen strategy is simple_byte
  9322  01C6  0853               	movf	??__DupliFuncSetMode,w
  9323  01C7  3A01               	xorlw	1	; case 1
  9324  01C8  1903               	skipnz
  9325  01C9  283B               	goto	l661
  9326  01CA  3A03               	xorlw	3	; case 2
  9327  01CB  1903               	skipnz
  9328  01CC  2853               	goto	l5683
  9329  01CD  3A01               	xorlw	1	; case 3
  9330  01CE  1903               	skipnz
  9331  01CF  287D               	goto	l5699
  9332  01D0  3A07               	xorlw	7	; case 4
  9333  01D1  1903               	skipnz
  9334  01D2  28A0               	goto	l5729
  9335  01D3  3A01               	xorlw	1	; case 5
  9336  01D4  1903               	skipnz
  9337  01D5  28BC               	goto	l5739
  9338  01D6  3A03               	xorlw	3	; case 6
  9339  01D7  1903               	skipnz
  9340  01D8  28E8               	goto	l5771
  9341  01D9  3A01               	xorlw	1	; case 7
  9342  01DA  1903               	skipnz
  9343  01DB  2907               	goto	l5781
  9344  01DC  3A0F               	xorlw	15	; case 8
  9345  01DD  1903               	skipnz
  9346  01DE  2937               	goto	l5813
  9347  01DF  3A01               	xorlw	1	; case 9
  9348  01E0  1903               	skipnz
  9349  01E1  2937               	goto	l5813
  9350  01E2  3A03               	xorlw	3	; case 10
  9351  01E3  1903               	skipnz
  9352  01E4  29B8               	goto	l724
  9353  01E5  29E6               	goto	l663
  9354  01E6                     l663:
  9355  01E6  0008               	return
  9356  01E7                     __end_of__DupliFuncSetMode:
  9357                           
  9358                           	psect	text35
  9359  0B19                     __ptext35:	
  9360 ;; *************** function __ReqBuzzer *****************
  9361 ;; Defined at:
  9362 ;;		line 1289 in file "../Projects/src/key_and_Other.c"
  9363 ;; Parameters:    Size  Location     Type
  9364 ;;  BEEP_on_SET     2    3[COMMON] unsigned int 
  9365 ;;  BEEP_off_SET    1    5[COMMON] unsigned char 
  9366 ;;  BEEP_freq_SE    1    6[COMMON] unsigned char 
  9367 ;; Auto vars:     Size  Location     Type
  9368 ;;		None
  9369 ;; Return value:  Size  Location     Type
  9370 ;;                  1    wreg      void 
  9371 ;; Registers used:
  9372 ;;		wreg
  9373 ;; Tracked objects:
  9374 ;;		On entry : 0/0
  9375 ;;		On exit  : 0/0
  9376 ;;		Unchanged: 0/0
  9377 ;; Data sizes:     COMMON   BANK0   BANK1   BANK2   BANK3   BANK4   BANK5   BANK6   BANK7   BANK8   BANK9  BANK10  BANK1
      +1  BANK12
  9378 ;;      Params:         4       0       0       0       0       0       0       0       0       0       0       0       
      +0       0
  9379 ;;      Locals:         0       0       0       0       0       0       0       0       0       0       0       0       
      +0       0
  9380 ;;      Temps:          1       0       0       0       0       0       0       0       0       0       0       0       
      +0       0
  9381 ;;      Totals:         5       0       0       0       0       0       0       0       0       0       0       0       
      +0       0
  9382 ;;Total ram usage:        5 bytes
  9383 ;; Hardware stack levels used:    1
  9384 ;; Hardware stack levels required when called:    2
  9385 ;; This function calls:
  9386 ;;		Nothing
  9387 ;; This function is called by:
  9388 ;;		__FuncStop
  9389 ;;		__ReqTxdEdit
  9390 ;;		__DupliFuncSetMode
  9391 ;;		__RegistrationMode
  9392 ;;		__SetRegistrationMode
  9393 ;; This function uses a non-reentrant model
  9394 ;;
  9395                           
  9396                           
  9397                           ;psect for function __ReqBuzzer
  9398  0B19                     __ReqBuzzer:
  9399  0B19                     l3287:	
  9400                           ;incstack = 0
  9401                           ; Regs used in __ReqBuzzer: [wreg]
  9402                           
  9403                           
  9404                           ;../Projects/src/key_and_Other.c: 1289: void _ReqBuzzer(unsigned int BEEP_on_SET,unsigne
      +                          d char BEEP_off_SET,unsigned char BEEP_freq_SET);../Projects/src/key_and_Other.c: 1290: 
      +                          {;../Projects/src/key_and_Other.c: 1291:   if(RAM_SW.BIT.Bit6==0){
  9405  0B19  0020               	movlb	0	; select bank0
  9406  0B1A  1B42               	btfsc	_RAM_SW,6	;volatile
  9407  0B1B  2B1D               	goto	u661
  9408  0B1C  2B1E               	goto	u660
  9409  0B1D                     u661:
  9410  0B1D  2B36               	goto	l770
  9411  0B1E                     u660:
  9412  0B1E                     l3289:
  9413                           
  9414                           ;../Projects/src/key_and_Other.c: 1292:      BASE_TIME_BEEP_on=BEEP_on_SET;
  9415  0B1E  0874               	movf	__ReqBuzzer@BEEP_on_SET+1,w
  9416  0B1F  0021               	movlb	1	; select bank1
  9417  0B20  00C5               	movwf	(_BASE_TIME_BEEP_on+1)^(0+128)
  9418  0B21  0873               	movf	__ReqBuzzer@BEEP_on_SET,w
  9419  0B22  00C4               	movwf	_BASE_TIME_BEEP_on^(0+128)
  9420                           
  9421                           ;../Projects/src/key_and_Other.c: 1293:      BASE_TIME_BEEP_off=BEEP_off_SET;
  9422  0B23  0875               	movf	__ReqBuzzer@BEEP_off_SET,w
  9423  0B24  00F7               	movwf	??__ReqBuzzer
  9424  0B25  0877               	movf	??__ReqBuzzer,w
  9425  0B26  0020               	movlb	0	; select bank0
  9426  0B27  00BF               	movwf	_BASE_TIME_BEEP_off
  9427                           
  9428                           ;../Projects/src/key_and_Other.c: 1294:      TIME_BEEP_on=BASE_TIME_BEEP_on;
  9429  0B28  0021               	movlb	1	; select bank1
  9430  0B29  0845               	movf	(_BASE_TIME_BEEP_on+1)^(0+128),w
  9431  0B2A  00C3               	movwf	(_TIME_BEEP_on+1)^(0+128)
  9432  0B2B  0844               	movf	_BASE_TIME_BEEP_on^(0+128),w
  9433  0B2C  00C2               	movwf	_TIME_BEEP_on^(0+128)
  9434                           
  9435                           ;../Projects/src/key_and_Other.c: 1295:      TIME_BEEP_off=BASE_TIME_BEEP_off;
  9436  0B2D  0020               	movlb	0	; select bank0
  9437  0B2E  083F               	movf	_BASE_TIME_BEEP_off,w
  9438  0B2F  00F7               	movwf	??__ReqBuzzer
  9439  0B30  0877               	movf	??__ReqBuzzer,w
  9440  0B31  00BE               	movwf	_TIME_BEEP_off
  9441                           
  9442                           ;../Projects/src/key_and_Other.c: 1296:      TIME_BEEP_freq=BEEP_freq_SET;
  9443  0B32  0876               	movf	__ReqBuzzer@BEEP_freq_SET,w
  9444  0B33  00F7               	movwf	??__ReqBuzzer
  9445  0B34  0877               	movf	??__ReqBuzzer,w
  9446  0B35  00BD               	movwf	_TIME_BEEP_freq
  9447  0B36                     l770:
  9448  0B36  0008               	return
  9449  0B37                     __end_of__ReqBuzzer:
  9450                           
  9451                           	psect	text36
  9452  0A4B                     __ptext36:	
  9453 ;; *************** function __DupliFuncClear *****************
  9454 ;; Defined at:
  9455 ;;		line 664 in file "../Projects/src/key_and_Other.c"
  9456 ;; Parameters:    Size  Location     Type
  9457 ;;		None
  9458 ;; Auto vars:     Size  Location     Type
  9459 ;;		None
  9460 ;; Return value:  Size  Location     Type
  9461 ;;                  1    wreg      void 
  9462 ;; Registers used:
  9463 ;;		wreg, status,2, status,0
  9464 ;; Tracked objects:
  9465 ;;		On entry : 0/0
  9466 ;;		On exit  : 0/0
  9467 ;;		Unchanged: 0/0
  9468 ;; Data sizes:     COMMON   BANK0   BANK1   BANK2   BANK3   BANK4   BANK5   BANK6   BANK7   BANK8   BANK9  BANK10  BANK1
      +1  BANK12
  9469 ;;      Params:         0       0       0       0       0       0       0       0       0       0       0       0       
      +0       0
  9470 ;;      Locals:         0       0       0       0       0       0       0       0       0       0       0       0       
      +0       0
  9471 ;;      Temps:          1       0       0       0       0       0       0       0       0       0       0       0       
      +0       0
  9472 ;;      Totals:         1       0       0       0       0       0       0       0       0       0       0       0       
      +0       0
  9473 ;;Total ram usage:        1 bytes
  9474 ;; Hardware stack levels used:    1
  9475 ;; Hardware stack levels required when called:    2
  9476 ;; This function calls:
  9477 ;;		Nothing
  9478 ;; This function is called by:
  9479 ;;		__KeyInTx
  9480 ;;		__FuncOpenStop
  9481 ;;		__FuncOpenReg
  9482 ;;		__FuncCloseReg
  9483 ;;		__FuncVentReg
  9484 ;;		__FuncStopReg
  9485 ;;		__FuncReg
  9486 ;;		__FuncStop
  9487 ;;		__DupliFuncSetMode
  9488 ;; This function uses a non-reentrant model
  9489 ;;
  9490                           
  9491                           
  9492                           ;psect for function __DupliFuncClear
  9493  0A4B                     __DupliFuncClear:
  9494  0A4B                     l3381:	
  9495                           ;incstack = 0
  9496                           ; Regs used in __DupliFuncClear: [wreg+status,2+status,0]
  9497                           
  9498                           
  9499                           ;../Projects/src/key_and_Other.c: 666:  m_KeyOptSetMode = 0 ;
  9500  0A4B  0020               	movlb	0	; select bank0
  9501  0A4C  01C0               	clrf	_m_KeyOptSetMode
  9502  0A4D                     l3383:
  9503                           
  9504                           ;../Projects/src/key_and_Other.c: 667:  m_KeyOpenCount = 2 ;
  9505  0A4D  3002               	movlw	2
  9506  0A4E  00F3               	movwf	??__DupliFuncClear
  9507  0A4F  0873               	movf	??__DupliFuncClear,w
  9508  0A50  00BA               	movwf	_m_KeyOpenCount
  9509  0A51                     l3385:
  9510                           
  9511                           ;../Projects/src/key_and_Other.c: 668:  m_KeyCloseCount = 2 ;
  9512  0A51  3002               	movlw	2
  9513  0A52  00F3               	movwf	??__DupliFuncClear
  9514  0A53  0873               	movf	??__DupliFuncClear,w
  9515  0A54  00B9               	movwf	_m_KeyCloseCount
  9516  0A55                     l3387:
  9517                           
  9518                           ;../Projects/src/key_and_Other.c: 671:  if ( m_KeyDupli1stTimer )
  9519  0A55  0826               	movf	_m_KeyDupli1stTimer,w
  9520  0A56  0427               	iorwf	_m_KeyDupli1stTimer+1,w
  9521  0A57  1903               	btfsc	3,2
  9522  0A58  2A5A               	goto	u751
  9523  0A59  2A5B               	goto	u750
  9524  0A5A                     u751:
  9525  0A5A  2A5D               	goto	l624
  9526  0A5B                     u750:
  9527  0A5B                     l3389:
  9528                           
  9529                           ;../Projects/src/key_and_Other.c: 672:  {;../Projects/src/key_and_Other.c: 673:   m_KeyD
      +                          upli1stTimer = 0 ;
  9530  0A5B  01A6               	clrf	_m_KeyDupli1stTimer
  9531  0A5C  01A7               	clrf	_m_KeyDupli1stTimer+1
  9532  0A5D                     l624:
  9533  0A5D  0008               	return
  9534  0A5E                     __end_of__DupliFuncClear:
  9535                           
  9536                           	psect	text37
  9537  0A72                     __ptext37:	
  9538 ;; *************** function _KeyOpt_EEPROM_write *****************
  9539 ;; Defined at:
  9540 ;;		line 202 in file "../Projects/src/eeprom.c"
  9541 ;; Parameters:    Size  Location     Type
  9542 ;;		None
  9543 ;; Auto vars:     Size  Location     Type
  9544 ;;		None
  9545 ;; Return value:  Size  Location     Type
  9546 ;;                  1    wreg      void 
  9547 ;; Registers used:
  9548 ;;		wreg, fsr1l, fsr1h, status,2, status,0, pclath, cstack
  9549 ;; Tracked objects:
  9550 ;;		On entry : 0/0
  9551 ;;		On exit  : 0/0
  9552 ;;		Unchanged: 0/0
  9553 ;; Data sizes:     COMMON   BANK0   BANK1   BANK2   BANK3   BANK4   BANK5   BANK6   BANK7   BANK8   BANK9  BANK10  BANK1
      +1  BANK12
  9554 ;;      Params:         0       0       0       0       0       0       0       0       0       0       0       0       
      +0       0
  9555 ;;      Locals:         0       0       0       0       0       0       0       0       0       0       0       0       
      +0       0
  9556 ;;      Temps:          1       0       0       0       0       0       0       0       0       0       0       0       
      +0       0
  9557 ;;      Totals:         1       0       0       0       0       0       0       0       0       0       0       0       
      +0       0
  9558 ;;Total ram usage:        1 bytes
  9559 ;; Hardware stack levels used:    1
  9560 ;; Hardware stack levels required when called:    3
  9561 ;; This function calls:
  9562 ;;		_LockFlash
  9563 ;;		_UnlockFlash
  9564 ;;		_WriteByteToFLASH
  9565 ;; This function is called by:
  9566 ;;		__DupliFuncSetMode
  9567 ;; This function uses a non-reentrant model
  9568 ;;
  9569                           
  9570                           
  9571                           ;psect for function _KeyOpt_EEPROM_write
  9572  0A72                     _KeyOpt_EEPROM_write:
  9573  0A72                     l3449:	
  9574                           ;incstack = 0
  9575                           ; Regs used in _KeyOpt_EEPROM_write: [wreg+fsr1l+fsr1h+status,2+status,0+pclath+cstack]
  9576                           
  9577                           
  9578                           ;../Projects/src/eeprom.c: 231:      UnlockFlash( ((unsigned char)0x01 ) );
  9579  0A72  3001               	movlw	1
  9580  0A73  3189  21CB  318A   	fcall	_UnlockFlash
  9581  0A76                     l3451:
  9582                           
  9583                           ;../Projects/src/eeprom.c: 232:  WriteByteToFLASH( 0x1000 +0x70, rom_KeyOpt);
  9584  0A76  3000               	movlw	0
  9585  0A77  00F6               	movwf	WriteByteToFLASH@Addr+3
  9586  0A78  3000               	movlw	0
  9587  0A79  00F5               	movwf	WriteByteToFLASH@Addr+2
  9588  0A7A  3010               	movlw	16
  9589  0A7B  00F4               	movwf	WriteByteToFLASH@Addr+1
  9590  0A7C  3070               	movlw	112
  9591  0A7D  00F3               	movwf	WriteByteToFLASH@Addr
  9592  0A7E  0020               	movlb	0	; select bank0
  9593  0A7F  084A               	movf	_rom_KeyOpt,w
  9594  0A80  00F8               	movwf	??_KeyOpt_EEPROM_write
  9595  0A81  0878               	movf	??_KeyOpt_EEPROM_write,w
  9596  0A82  00F7               	movwf	WriteByteToFLASH@Dat
  9597  0A83  3189  21DD  318A   	fcall	_WriteByteToFLASH
  9598  0A86                     l3453:
  9599                           
  9600                           ;../Projects/src/eeprom.c: 233:      LockFlash( ((unsigned char)0x01 ) );
  9601  0A86  3001               	movlw	1
  9602  0A87  3189  21CA  318A   	fcall	_LockFlash
  9603  0A8A                     l201:
  9604  0A8A  0008               	return
  9605  0A8B                     __end_of_KeyOpt_EEPROM_write:
  9606                           
  9607                           	psect	text38
  9608  09DD                     __ptext38:	
  9609 ;; *************** function _WriteByteToFLASH *****************
  9610 ;; Defined at:
  9611 ;;		line 127 in file "../Projects/src/eeprom.c"
  9612 ;; Parameters:    Size  Location     Type
  9613 ;;  Addr            4    3[COMMON] unsigned long 
  9614 ;;  Dat             1    7[COMMON] unsigned char 
  9615 ;; Auto vars:     Size  Location     Type
  9616 ;;		None
  9617 ;; Return value:  Size  Location     Type
  9618 ;;                  1    wreg      void 
  9619 ;; Registers used:
  9620 ;;		wreg, fsr1l, fsr1h
  9621 ;; Tracked objects:
  9622 ;;		On entry : 0/0
  9623 ;;		On exit  : 0/0
  9624 ;;		Unchanged: 0/0
  9625 ;; Data sizes:     COMMON   BANK0   BANK1   BANK2   BANK3   BANK4   BANK5   BANK6   BANK7   BANK8   BANK9  BANK10  BANK1
      +1  BANK12
  9626 ;;      Params:         5       0       0       0       0       0       0       0       0       0       0       0       
      +0       0
  9627 ;;      Locals:         0       0       0       0       0       0       0       0       0       0       0       0       
      +0       0
  9628 ;;      Temps:          0       0       0       0       0       0       0       0       0       0       0       0       
      +0       0
  9629 ;;      Totals:         5       0       0       0       0       0       0       0       0       0       0       0       
      +0       0
  9630 ;;Total ram usage:        5 bytes
  9631 ;; Hardware stack levels used:    1
  9632 ;; Hardware stack levels required when called:    2
  9633 ;; This function calls:
  9634 ;;		Nothing
  9635 ;; This function is called by:
  9636 ;;		_KeyOpt_EEPROM_write
  9637 ;;		_eeprom_save
  9638 ;;		_PC_PRG
  9639 ;; This function uses a non-reentrant model
  9640 ;;
  9641                           
  9642                           
  9643                           ;psect for function _WriteByteToFLASH
  9644  09DD                     _WriteByteToFLASH:
  9645  09DD                     l3379:	
  9646                           ;incstack = 0
  9647                           ; Regs used in _WriteByteToFLASH: [wregfsr1]
  9648                           
  9649                           
  9650                           ;../Projects/src/eeprom.c: 128:  *(( __far unsigned char * ) Addr ) = Dat;
  9651  09DD  0873               	movf	WriteByteToFLASH@Addr,w
  9652  09DE  0086               	movwf	6
  9653  09DF  0874               	movf	WriteByteToFLASH@Addr+1,w
  9654  09E0  0087               	movwf	7
  9655  09E1  0877               	movf	WriteByteToFLASH@Dat,w
  9656  09E2  0081               	movwf	1
  9657  09E3                     l185:
  9658  09E3  0008               	return
  9659  09E4                     __end_of_WriteByteToFLASH:
  9660                           
  9661                           	psect	text39
  9662  09CB                     __ptext39:	
  9663 ;; *************** function _UnlockFlash *****************
  9664 ;; Defined at:
  9665 ;;		line 115 in file "../Projects/src/eeprom.c"
  9666 ;; Parameters:    Size  Location     Type
  9667 ;;  Type            1    wreg     unsigned char 
  9668 ;; Auto vars:     Size  Location     Type
  9669 ;;  Type            1    0[COMMON] unsigned char 
  9670 ;; Return value:  Size  Location     Type
  9671 ;;                  1    wreg      void 
  9672 ;; Registers used:
  9673 ;;		wreg
  9674 ;; Tracked objects:
  9675 ;;		On entry : 0/0
  9676 ;;		On exit  : 0/0
  9677 ;;		Unchanged: 0/0
  9678 ;; Data sizes:     COMMON   BANK0   BANK1   BANK2   BANK3   BANK4   BANK5   BANK6   BANK7   BANK8   BANK9  BANK10  BANK1
      +1  BANK12
  9679 ;;      Params:         0       0       0       0       0       0       0       0       0       0       0       0       
      +0       0
  9680 ;;      Locals:         0       0       0       0       0       0       0       0       0       0       0       0       
      +0       0
  9681 ;;      Temps:          0       0       0       0       0       0       0       0       0       0       0       0       
      +0       0
  9682 ;;      Totals:         0       0       0       0       0       0       0       0       0       0       0       0       
      +0       0
  9683 ;;Total ram usage:        0 bytes
  9684 ;; Hardware stack levels used:    1
  9685 ;; Hardware stack levels required when called:    2
  9686 ;; This function calls:
  9687 ;;		Nothing
  9688 ;; This function is called by:
  9689 ;;		_KeyOpt_EEPROM_write
  9690 ;;		_eeprom_save
  9691 ;;		_PC_PRG
  9692 ;; This function uses a non-reentrant model
  9693 ;;
  9694                           
  9695                           
  9696                           ;psect for function _UnlockFlash
  9697  09CB                     _UnlockFlash:
  9698  09CB                     l176:	
  9699                           ;incstack = 0
  9700                           ; Regs used in _UnlockFlash: [wreg]
  9701                           
  9702  09CB  0008               	return
  9703  09CC                     __end_of_UnlockFlash:
  9704                           
  9705                           	psect	text40
  9706  09CA                     __ptext40:	
  9707 ;; *************** function _LockFlash *****************
  9708 ;; Defined at:
  9709 ;;		line 119 in file "../Projects/src/eeprom.c"
  9710 ;; Parameters:    Size  Location     Type
  9711 ;;  Type            1    wreg     unsigned char 
  9712 ;; Auto vars:     Size  Location     Type
  9713 ;;  Type            1    0[COMMON] unsigned char 
  9714 ;; Return value:  Size  Location     Type
  9715 ;;                  1    wreg      void 
  9716 ;; Registers used:
  9717 ;;		wreg
  9718 ;; Tracked objects:
  9719 ;;		On entry : 0/0
  9720 ;;		On exit  : 0/0
  9721 ;;		Unchanged: 0/0
  9722 ;; Data sizes:     COMMON   BANK0   BANK1   BANK2   BANK3   BANK4   BANK5   BANK6   BANK7   BANK8   BANK9  BANK10  BANK1
      +1  BANK12
  9723 ;;      Params:         0       0       0       0       0       0       0       0       0       0       0       0       
      +0       0
  9724 ;;      Locals:         0       0       0       0       0       0       0       0       0       0       0       0       
      +0       0
  9725 ;;      Temps:          0       0       0       0       0       0       0       0       0       0       0       0       
      +0       0
  9726 ;;      Totals:         0       0       0       0       0       0       0       0       0       0       0       0       
      +0       0
  9727 ;;Total ram usage:        0 bytes
  9728 ;; Hardware stack levels used:    1
  9729 ;; Hardware stack levels required when called:    2
  9730 ;; This function calls:
  9731 ;;		Nothing
  9732 ;; This function is called by:
  9733 ;;		_KeyOpt_EEPROM_write
  9734 ;;		_eeprom_save
  9735 ;;		_PC_PRG
  9736 ;; This function uses a non-reentrant model
  9737 ;;
  9738                           
  9739                           
  9740                           ;psect for function _LockFlash
  9741  09CA                     _LockFlash:
  9742  09CA                     l179:	
  9743                           ;incstack = 0
  9744                           ; Regs used in _LockFlash: [wreg]
  9745                           
  9746  09CA  0008               	return
  9747  09CB                     __end_of_LockFlash:
  9748                           
  9749                           	psect	text41
  9750  09C9                     __ptext41:	
  9751 ;; *************** function _ClearWDT *****************
  9752 ;; Defined at:
  9753 ;;		line 25 in file "../Projects/src/initial.c"
  9754 ;; Parameters:    Size  Location     Type
  9755 ;;		None
  9756 ;; Auto vars:     Size  Location     Type
  9757 ;;		None
  9758 ;; Return value:  Size  Location     Type
  9759 ;;                  1    wreg      void 
  9760 ;; Registers used:
  9761 ;;		None
  9762 ;; Tracked objects:
  9763 ;;		On entry : 0/0
  9764 ;;		On exit  : 0/0
  9765 ;;		Unchanged: 0/0
  9766 ;; Data sizes:     COMMON   BANK0   BANK1   BANK2   BANK3   BANK4   BANK5   BANK6   BANK7   BANK8   BANK9  BANK10  BANK1
      +1  BANK12
  9767 ;;      Params:         0       0       0       0       0       0       0       0       0       0       0       0       
      +0       0
  9768 ;;      Locals:         0       0       0       0       0       0       0       0       0       0       0       0       
      +0       0
  9769 ;;      Temps:          0       0       0       0       0       0       0       0       0       0       0       0       
      +0       0
  9770 ;;      Totals:         0       0       0       0       0       0       0       0       0       0       0       0       
      +0       0
  9771 ;;Total ram usage:        0 bytes
  9772 ;; Hardware stack levels used:    1
  9773 ;; Hardware stack levels required when called:    2
  9774 ;; This function calls:
  9775 ;;		Nothing
  9776 ;; This function is called by:
  9777 ;;		_key_check
  9778 ;;		_test_mode_control
  9779 ;;		_main
  9780 ;;		_PC_PRG
  9781 ;; This function uses a non-reentrant model
  9782 ;;
  9783                           
  9784                           
  9785                           ;psect for function _ClearWDT
  9786  09C9                     _ClearWDT:
  9787  09C9                     l270:	
  9788                           ;incstack = 0
  9789                           ; Regs used in _ClearWDT: []
  9790                           
  9791  09C9  0008               	return
  9792  09CA                     __end_of_ClearWDT:
  9793                           
  9794                           	psect	text42
  9795  0C61                     __ptext42:	
  9796 ;; *************** function _eeprom_sys_load *****************
  9797 ;; Defined at:
  9798 ;;		line 143 in file "../Projects/src/eeprom.c"
  9799 ;; Parameters:    Size  Location     Type
  9800 ;;		None
  9801 ;; Auto vars:     Size  Location     Type
  9802 ;;  i               1    0[BANK0 ] unsigned char 
  9803 ;;  j               1    0        unsigned char 
  9804 ;; Return value:  Size  Location     Type
  9805 ;;                  1    wreg      void 
  9806 ;; Registers used:
  9807 ;;		wreg, fsr0l, fsr0h, fsr1l, fsr1h, status,2, status,0, pclath
  9808 ;; Tracked objects:
  9809 ;;		On entry : 0/0
  9810 ;;		On exit  : 0/0
  9811 ;;		Unchanged: 0/0
  9812 ;; Data sizes:     COMMON   BANK0   BANK1   BANK2   BANK3   BANK4   BANK5   BANK6   BANK7   BANK8   BANK9  BANK10  BANK1
      +1  BANK12
  9813 ;;      Params:         0       0       0       0       0       0       0       0       0       0       0       0       
      +0       0
  9814 ;;      Locals:         0       1       0       0       0       0       0       0       0       0       0       0       
      +0       0
  9815 ;;      Temps:          7       0       0       0       0       0       0       0       0       0       0       0       
      +0       0
  9816 ;;      Totals:         7       1       0       0       0       0       0       0       0       0       0       0       
      +0       0
  9817 ;;Total ram usage:        8 bytes
  9818 ;; Hardware stack levels used:    1
  9819 ;; Hardware stack levels required when called:    2
  9820 ;; This function calls:
  9821 ;;		Nothing
  9822 ;; This function is called by:
  9823 ;;		_main
  9824 ;; This function uses a non-reentrant model
  9825 ;;
  9826                           
  9827                           
  9828                           ;psect for function _eeprom_sys_load
  9829  0C61                     _eeprom_sys_load:
  9830  0C61                     l5897:	
  9831                           ;incstack = 0
  9832                           ; Regs used in _eeprom_sys_load: [wreg-fsr1h+status,2+status,0+pclath]
  9833                           
  9834                           
  9835                           ;../Projects/src/eeprom.c: 173:    unsigned char i,j;;../Projects/src/eeprom.c: 186:   I
      +                          D_data.IDL=0x01;
  9836  0C61  3000               	movlw	0
  9837  0C62  0021               	movlb	1	; select bank1
  9838  0C63  00BF               	movwf	(_ID_data+3)^(0+128)
  9839  0C64  3000               	movlw	0
  9840  0C65  00BE               	movwf	(_ID_data+2)^(0+128)
  9841  0C66  3000               	movlw	0
  9842  0C67  00BD               	movwf	(_ID_data+1)^(0+128)
  9843  0C68  3001               	movlw	1
  9844  0C69  00BC               	movwf	_ID_data^(0+128)
  9845  0C6A                     l5899:
  9846                           
  9847                           ;../Projects/src/eeprom.c: 188:   for (i=0;i<4;i++)
  9848  0C6A  0020               	movlb	0	; select bank0
  9849  0C6B  01D3               	clrf	eeprom_sys_load@i
  9850  0C6C                     l5905:
  9851                           
  9852                           ;../Projects/src/eeprom.c: 189:   {;../Projects/src/eeprom.c: 196:  ROM_adf7012_value[i]
      +                          =Default_adf7012_value[i];
  9853  0C6C  0853               	movf	eeprom_sys_load@i,w
  9854  0C6D  00F3               	movwf	??_eeprom_sys_load
  9855  0C6E  01F4               	clrf	??_eeprom_sys_load+1
  9856  0C6F  35F3               	lslf	??_eeprom_sys_load,f
  9857  0C70  0DF4               	rlf	??_eeprom_sys_load+1,f
  9858  0C71  35F3               	lslf	??_eeprom_sys_load,f
  9859  0C72  0DF4               	rlf	??_eeprom_sys_load+1,f
  9860  0C73  3011               	movlw	low (_Default_adf7012_value| (0+32768))
  9861  0C74  0773               	addwf	??_eeprom_sys_load,w
  9862  0C75  0084               	movwf	4
  9863  0C76  3090               	movlw	high (_Default_adf7012_value| (0+32768))
  9864  0C77  3D74               	addwfc	??_eeprom_sys_load+1,w
  9865  0C78  0085               	movwf	5
  9866  0C79  3F00               	moviw [0]fsr0
  9867  0C7A  00F5               	movwf	??_eeprom_sys_load+2
  9868  0C7B  3F01               	moviw [1]fsr0
  9869  0C7C  00F6               	movwf	??_eeprom_sys_load+3
  9870  0C7D  3F02               	moviw [2]fsr0
  9871  0C7E  00F7               	movwf	??_eeprom_sys_load+4
  9872  0C7F  3F03               	moviw [3]fsr0
  9873  0C80  00F8               	movwf	??_eeprom_sys_load+5
  9874  0C81  0853               	movf	eeprom_sys_load@i,w
  9875  0C82  00F9               	movwf	??_eeprom_sys_load+6
  9876  0C83  3001               	movlw	1
  9877  0C84                     u4105:
  9878  0C84  35F9               	lslf	??_eeprom_sys_load+6,f
  9879  0C85  3EFF               	addlw	-1
  9880  0C86  1D03               	skipz
  9881  0C87  2C84               	goto	u4105
  9882  0C88  3579               	lslf	??_eeprom_sys_load+6,w
  9883  0C89  3ECC               	addlw	(low (_ROM_adf7012_value| 0))& (0+255)
  9884  0C8A  0086               	movwf	6
  9885  0C8B  0187               	clrf	7
  9886  0C8C  0875               	movf	??_eeprom_sys_load+2,w
  9887  0C8D  3FC0               	movwi [0]fsr1
  9888  0C8E  0876               	movf	??_eeprom_sys_load+3,w
  9889  0C8F  3FC1               	movwi [1]fsr1
  9890  0C90  0877               	movf	??_eeprom_sys_load+4,w
  9891  0C91  3FC2               	movwi [2]fsr1
  9892  0C92  0878               	movf	??_eeprom_sys_load+5,w
  9893  0C93  3FC3               	movwi [3]fsr1
  9894  0C94                     l5907:
  9895                           
  9896                           ;../Projects/src/eeprom.c: 197:   }
  9897  0C94  3001               	movlw	1
  9898  0C95  00F3               	movwf	??_eeprom_sys_load
  9899  0C96  0873               	movf	??_eeprom_sys_load,w
  9900  0C97  07D3               	addwf	eeprom_sys_load@i,f
  9901  0C98                     l5909:
  9902  0C98  3004               	movlw	4
  9903  0C99  0253               	subwf	eeprom_sys_load@i,w
  9904  0C9A  1C03               	skipc
  9905  0C9B  2C9D               	goto	u4111
  9906  0C9C  2C9E               	goto	u4110
  9907  0C9D                     u4111:
  9908  0C9D  2C6C               	goto	l5905
  9909  0C9E                     u4110:
  9910  0C9E                     l198:
  9911  0C9E  0008               	return
  9912  0C9F                     __end_of_eeprom_sys_load:
  9913                           
  9914                           	psect	text43
  9915  0BD3                     __ptext43:	
  9916 ;; *************** function __Init_RAM *****************
  9917 ;; Defined at:
  9918 ;;		line 78 in file "../Projects/src/initial.c"
  9919 ;; Parameters:    Size  Location     Type
  9920 ;;		None
  9921 ;; Auto vars:     Size  Location     Type
  9922 ;;		None
  9923 ;; Return value:  Size  Location     Type
  9924 ;;                  1    wreg      void 
  9925 ;; Registers used:
  9926 ;;		wreg, status,2, status,0, pclath, cstack
  9927 ;; Tracked objects:
  9928 ;;		On entry : 0/0
  9929 ;;		On exit  : 0/0
  9930 ;;		Unchanged: 0/0
  9931 ;; Data sizes:     COMMON   BANK0   BANK1   BANK2   BANK3   BANK4   BANK5   BANK6   BANK7   BANK8   BANK9  BANK10  BANK1
      +1  BANK12
  9932 ;;      Params:         0       0       0       0       0       0       0       0       0       0       0       0       
      +0       0
  9933 ;;      Locals:         0       0       0       0       0       0       0       0       0       0       0       0       
      +0       0
  9934 ;;      Temps:          1       0       0       0       0       0       0       0       0       0       0       0       
      +0       0
  9935 ;;      Totals:         1       0       0       0       0       0       0       0       0       0       0       0       
      +0       0
  9936 ;;Total ram usage:        1 bytes
  9937 ;; Hardware stack levels used:    1
  9938 ;; Hardware stack levels required when called:    3
  9939 ;; This function calls:
  9940 ;;		__ClearSpecialMultiKeyState
  9941 ;;		__SetKeyChatterCount
  9942 ;; This function is called by:
  9943 ;;		_main
  9944 ;; This function uses a non-reentrant model
  9945 ;;
  9946                           
  9947                           
  9948                           ;psect for function __Init_RAM
  9949  0BD3                     __Init_RAM:
  9950  0BD3                     l4275:	
  9951                           ;incstack = 0
  9952                           ; Regs used in __Init_RAM: [wreg+status,2+status,0+pclath+cstack]
  9953                           
  9954                           
  9955                           ;../Projects/src/initial.c: 80:   TB_100ms = 100;
  9956  0BD3  3064               	movlw	100
  9957  0BD4  00F3               	movwf	??__Init_RAM
  9958  0BD5  0873               	movf	??__Init_RAM,w
  9959  0BD6  0020               	movlb	0	; select bank0
  9960  0BD7  00C9               	movwf	_TB_100ms
  9961                           
  9962                           ;../Projects/src/initial.c: 82:   TB_51s=26;
  9963  0BD8  301A               	movlw	26
  9964  0BD9  00F3               	movwf	??__Init_RAM
  9965  0BDA  0873               	movf	??__Init_RAM,w
  9966  0BDB  00C8               	movwf	_TB_51s
  9967  0BDC                     l4277:
  9968                           
  9969                           ;../Projects/src/initial.c: 83:   TB_5s=TB_51s-1;
  9970  0BDC  0848               	movf	_TB_51s,w
  9971  0BDD  3EFF               	addlw	255
  9972  0BDE  00F3               	movwf	??__Init_RAM
  9973  0BDF  0873               	movf	??__Init_RAM,w
  9974  0BE0  00C7               	movwf	_TB_5s
  9975  0BE1                     l4279:
  9976                           
  9977                           ;../Projects/src/initial.c: 89:  _SetKeyChatterCount() ;
  9978  0BE1  3189  21F3  318B   	fcall	__SetKeyChatterCount
  9979  0BE4                     l4281:
  9980                           
  9981                           ;../Projects/src/initial.c: 90:  m_KeyNew = m_KeyOld = 0xFF ;
  9982  0BE4  30FF               	movlw	255
  9983  0BE5  0020               	movlb	0	; select bank0
  9984  0BE6  00C5               	movwf	_m_KeyOld
  9985  0BE7  00F3               	movwf	??__Init_RAM
  9986  0BE8  0873               	movf	??__Init_RAM,w
  9987  0BE9  00C6               	movwf	_m_KeyNew
  9988  0BEA                     l4283:
  9989                           
  9990                           ;../Projects/src/initial.c: 91:  m_KindOfKey = 0 ;
  9991  0BEA  01C4               	clrf	_m_KindOfKey
  9992  0BEB                     l4285:
  9993                           
  9994                           ;../Projects/src/initial.c: 93:  RAM_RegSW.BIT.Bit6 = 1 ;
  9995  0BEB  1743               	bsf	_RAM_RegSW,6	;volatile
  9996  0BEC                     l4287:
  9997                           
  9998                           ;../Projects/src/initial.c: 94:  RAM_RegSW.BIT.Bit7 = 0 ;
  9999  0BEC  13C3               	bcf	_RAM_RegSW,7	;volatile
 10000  0BED                     l4289:
 10001                           
 10002                           ;../Projects/src/initial.c: 95:  _ClearSpecialMultiKeyState() ;
 10003  0BED  3189  21D6  318B   	fcall	__ClearSpecialMultiKeyState
 10004  0BF0                     l4291:
 10005                           
 10006                           ;../Projects/src/initial.c: 96:  m_TimerKey = 0 ;
 10007  0BF0  0020               	movlb	0	; select bank0
 10008  0BF1  01AE               	clrf	_m_TimerKey
 10009  0BF2  01AF               	clrf	_m_TimerKey+1
 10010  0BF3                     l4293:
 10011                           
 10012                           ;../Projects/src/initial.c: 97:  m_TimerKeyMonitor = 0 ;
 10013  0BF3  01AC               	clrf	_m_TimerKeyMonitor
 10014  0BF4  01AD               	clrf	_m_TimerKeyMonitor+1
 10015  0BF5                     l285:
 10016  0BF5  0008               	return
 10017  0BF6                     __end_of__Init_RAM:
 10018                           
 10019                           	psect	text44
 10020  09F3                     __ptext44:	
 10021 ;; *************** function __SetKeyChatterCount *****************
 10022 ;; Defined at:
 10023 ;;		line 633 in file "../Projects/src/key_and_Other.c"
 10024 ;; Parameters:    Size  Location     Type
 10025 ;;		None
 10026 ;; Auto vars:     Size  Location     Type
 10027 ;;		None
 10028 ;; Return value:  Size  Location     Type
 10029 ;;                  1    wreg      void 
 10030 ;; Registers used:
 10031 ;;		wreg, status,2
 10032 ;; Tracked objects:
 10033 ;;		On entry : 0/0
 10034 ;;		On exit  : 0/0
 10035 ;;		Unchanged: 0/0
 10036 ;; Data sizes:     COMMON   BANK0   BANK1   BANK2   BANK3   BANK4   BANK5   BANK6   BANK7   BANK8   BANK9  BANK10  BANK1
      +1  BANK12
 10037 ;;      Params:         0       0       0       0       0       0       0       0       0       0       0       0       
      +0       0
 10038 ;;      Locals:         0       0       0       0       0       0       0       0       0       0       0       0       
      +0       0
 10039 ;;      Temps:          0       0       0       0       0       0       0       0       0       0       0       0       
      +0       0
 10040 ;;      Totals:         0       0       0       0       0       0       0       0       0       0       0       0       
      +0       0
 10041 ;;Total ram usage:        0 bytes
 10042 ;; Hardware stack levels used:    1
 10043 ;; Hardware stack levels required when called:    2
 10044 ;; This function calls:
 10045 ;;		Nothing
 10046 ;; This function is called by:
 10047 ;;		__Init_RAM
 10048 ;;		__KeyInTx
 10049 ;; This function uses a non-reentrant model
 10050 ;;
 10051                           
 10052                           
 10053                           ;psect for function __SetKeyChatterCount
 10054  09F3                     __SetKeyChatterCount:
 10055  09F3                     l3455:	
 10056                           ;incstack = 0
 10057                           ; Regs used in __SetKeyChatterCount: [wreg+status,2]
 10058                           
 10059                           
 10060                           ;../Projects/src/key_and_Other.c: 635:  m_ChatterCount = 1 ;
 10061  09F3  3001               	movlw	1
 10062  09F4  0021               	movlb	1	; select bank1
 10063  09F5  00C6               	movwf	_m_ChatterCount^(0+128)
 10064  09F6  3000               	movlw	0
 10065  09F7  00C7               	movwf	(_m_ChatterCount^(0+128)+1)
 10066  09F8                     l3457:
 10067                           
 10068                           ;../Projects/src/key_and_Other.c: 636:  m_TimerKey = 0 ;
 10069  09F8  0020               	movlb	0	; select bank0
 10070  09F9  01AE               	clrf	_m_TimerKey
 10071  09FA  01AF               	clrf	_m_TimerKey+1
 10072  09FB                     l617:
 10073  09FB  0008               	return
 10074  09FC                     __end_of__SetKeyChatterCount:
 10075                           
 10076                           	psect	text45
 10077  09D6                     __ptext45:	
 10078 ;; *************** function __ClearSpecialMultiKeyState *****************
 10079 ;; Defined at:
 10080 ;;		line 647 in file "../Projects/src/key_and_Other.c"
 10081 ;; Parameters:    Size  Location     Type
 10082 ;;		None
 10083 ;; Auto vars:     Size  Location     Type
 10084 ;;		None
 10085 ;; Return value:  Size  Location     Type
 10086 ;;                  1    wreg      void 
 10087 ;; Registers used:
 10088 ;;		None
 10089 ;; Tracked objects:
 10090 ;;		On entry : 0/0
 10091 ;;		On exit  : 0/0
 10092 ;;		Unchanged: 0/0
 10093 ;; Data sizes:     COMMON   BANK0   BANK1   BANK2   BANK3   BANK4   BANK5   BANK6   BANK7   BANK8   BANK9  BANK10  BANK1
      +1  BANK12
 10094 ;;      Params:         0       0       0       0       0       0       0       0       0       0       0       0       
      +0       0
 10095 ;;      Locals:         0       0       0       0       0       0       0       0       0       0       0       0       
      +0       0
 10096 ;;      Temps:          0       0       0       0       0       0       0       0       0       0       0       0       
      +0       0
 10097 ;;      Totals:         0       0       0       0       0       0       0       0       0       0       0       0       
      +0       0
 10098 ;;Total ram usage:        0 bytes
 10099 ;; Hardware stack levels used:    1
 10100 ;; Hardware stack levels required when called:    2
 10101 ;; This function calls:
 10102 ;;		Nothing
 10103 ;; This function is called by:
 10104 ;;		__Init_RAM
 10105 ;;		__KeyInTx
 10106 ;;		__FuncOpenStop
 10107 ;;		__FuncReg
 10108 ;;		__FuncNoPush
 10109 ;;		__GetNoPushState
 10110 ;; This function uses a non-reentrant model
 10111 ;;
 10112                           
 10113                           
 10114                           ;psect for function __ClearSpecialMultiKeyState
 10115  09D6                     __ClearSpecialMultiKeyState:
 10116  09D6                     l3291:	
 10117                           ;incstack = 0
 10118                           ; Regs used in __ClearSpecialMultiKeyState: []
 10119                           
 10120                           
 10121                           ;../Projects/src/key_and_Other.c: 649:  RAM_RegSW.BIT.Bit0 = 0 ;
 10122  09D6  0020               	movlb	0	; select bank0
 10123  09D7  1043               	bcf	_RAM_RegSW,0	;volatile
 10124                           
 10125                           ;../Projects/src/key_and_Other.c: 650:  RAM_RegSW.BIT.Bit1 = 0 ;
 10126  09D8  10C3               	bcf	_RAM_RegSW,1	;volatile
 10127                           
 10128                           ;../Projects/src/key_and_Other.c: 651:  RAM_RegSW.BIT.Bit2 = 0 ;
 10129  09D9  1143               	bcf	_RAM_RegSW,2	;volatile
 10130                           
 10131                           ;../Projects/src/key_and_Other.c: 652:  RAM_RegSW.BIT.Bit3 = 0 ;
 10132  09DA  11C3               	bcf	_RAM_RegSW,3	;volatile
 10133                           
 10134                           ;../Projects/src/key_and_Other.c: 653:  RAM_RegSW.BIT.Bit4 = 0 ;
 10135  09DB  1243               	bcf	_RAM_RegSW,4	;volatile
 10136  09DC                     l620:
 10137  09DC  0008               	return
 10138  09DD                     __end_of__ClearSpecialMultiKeyState:
 10139                           
 10140                           	psect	text46
 10141  09C8                     __ptext46:	
 10142 ;; *************** function _WDT_init *****************
 10143 ;; Defined at:
 10144 ;;		line 21 in file "../Projects/src/initial.c"
 10145 ;; Parameters:    Size  Location     Type
 10146 ;;		None
 10147 ;; Auto vars:     Size  Location     Type
 10148 ;;		None
 10149 ;; Return value:  Size  Location     Type
 10150 ;;                  1    wreg      void 
 10151 ;; Registers used:
 10152 ;;		None
 10153 ;; Tracked objects:
 10154 ;;		On entry : 0/0
 10155 ;;		On exit  : 0/0
 10156 ;;		Unchanged: 0/0
 10157 ;; Data sizes:     COMMON   BANK0   BANK1   BANK2   BANK3   BANK4   BANK5   BANK6   BANK7   BANK8   BANK9  BANK10  BANK1
      +1  BANK12
 10158 ;;      Params:         0       0       0       0       0       0       0       0       0       0       0       0       
      +0       0
 10159 ;;      Locals:         0       0       0       0       0       0       0       0       0       0       0       0       
      +0       0
 10160 ;;      Temps:          0       0       0       0       0       0       0       0       0       0       0       0       
      +0       0
 10161 ;;      Totals:         0       0       0       0       0       0       0       0       0       0       0       0       
      +0       0
 10162 ;;Total ram usage:        0 bytes
 10163 ;; Hardware stack levels used:    1
 10164 ;; Hardware stack levels required when called:    2
 10165 ;; This function calls:
 10166 ;;		Nothing
 10167 ;; This function is called by:
 10168 ;;		_main
 10169 ;; This function uses a non-reentrant model
 10170 ;;
 10171                           
 10172                           
 10173                           ;psect for function _WDT_init
 10174  09C8                     _WDT_init:
 10175  09C8                     l267:	
 10176                           ;incstack = 0
 10177                           ; Regs used in _WDT_init: []
 10178                           
 10179  09C8  0008               	return
 10180  09C9                     __end_of_WDT_init:
 10181                           
 10182                           	psect	text47
 10183  0AA5                     __ptext47:	
 10184 ;; *************** function _VHF_GPIO_INIT *****************
 10185 ;; Defined at:
 10186 ;;		line 45 in file "../Projects/src/initial.c"
 10187 ;; Parameters:    Size  Location     Type
 10188 ;;		None
 10189 ;; Auto vars:     Size  Location     Type
 10190 ;;		None
 10191 ;; Return value:  Size  Location     Type
 10192 ;;                  1    wreg      void 
 10193 ;; Registers used:
 10194 ;;		wreg, status,2
 10195 ;; Tracked objects:
 10196 ;;		On entry : 0/0
 10197 ;;		On exit  : 0/0
 10198 ;;		Unchanged: 0/0
 10199 ;; Data sizes:     COMMON   BANK0   BANK1   BANK2   BANK3   BANK4   BANK5   BANK6   BANK7   BANK8   BANK9  BANK10  BANK1
      +1  BANK12
 10200 ;;      Params:         0       0       0       0       0       0       0       0       0       0       0       0       
      +0       0
 10201 ;;      Locals:         0       0       0       0       0       0       0       0       0       0       0       0       
      +0       0
 10202 ;;      Temps:          0       0       0       0       0       0       0       0       0       0       0       0       
      +0       0
 10203 ;;      Totals:         0       0       0       0       0       0       0       0       0       0       0       0       
      +0       0
 10204 ;;Total ram usage:        0 bytes
 10205 ;; Hardware stack levels used:    1
 10206 ;; Hardware stack levels required when called:    2
 10207 ;; This function calls:
 10208 ;;		Nothing
 10209 ;; This function is called by:
 10210 ;;		_main
 10211 ;; This function uses a non-reentrant model
 10212 ;;
 10213                           
 10214                           
 10215                           ;psect for function _VHF_GPIO_INIT
 10216  0AA5                     _VHF_GPIO_INIT:
 10217  0AA5                     l4249:	
 10218                           ;incstack = 0
 10219                           ; Regs used in _VHF_GPIO_INIT: [wreg+status,2]
 10220                           
 10221                           
 10222                           ;../Projects/src/initial.c: 47:   ANSELA=0X00;
 10223  0AA5  0023               	movlb	3	; select bank3
 10224  0AA6  018C               	clrf	12	;volatile
 10225                           
 10226                           ;../Projects/src/initial.c: 48:   ANSELB=0X00;
 10227  0AA7  018D               	clrf	13	;volatile
 10228                           
 10229                           ;../Projects/src/initial.c: 49:   ANSELC=0X00;
 10230  0AA8  018E               	clrf	14	;volatile
 10231  0AA9                     l4251:
 10232                           
 10233                           ;../Projects/src/initial.c: 51:   nWPUEN=0;
 10234  0AA9  0021               	movlb	1	; select bank1
 10235  0AAA  1395               	bcf	21,7	;volatile
 10236  0AAB                     l4253:
 10237                           
 10238                           ;../Projects/src/initial.c: 52:   TRISA=0B00010100;
 10239  0AAB  3014               	movlw	20
 10240  0AAC  008C               	movwf	12	;volatile
 10241  0AAD                     l4255:
 10242                           
 10243                           ;../Projects/src/initial.c: 53:   WPUA=0B00000000;
 10244  0AAD  0024               	movlb	4	; select bank4
 10245  0AAE  018C               	clrf	12	;volatile
 10246                           
 10247                           ;../Projects/src/initial.c: 54:   TRISB=0B01010000;
 10248  0AAF  3050               	movlw	80
 10249  0AB0  0021               	movlb	1	; select bank1
 10250  0AB1  008D               	movwf	13	;volatile
 10251  0AB2                     l4257:
 10252                           
 10253                           ;../Projects/src/initial.c: 55:   WPUB=0B00000000;
 10254  0AB2  0024               	movlb	4	; select bank4
 10255  0AB3  018D               	clrf	13	;volatile
 10256  0AB4                     l4259:
 10257                           
 10258                           ;../Projects/src/initial.c: 56:   TRISC=0B00111010;
 10259  0AB4  303A               	movlw	58
 10260  0AB5  0021               	movlb	1	; select bank1
 10261  0AB6  008E               	movwf	14	;volatile
 10262                           
 10263                           ;../Projects/src/initial.c: 57:   WPUC=0B00000000;
 10264  0AB7  0024               	movlb	4	; select bank4
 10265  0AB8  018E               	clrf	14	;volatile
 10266  0AB9                     l4261:
 10267                           
 10268                           ;../Projects/src/initial.c: 60:   RB6=0;
 10269  0AB9  0020               	movlb	0	; select bank0
 10270  0ABA  130D               	bcf	13,6	;volatile
 10271  0ABB                     l4263:
 10272                           
 10273                           ;../Projects/src/initial.c: 62:   RC7=0;
 10274  0ABB  138E               	bcf	14,7	;volatile
 10275  0ABC                     l4265:
 10276                           
 10277                           ;../Projects/src/initial.c: 64:   RC6=0;
 10278  0ABC  130E               	bcf	14,6	;volatile
 10279  0ABD                     l4267:
 10280                           
 10281                           ;../Projects/src/initial.c: 66:   RC2=0;
 10282  0ABD  110E               	bcf	14,2	;volatile
 10283  0ABE                     l4269:
 10284                           
 10285                           ;../Projects/src/initial.c: 71:   RC0=0;
 10286  0ABE  100E               	bcf	14,0	;volatile
 10287  0ABF                     l4271:
 10288                           
 10289                           ;../Projects/src/initial.c: 73:   RA5=0;
 10290  0ABF  128C               	bcf	12,5	;volatile
 10291  0AC0                     l4273:
 10292                           
 10293                           ;../Projects/src/initial.c: 75:   RB7=0;
 10294  0AC0  138D               	bcf	13,7	;volatile
 10295  0AC1                     l282:
 10296  0AC1  0008               	return
 10297  0AC2                     __end_of_VHF_GPIO_INIT:
 10298                           
 10299                           	psect	text48
 10300  09C7                     __ptext48:	
 10301 ;; *************** function _UART1_INIT *****************
 10302 ;; Defined at:
 10303 ;;		line 22 in file "../Projects/src/uart.c"
 10304 ;; Parameters:    Size  Location     Type
 10305 ;;		None
 10306 ;; Auto vars:     Size  Location     Type
 10307 ;;		None
 10308 ;; Return value:  Size  Location     Type
 10309 ;;                  1    wreg      void 
 10310 ;; Registers used:
 10311 ;;		None
 10312 ;; Tracked objects:
 10313 ;;		On entry : 0/0
 10314 ;;		On exit  : 0/0
 10315 ;;		Unchanged: 0/0
 10316 ;; Data sizes:     COMMON   BANK0   BANK1   BANK2   BANK3   BANK4   BANK5   BANK6   BANK7   BANK8   BANK9  BANK10  BANK1
      +1  BANK12
 10317 ;;      Params:         0       0       0       0       0       0       0       0       0       0       0       0       
      +0       0
 10318 ;;      Locals:         0       0       0       0       0       0       0       0       0       0       0       0       
      +0       0
 10319 ;;      Temps:          0       0       0       0       0       0       0       0       0       0       0       0       
      +0       0
 10320 ;;      Totals:         0       0       0       0       0       0       0       0       0       0       0       0       
      +0       0
 10321 ;;Total ram usage:        0 bytes
 10322 ;; Hardware stack levels used:    1
 10323 ;; Hardware stack levels required when called:    2
 10324 ;; This function calls:
 10325 ;;		Nothing
 10326 ;; This function is called by:
 10327 ;;		_main
 10328 ;; This function uses a non-reentrant model
 10329 ;;
 10330                           
 10331                           
 10332                           ;psect for function _UART1_INIT
 10333  09C7                     _UART1_INIT:
 10334  09C7                     l1023:	
 10335                           ;incstack = 0
 10336                           ; Regs used in _UART1_INIT: []
 10337                           
 10338  09C7  0008               	return
 10339  09C8                     __end_of_UART1_INIT:
 10340                           
 10341                           	psect	text49
 10342  0A07                     __ptext49:	
 10343 ;; *************** function _TIM4_Init *****************
 10344 ;; Defined at:
 10345 ;;		line 38 in file "../Projects/src/Timer.c"
 10346 ;; Parameters:    Size  Location     Type
 10347 ;;		None
 10348 ;; Auto vars:     Size  Location     Type
 10349 ;;		None
 10350 ;; Return value:  Size  Location     Type
 10351 ;;                  1    wreg      void 
 10352 ;; Registers used:
 10353 ;;		wreg, status,2
 10354 ;; Tracked objects:
 10355 ;;		On entry : 0/0
 10356 ;;		On exit  : 0/0
 10357 ;;		Unchanged: 0/0
 10358 ;; Data sizes:     COMMON   BANK0   BANK1   BANK2   BANK3   BANK4   BANK5   BANK6   BANK7   BANK8   BANK9  BANK10  BANK1
      +1  BANK12
 10359 ;;      Params:         0       0       0       0       0       0       0       0       0       0       0       0       
      +0       0
 10360 ;;      Locals:         0       0       0       0       0       0       0       0       0       0       0       0       
      +0       0
 10361 ;;      Temps:          0       0       0       0       0       0       0       0       0       0       0       0       
      +0       0
 10362 ;;      Totals:         0       0       0       0       0       0       0       0       0       0       0       0       
      +0       0
 10363 ;;Total ram usage:        0 bytes
 10364 ;; Hardware stack levels used:    1
 10365 ;; Hardware stack levels required when called:    2
 10366 ;; This function calls:
 10367 ;;		Nothing
 10368 ;; This function is called by:
 10369 ;;		_main
 10370 ;; This function uses a non-reentrant model
 10371 ;;
 10372                           
 10373                           
 10374                           ;psect for function _TIM4_Init
 10375  0A07                     _TIM4_Init:
 10376  0A07                     l4209:	
 10377                           ;incstack = 0
 10378                           ; Regs used in _TIM4_Init: [wreg+status,2]
 10379                           
 10380                           
 10381                           ;../Projects/src/Timer.c: 39:  TMR2=0X00;
 10382  0A07  0020               	movlb	0	; select bank0
 10383  0A08  019A               	clrf	26	;volatile
 10384  0A09                     l4211:
 10385                           
 10386                           ;../Projects/src/Timer.c: 40:  PR2=0X64;
 10387  0A09  3064               	movlw	100
 10388  0A0A  009B               	movwf	27	;volatile
 10389  0A0B                     l4213:
 10390                           
 10391                           ;../Projects/src/Timer.c: 41:  TMR2IF=0;
 10392  0A0B  1091               	bcf	17,1	;volatile
 10393  0A0C                     l4215:
 10394                           
 10395                           ;../Projects/src/Timer.c: 43:  TMR2IE=1;
 10396  0A0C  0021               	movlb	1	; select bank1
 10397  0A0D  1491               	bsf	17,1	;volatile
 10398  0A0E                     l4217:
 10399                           
 10400                           ;../Projects/src/Timer.c: 44:  T2CON=0B01001101;
 10401  0A0E  304D               	movlw	77
 10402  0A0F  0020               	movlb	0	; select bank0
 10403  0A10  009C               	movwf	28	;volatile
 10404  0A11                     l98:
 10405  0A11  0008               	return
 10406  0A12                     __end_of_TIM4_Init:
 10407                           
 10408                           	psect	text50
 10409  09EB                     __ptext50:	
 10410 ;; *************** function _SysClock_Init *****************
 10411 ;; Defined at:
 10412 ;;		line 31 in file "../Projects/src/initial.c"
 10413 ;; Parameters:    Size  Location     Type
 10414 ;;		None
 10415 ;; Auto vars:     Size  Location     Type
 10416 ;;		None
 10417 ;; Return value:  Size  Location     Type
 10418 ;;                  1    wreg      void 
 10419 ;; Registers used:
 10420 ;;		wreg
 10421 ;; Tracked objects:
 10422 ;;		On entry : 0/0
 10423 ;;		On exit  : 0/0
 10424 ;;		Unchanged: 0/0
 10425 ;; Data sizes:     COMMON   BANK0   BANK1   BANK2   BANK3   BANK4   BANK5   BANK6   BANK7   BANK8   BANK9  BANK10  BANK1
      +1  BANK12
 10426 ;;      Params:         0       0       0       0       0       0       0       0       0       0       0       0       
      +0       0
 10427 ;;      Locals:         0       0       0       0       0       0       0       0       0       0       0       0       
      +0       0
 10428 ;;      Temps:          0       0       0       0       0       0       0       0       0       0       0       0       
      +0       0
 10429 ;;      Totals:         0       0       0       0       0       0       0       0       0       0       0       0       
      +0       0
 10430 ;;Total ram usage:        0 bytes
 10431 ;; Hardware stack levels used:    1
 10432 ;; Hardware stack levels required when called:    2
 10433 ;; This function calls:
 10434 ;;		Nothing
 10435 ;; This function is called by:
 10436 ;;		_main
 10437 ;; This function uses a non-reentrant model
 10438 ;;
 10439                           
 10440                           
 10441                           ;psect for function _SysClock_Init
 10442  09EB                     _SysClock_Init:
 10443  09EB                     l4247:	
 10444                           ;incstack = 0
 10445                           ; Regs used in _SysClock_Init: [wreg]
 10446                           
 10447                           
 10448                           ;../Projects/src/initial.c: 33:   OSCCON=0x78;
 10449  09EB  3078               	movlw	120
 10450  09EC  0021               	movlb	1	; select bank1
 10451  09ED  0099               	movwf	25	;volatile
 10452  09EE                     l273:	
 10453                           ;../Projects/src/initial.c: 34:   while(!HFIOFR);
 10454                           
 10455  09EE  1E1A               	btfss	26,4	;volatile
 10456  09EF  29F1               	goto	u2061
 10457  09F0  29F2               	goto	u2060
 10458  09F1                     u2061:
 10459  09F1  29EE               	goto	l273
 10460  09F2                     u2060:
 10461  09F2                     l276:
 10462  09F2  0008               	return
 10463  09F3                     __end_of_SysClock_Init:
 10464                           
 10465                           	psect	text51
 10466  09C6                     __ptext51:	
 10467 ;; *************** function _START_AD_SAMPLER *****************
 10468 ;; Defined at:
 10469 ;;		line 21 in file "../Projects/src/ad.c"
 10470 ;; Parameters:    Size  Location     Type
 10471 ;;		None
 10472 ;; Auto vars:     Size  Location     Type
 10473 ;;		None
 10474 ;; Return value:  Size  Location     Type
 10475 ;;                  1    wreg      void 
 10476 ;; Registers used:
 10477 ;;		None
 10478 ;; Tracked objects:
 10479 ;;		On entry : 0/0
 10480 ;;		On exit  : 0/0
 10481 ;;		Unchanged: 0/0
 10482 ;; Data sizes:     COMMON   BANK0   BANK1   BANK2   BANK3   BANK4   BANK5   BANK6   BANK7   BANK8   BANK9  BANK10  BANK1
      +1  BANK12
 10483 ;;      Params:         0       0       0       0       0       0       0       0       0       0       0       0       
      +0       0
 10484 ;;      Locals:         0       0       0       0       0       0       0       0       0       0       0       0       
      +0       0
 10485 ;;      Temps:          0       0       0       0       0       0       0       0       0       0       0       0       
      +0       0
 10486 ;;      Totals:         0       0       0       0       0       0       0       0       0       0       0       0       
      +0       0
 10487 ;;Total ram usage:        0 bytes
 10488 ;; Hardware stack levels used:    1
 10489 ;; Hardware stack levels required when called:    2
 10490 ;; This function calls:
 10491 ;;		Nothing
 10492 ;; This function is called by:
 10493 ;;		_main
 10494 ;;		_ADC2_EOC_INT
 10495 ;; This function uses a non-reentrant model
 10496 ;;
 10497                           
 10498                           
 10499                           ;psect for function _START_AD_SAMPLER
 10500  09C6                     _START_AD_SAMPLER:
 10501  09C6                     l118:	
 10502                           ;incstack = 0
 10503                           ; Regs used in _START_AD_SAMPLER: []
 10504                           
 10505  09C6  0008               	return
 10506  09C7                     __end_of_START_AD_SAMPLER:
 10507                           
 10508                           	psect	text52
 10509  09C5                     __ptext52:	
 10510 ;; *************** function _InitialFlashReg *****************
 10511 ;; Defined at:
 10512 ;;		line 110 in file "../Projects/src/eeprom.c"
 10513 ;; Parameters:    Size  Location     Type
 10514 ;;		None
 10515 ;; Auto vars:     Size  Location     Type
 10516 ;;		None
 10517 ;; Return value:  Size  Location     Type
 10518 ;;                  1    wreg      void 
 10519 ;; Registers used:
 10520 ;;		None
 10521 ;; Tracked objects:
 10522 ;;		On entry : 0/0
 10523 ;;		On exit  : 0/0
 10524 ;;		Unchanged: 0/0
 10525 ;; Data sizes:     COMMON   BANK0   BANK1   BANK2   BANK3   BANK4   BANK5   BANK6   BANK7   BANK8   BANK9  BANK10  BANK1
      +1  BANK12
 10526 ;;      Params:         0       0       0       0       0       0       0       0       0       0       0       0       
      +0       0
 10527 ;;      Locals:         0       0       0       0       0       0       0       0       0       0       0       0       
      +0       0
 10528 ;;      Temps:          0       0       0       0       0       0       0       0       0       0       0       0       
      +0       0
 10529 ;;      Totals:         0       0       0       0       0       0       0       0       0       0       0       0       
      +0       0
 10530 ;;Total ram usage:        0 bytes
 10531 ;; Hardware stack levels used:    1
 10532 ;; Hardware stack levels required when called:    2
 10533 ;; This function calls:
 10534 ;;		Nothing
 10535 ;; This function is called by:
 10536 ;;		_main
 10537 ;; This function uses a non-reentrant model
 10538 ;;
 10539                           
 10540                           
 10541                           ;psect for function _InitialFlashReg
 10542  09C5                     _InitialFlashReg:
 10543  09C5                     l173:	
 10544                           ;incstack = 0
 10545                           ; Regs used in _InitialFlashReg: []
 10546                           
 10547  09C5  0008               	return
 10548  09C6                     __end_of_InitialFlashReg:
 10549                           
 10550                           	psect	text53
 10551  09FC                     __ptext53:	
 10552 ;; *************** function _EXIT_init *****************
 10553 ;; Defined at:
 10554 ;;		line 22 in file "../Projects/src/EXIT_FUN.c"
 10555 ;; Parameters:    Size  Location     Type
 10556 ;;		None
 10557 ;; Auto vars:     Size  Location     Type
 10558 ;;		None
 10559 ;; Return value:  Size  Location     Type
 10560 ;;                  1    wreg      void 
 10561 ;; Registers used:
 10562 ;;		wreg, status,2
 10563 ;; Tracked objects:
 10564 ;;		On entry : 0/0
 10565 ;;		On exit  : 0/0
 10566 ;;		Unchanged: 0/0
 10567 ;; Data sizes:     COMMON   BANK0   BANK1   BANK2   BANK3   BANK4   BANK5   BANK6   BANK7   BANK8   BANK9  BANK10  BANK1
      +1  BANK12
 10568 ;;      Params:         0       0       0       0       0       0       0       0       0       0       0       0       
      +0       0
 10569 ;;      Locals:         0       0       0       0       0       0       0       0       0       0       0       0       
      +0       0
 10570 ;;      Temps:          0       0       0       0       0       0       0       0       0       0       0       0       
      +0       0
 10571 ;;      Totals:         0       0       0       0       0       0       0       0       0       0       0       0       
      +0       0
 10572 ;;Total ram usage:        0 bytes
 10573 ;; Hardware stack levels used:    1
 10574 ;; Hardware stack levels required when called:    2
 10575 ;; This function calls:
 10576 ;;		Nothing
 10577 ;; This function is called by:
 10578 ;;		_main
 10579 ;; This function uses a non-reentrant model
 10580 ;;
 10581                           
 10582                           
 10583                           ;psect for function _EXIT_init
 10584  09FC                     _EXIT_init:
 10585  09FC                     l4183:	
 10586                           ;incstack = 0
 10587                           ; Regs used in _EXIT_init: [wreg+status,2]
 10588                           
 10589                           
 10590                           ;../Projects/src/EXIT_FUN.c: 23:   IOCAP=0b00000000;
 10591  09FC  0027               	movlb	7	; select bank7
 10592  09FD  0191               	clrf	17	;volatile
 10593  09FE                     l4185:
 10594                           
 10595                           ;../Projects/src/EXIT_FUN.c: 24:   IOCAN=0b00000100;
 10596  09FE  3004               	movlw	4
 10597  09FF  0092               	movwf	18	;volatile
 10598  0A00                     l4187:
 10599                           
 10600                           ;../Projects/src/EXIT_FUN.c: 25:   IOCIE=1;
 10601  0A00  158B               	bsf	11,3	;volatile
 10602  0A01                     l43:	
 10603                           ;../Projects/src/EXIT_FUN.c: 26:   while(!FVRRDY);
 10604                           
 10605  0A01  0022               	movlb	2	; select bank2
 10606  0A02  1F17               	btfss	23,6	;volatile
 10607  0A03  2A05               	goto	u1921
 10608  0A04  2A06               	goto	u1920
 10609  0A05                     u1921:
 10610  0A05  2A01               	goto	l43
 10611  0A06                     u1920:
 10612  0A06                     l46:
 10613  0A06  0008               	return
 10614  0A07                     __end_of_EXIT_init:
 10615                           
 10616                           	psect	text54
 10617  0C9F                     __ptext54:	
 10618 ;; *************** function _AD_control *****************
 10619 ;; Defined at:
 10620 ;;		line 42 in file "../Projects/src/ad.c"
 10621 ;; Parameters:    Size  Location     Type
 10622 ;;		None
 10623 ;; Auto vars:     Size  Location     Type
 10624 ;;		None
 10625 ;; Return value:  Size  Location     Type
 10626 ;;                  1    wreg      void 
 10627 ;; Registers used:
 10628 ;;		wreg, status,2, status,0
 10629 ;; Tracked objects:
 10630 ;;		On entry : 0/0
 10631 ;;		On exit  : 0/0
 10632 ;;		Unchanged: 0/0
 10633 ;; Data sizes:     COMMON   BANK0   BANK1   BANK2   BANK3   BANK4   BANK5   BANK6   BANK7   BANK8   BANK9  BANK10  BANK1
      +1  BANK12
 10634 ;;      Params:         0       0       0       0       0       0       0       0       0       0       0       0       
      +0       0
 10635 ;;      Locals:         0       0       0       0       0       0       0       0       0       0       0       0       
      +0       0
 10636 ;;      Temps:          1       0       0       0       0       0       0       0       0       0       0       0       
      +0       0
 10637 ;;      Totals:         1       0       0       0       0       0       0       0       0       0       0       0       
      +0       0
 10638 ;;Total ram usage:        1 bytes
 10639 ;; Hardware stack levels used:    1
 10640 ;; Hardware stack levels required when called:    2
 10641 ;; This function calls:
 10642 ;;		Nothing
 10643 ;; This function is called by:
 10644 ;;		_main
 10645 ;; This function uses a non-reentrant model
 10646 ;;
 10647                           
 10648                           
 10649                           ;psect for function _AD_control
 10650  0C9F                     _AD_control:
 10651  0C9F                     l4219:	
 10652                           ;incstack = 0
 10653                           ; Regs used in _AD_control: [wreg+status,2+status,0]
 10654                           
 10655                           
 10656                           ;../Projects/src/ad.c: 43:       if(TIME_power_on_AD)
 10657  0C9F  0020               	movlb	0	; select bank0
 10658  0CA0  0830               	movf	_TIME_power_on_AD,w
 10659  0CA1  0431               	iorwf	_TIME_power_on_AD+1,w
 10660  0CA2  1903               	btfsc	3,2
 10661  0CA3  2CA5               	goto	u2001
 10662  0CA4  2CA6               	goto	u2000
 10663  0CA5                     u2001:
 10664  0CA5  2CDD               	goto	l130
 10665  0CA6                     u2000:
 10666  0CA6                     l4221:
 10667                           
 10668                           ;../Projects/src/ad.c: 44:       {;../Projects/src/ad.c: 45:           if(BAT_Voltage_va
      +                          lue>2400)BAT_out=0;
 10669  0CA6  0021               	movlb	1	; select bank1
 10670  0CA7  0833               	movf	(_BAT_Voltage_value+3)^(0+128),w
 10671  0CA8  1D03               	btfss	3,2
 10672  0CA9  2CB5               	goto	u2010
 10673  0CAA  0832               	movf	(_BAT_Voltage_value+2)^(0+128),w
 10674  0CAB  1D03               	btfss	3,2
 10675  0CAC  2CB5               	goto	u2010
 10676  0CAD  3061               	movlw	97
 10677  0CAE  0230               	subwf	_BAT_Voltage_value^(0+128),w
 10678  0CAF  3009               	movlw	9
 10679  0CB0  3B31               	subwfb	(_BAT_Voltage_value+1)^(0+128),w
 10680  0CB1  1C03               	btfss	3,0
 10681  0CB2  2CB4               	goto	u2011
 10682  0CB3  2CB5               	goto	u2010
 10683  0CB4                     u2011:
 10684  0CB4  2CB8               	goto	l4225
 10685  0CB5                     u2010:
 10686  0CB5                     l4223:
 10687  0CB5  0020               	movlb	0	; select bank0
 10688  0CB6  01CB               	clrf	_BAT_out
 10689  0CB7  2CDD               	goto	l130
 10690  0CB8                     l4225:
 10691  0CB8  0833               	movf	(_BAT_Voltage_value+3)^(0+128),w
 10692  0CB9  1D03               	btfss	3,2
 10693  0CBA  2CC5               	goto	u2021
 10694  0CBB  0832               	movf	(_BAT_Voltage_value+2)^(0+128),w
 10695  0CBC  1D03               	btfss	3,2
 10696  0CBD  2CC5               	goto	u2021
 10697  0CBE  3061               	movlw	97
 10698  0CBF  0230               	subwf	_BAT_Voltage_value^(0+128),w
 10699  0CC0  3009               	movlw	9
 10700  0CC1  3B31               	subwfb	(_BAT_Voltage_value+1)^(0+128),w
 10701  0CC2  1803               	btfsc	3,0
 10702  0CC3  2CC5               	goto	u2021
 10703  0CC4  2CC6               	goto	u2020
 10704  0CC5                     u2021:
 10705  0CC5  2CD8               	goto	l4231
 10706  0CC6                     u2020:
 10707  0CC6                     l4227:
 10708  0CC6  0833               	movf	(_BAT_Voltage_value+3)^(0+128),w
 10709  0CC7  1D03               	btfss	3,2
 10710  0CC8  2CD4               	goto	u2030
 10711  0CC9  0832               	movf	(_BAT_Voltage_value+2)^(0+128),w
 10712  0CCA  1D03               	btfss	3,2
 10713  0CCB  2CD4               	goto	u2030
 10714  0CCC  3099               	movlw	153
 10715  0CCD  0230               	subwf	_BAT_Voltage_value^(0+128),w
 10716  0CCE  3008               	movlw	8
 10717  0CCF  3B31               	subwfb	(_BAT_Voltage_value+1)^(0+128),w
 10718  0CD0  1C03               	btfss	3,0
 10719  0CD1  2CD3               	goto	u2031
 10720  0CD2  2CD4               	goto	u2030
 10721  0CD3                     u2031:
 10722  0CD3  2CD8               	goto	l4231
 10723  0CD4                     u2030:
 10724  0CD4                     l4229:
 10725  0CD4  0020               	movlb	0	; select bank0
 10726  0CD5  01CB               	clrf	_BAT_out
 10727  0CD6  0ACB               	incf	_BAT_out,f
 10728  0CD7  2CDD               	goto	l130
 10729  0CD8                     l4231:
 10730  0CD8  3002               	movlw	2
 10731  0CD9  00F3               	movwf	??_AD_control
 10732  0CDA  0873               	movf	??_AD_control,w
 10733  0CDB  0020               	movlb	0	; select bank0
 10734  0CDC  00CB               	movwf	_BAT_out
 10735  0CDD                     l130:
 10736  0CDD  0008               	return
 10737  0CDE                     __end_of_AD_control:
 10738                           
 10739                           	psect	intentry
 10740  0004                     __pintentry:	
 10741 ;; *************** function _ISR *****************
 10742 ;; Defined at:
 10743 ;;		line 96 in file "../Projects/src/main.c"
 10744 ;; Parameters:    Size  Location     Type
 10745 ;;		None
 10746 ;; Auto vars:     Size  Location     Type
 10747 ;;		None
 10748 ;; Return value:  Size  Location     Type
 10749 ;;                  1    wreg      void 
 10750 ;; Registers used:
 10751 ;;		wreg, fsr1l, fsr1h, status,2, status,0, pclath, cstack
 10752 ;; Tracked objects:
 10753 ;;		On entry : 0/0
 10754 ;;		On exit  : 0/0
 10755 ;;		Unchanged: 0/0
 10756 ;; Data sizes:     COMMON   BANK0   BANK1   BANK2   BANK3   BANK4   BANK5   BANK6   BANK7   BANK8   BANK9  BANK10  BANK1
      +1  BANK12
 10757 ;;      Params:         0       0       0       0       0       0       0       0       0       0       0       0       
      +0       0
 10758 ;;      Locals:         0       0       0       0       0       0       0       0       0       0       0       0       
      +0       0
 10759 ;;      Temps:          0       0       0       0       0       0       0       0       0       0       0       0       
      +0       0
 10760 ;;      Totals:         0       0       0       0       0       0       0       0       0       0       0       0       
      +0       0
 10761 ;;Total ram usage:        0 bytes
 10762 ;; Hardware stack levels used:    1
 10763 ;; Hardware stack levels required when called:    1
 10764 ;; This function calls:
 10765 ;;		_EXTI_PORTA1
 10766 ;; This function is called by:
 10767 ;;		Interrupt level 1
 10768 ;; This function uses a non-reentrant model
 10769 ;;
 10770                           
 10771  0004                     _ISR:
 10772                           
 10773                           ;incstack = 0
 10774  0004  147E               	bsf	int$flags,0	;set compiler interrupt flag (level 1)
 10775                           
 10776                           ; Regs used in _ISR: [wreg+fsr1l+fsr1h+status,2+status,0+pclath+cstack]
 10777  0005  3180               	pagesel	$
 10778  0006                     i1l4555:
 10779                           
 10780                           ;../Projects/src/main.c: 98:  (INTCONbits.GIE = 0);
 10781  0006  138B               	bcf	11,7	;volatile
 10782                           
 10783                           ;../Projects/src/main.c: 99:  if(IOCIF==1)
 10784  0007  1C0B               	btfss	11,0	;volatile
 10785  0008  280A               	goto	u254_21
 10786  0009  280B               	goto	u254_20
 10787  000A                     u254_21:
 10788  000A  2811               	goto	i1l4563
 10789  000B                     u254_20:
 10790  000B                     i1l4557:
 10791                           
 10792                           ;../Projects/src/main.c: 100:  {;../Projects/src/main.c: 101:    EXTI_PORTA1();
 10793  000B  318D  2530  3180   	fcall	_EXTI_PORTA1
 10794  000E                     i1l4559:
 10795                           
 10796                           ;../Projects/src/main.c: 102:    IOCAF=0;
 10797  000E  0027               	movlb	7	; select bank7
 10798  000F  0193               	clrf	19	;volatile
 10799  0010                     i1l4561:
 10800                           
 10801                           ;../Projects/src/main.c: 103:    IOCIF=0;
 10802  0010  100B               	bcf	11,0	;volatile
 10803  0011                     i1l4563:
 10804                           
 10805                           ;../Projects/src/main.c: 106:   if(TMR2IF==1)
 10806  0011  0020               	movlb	0	; select bank0
 10807  0012  1C91               	btfss	17,1	;volatile
 10808  0013  2815               	goto	u255_21
 10809  0014  2816               	goto	u255_20
 10810  0015                     u255_21:
 10811  0015  2818               	goto	i1l873
 10812  0016                     u255_20:
 10813  0016                     i1l4565:
 10814                           
 10815                           ;../Projects/src/main.c: 107:  {;../Projects/src/main.c: 108:      RAM_OP1.BIT.Bit6 = 1;
 10816  0016  1751               	bsf	_RAM_OP1,6	;volatile
 10817                           
 10818                           ;../Projects/src/main.c: 109:      TMR2IF=0;
 10819  0017  1091               	bcf	17,1	;volatile
 10820  0018                     i1l873:	
 10821                           ;../Projects/src/main.c: 110:  }
 10822                           
 10823                           
 10824                           ;../Projects/src/main.c: 111:  (INTCONbits.GIE = 1);
 10825  0018  178B               	bsf	11,7	;volatile
 10826  0019                     i1l874:
 10827  0019  107E               	bcf	int$flags,0	;clear compiler interrupt flag (level 1)
 10828  001A  0009               	retfie
 10829  001B                     __end_of_ISR:
 10830                           
 10831                           	psect	text56
 10832  0D30                     __ptext56:	
 10833 ;; *************** function _EXTI_PORTA1 *****************
 10834 ;; Defined at:
 10835 ;;		line 29 in file "../Projects/src/EXIT_FUN.c"
 10836 ;; Parameters:    Size  Location     Type
 10837 ;;		None
 10838 ;; Auto vars:     Size  Location     Type
 10839 ;;		None
 10840 ;; Return value:  Size  Location     Type
 10841 ;;                  1    wreg      void 
 10842 ;; Registers used:
 10843 ;;		wreg, fsr1l, fsr1h, status,2, status,0
 10844 ;; Tracked objects:
 10845 ;;		On entry : 0/0
 10846 ;;		On exit  : 0/0
 10847 ;;		Unchanged: 0/0
 10848 ;; Data sizes:     COMMON   BANK0   BANK1   BANK2   BANK3   BANK4   BANK5   BANK6   BANK7   BANK8   BANK9  BANK10  BANK1
      +1  BANK12
 10849 ;;      Params:         0       0       0       0       0       0       0       0       0       0       0       0       
      +0       0
 10850 ;;      Locals:         0       0       0       0       0       0       0       0       0       0       0       0       
      +0       0
 10851 ;;      Temps:          3       0       0       0       0       0       0       0       0       0       0       0       
      +0       0
 10852 ;;      Totals:         3       0       0       0       0       0       0       0       0       0       0       0       
      +0       0
 10853 ;;Total ram usage:        3 bytes
 10854 ;; Hardware stack levels used:    1
 10855 ;; This function calls:
 10856 ;;		Nothing
 10857 ;; This function is called by:
 10858 ;;		_ISR
 10859 ;; This function uses a non-reentrant model
 10860 ;;
 10861                           
 10862                           
 10863                           ;psect for function _EXTI_PORTA1
 10864  0D30                     _EXTI_PORTA1:
 10865  0D30                     i1l4189:	
 10866                           ;incstack = 0
 10867                           ; Regs used in _EXTI_PORTA1: [wreg+fsr1l+fsr1h+status,2+status,0]
 10868                           
 10869                           
 10870                           ;../Projects/src/EXIT_FUN.c: 31:   RC0=RAM_OP3.BIT.Bit0;
 10871  0D30  0020               	movlb	0	; select bank0
 10872  0D31  1852               	btfsc	_RAM_OP3,0	;volatile
 10873  0D32  2D34               	goto	u193_21
 10874  0D33  2D37               	goto	u193_20
 10875  0D34                     u193_21:
 10876  0D34  0020               	movlb	0	; select bank0
 10877  0D35  140E               	bsf	14,0	;volatile
 10878  0D36  2D39               	goto	u194_24
 10879  0D37                     u193_20:
 10880  0D37  0020               	movlb	0	; select bank0
 10881  0D38  100E               	bcf	14,0	;volatile
 10882  0D39                     u194_24:
 10883                           
 10884                           ;../Projects/src/EXIT_FUN.c: 32:   if(RAM_OP1.BIT.Bit0==1){
 10885  0D39  1C51               	btfss	_RAM_OP1,0	;volatile
 10886  0D3A  2D3C               	goto	u195_21
 10887  0D3B  2D3D               	goto	u195_20
 10888  0D3C                     u195_21:
 10889  0D3C  2D86               	goto	i1l55
 10890  0D3D                     u195_20:
 10891  0D3D                     i1l4191:
 10892                           
 10893                           ;../Projects/src/EXIT_FUN.c: 33:     if(txphase%8==0)ID_INT_CODE=m_RFNormalBuf[txphase/8
      +                          ];
 10894  0D3D  3007               	movlw	7
 10895  0D3E  0532               	andwf	_txphase,w
 10896  0D3F  00F0               	movwf	??_EXTI_PORTA1
 10897  0D40  3000               	movlw	0
 10898  0D41  0533               	andwf	_txphase+1,w
 10899  0D42  00F1               	movwf	??_EXTI_PORTA1+1
 10900  0D43  0870               	movf	??_EXTI_PORTA1,w
 10901  0D44  0471               	iorwf	??_EXTI_PORTA1+1,w
 10902  0D45  1D03               	btfss	3,2
 10903  0D46  2D48               	goto	u196_21
 10904  0D47  2D49               	goto	u196_20
 10905  0D48                     u196_21:
 10906  0D48  2D5C               	goto	i1l4195
 10907  0D49                     u196_20:
 10908  0D49                     i1l4193:
 10909  0D49  0833               	movf	_txphase+1,w
 10910  0D4A  00F1               	movwf	??_EXTI_PORTA1+1
 10911  0D4B  0832               	movf	_txphase,w
 10912  0D4C  00F0               	movwf	??_EXTI_PORTA1
 10913  0D4D  36F1               	lsrf	??_EXTI_PORTA1+1,f
 10914  0D4E  0CF0               	rrf	??_EXTI_PORTA1,f
 10915  0D4F  36F1               	lsrf	??_EXTI_PORTA1+1,f
 10916  0D50  0CF0               	rrf	??_EXTI_PORTA1,f
 10917  0D51  36F1               	lsrf	??_EXTI_PORTA1+1,f
 10918  0D52  0CF0               	rrf	??_EXTI_PORTA1,f
 10919  0D53  0870               	movf	??_EXTI_PORTA1,w
 10920  0D54  3E20               	addlw	(low (_m_RFNormalBuf| (0+256)))& (0+255)
 10921  0D55  0086               	movwf	6
 10922  0D56  3001               	movlw	1	; select bank2/3
 10923  0D57  0087               	movwf	7
 10924  0D58  0801               	movf	1,w
 10925  0D59  00F2               	movwf	??_EXTI_PORTA1+2
 10926  0D5A  0872               	movf	??_EXTI_PORTA1+2,w
 10927  0D5B  00D0               	movwf	_ID_INT_CODE
 10928  0D5C                     i1l4195:
 10929                           
 10930                           ;../Projects/src/EXIT_FUN.c: 34:     if (ID_INT_CODE & 0x80)RAM_OP3.BIT.Bit0=1;
 10931  0D5C  1FD0               	btfss	_ID_INT_CODE,7
 10932  0D5D  2D5F               	goto	u197_21
 10933  0D5E  2D60               	goto	u197_20
 10934  0D5F                     u197_21:
 10935  0D5F  2D62               	goto	i1l51
 10936  0D60                     u197_20:
 10937  0D60                     i1l4197:
 10938  0D60  1452               	bsf	_RAM_OP3,0	;volatile
 10939  0D61  2D63               	goto	i1l4199
 10940  0D62                     i1l51:	
 10941                           ;../Projects/src/EXIT_FUN.c: 35:     else RAM_OP3.BIT.Bit0=0;
 10942                           
 10943  0D62  1052               	bcf	_RAM_OP3,0	;volatile
 10944  0D63                     i1l4199:
 10945                           
 10946                           ;../Projects/src/EXIT_FUN.c: 36:     ID_INT_CODE<<=1;
 10947  0D63  1003               	clrc
 10948  0D64  0DD0               	rlf	_ID_INT_CODE,f
 10949                           
 10950                           ;../Projects/src/EXIT_FUN.c: 37:     txphase++;
 10951  0D65  3001               	movlw	1
 10952  0D66  07B2               	addwf	_txphase,f
 10953  0D67  3000               	movlw	0
 10954  0D68  3DB3               	addwfc	_txphase+1,f
 10955                           
 10956                           ;../Projects/src/EXIT_FUN.c: 39:         if(txphase>=txphase_end){
 10957  0D69  0021               	movlb	1	; select bank1
 10958  0D6A  084B               	movf	(_txphase_end+1)^(0+128),w
 10959  0D6B  0020               	movlb	0	; select bank0
 10960  0D6C  0233               	subwf	_txphase+1,w
 10961  0D6D  1D03               	skipz
 10962  0D6E  2D73               	goto	u198_25
 10963  0D6F  0021               	movlb	1	; select bank1
 10964  0D70  084A               	movf	_txphase_end^(0+128),w
 10965  0D71  0020               	movlb	0	; select bank0
 10966  0D72  0232               	subwf	_txphase,w
 10967  0D73                     u198_25:
 10968  0D73  1C03               	skipc
 10969  0D74  2D76               	goto	u198_21
 10970  0D75  2D77               	goto	u198_20
 10971  0D76                     u198_21:
 10972  0D76  2D86               	goto	i1l55
 10973  0D77                     u198_20:
 10974  0D77                     i1l4201:
 10975                           
 10976                           ;../Projects/src/EXIT_FUN.c: 40:         txphase=0;
 10977  0D77  01B2               	clrf	_txphase
 10978  0D78  01B3               	clrf	_txphase+1
 10979  0D79                     i1l4203:
 10980                           
 10981                           ;../Projects/src/EXIT_FUN.c: 41:         txphase_Repeat++;
 10982  0D79  3001               	movlw	1
 10983  0D7A  00F0               	movwf	??_EXTI_PORTA1
 10984  0D7B  0870               	movf	??_EXTI_PORTA1,w
 10985  0D7C  07CF               	addwf	_txphase_Repeat,f
 10986  0D7D                     i1l4205:
 10987                           
 10988                           ;../Projects/src/EXIT_FUN.c: 43:  if(txphase_Repeat>=1){RAM_OP1.BIT.Bit0=0;RB5=0;RC2=0;R
      +                          C0=0;}
 10989  0D7D  084F               	movf	_txphase_Repeat,w
 10990  0D7E  1903               	btfsc	3,2
 10991  0D7F  2D81               	goto	u199_21
 10992  0D80  2D82               	goto	u199_20
 10993  0D81                     u199_21:
 10994  0D81  2D86               	goto	i1l55
 10995  0D82                     u199_20:
 10996  0D82                     i1l4207:
 10997  0D82  1051               	bcf	_RAM_OP1,0	;volatile
 10998  0D83  128D               	bcf	13,5	;volatile
 10999  0D84  110E               	bcf	14,2	;volatile
 11000  0D85  100E               	bcf	14,0	;volatile
 11001  0D86                     i1l55:
 11002  0D86  0008               	return
 11003  0D87                     __end_of_EXTI_PORTA1:
 11004  007E                     btemp	set	126	;btemp
 11005  007E                     int$flags	set	126
 11006  007E                     wtemp0	set	126

Data Sizes:
    Strings     0
    Constant    33
    Data        0
    BSS         179
    Persistent  32
    Stack       0

Auto Spaces:
    Space          Size  Autos    Used
    COMMON           14     10      11
    BANK0            80     29      80
    BANK1            80      0      71
    BANK2            80      0      56
    BANK3            80      0       0
    BANK4            80      0       0
    BANK5            80      0       0
    BANK6            80      0       0
    BANK7            80      0       0
    BANK8            80      0       0
    BANK9            80      0       0
    BANK10           80      0       0
    BANK11           80      0       0
    BANK12           48      0       0

Pointer List with Targets:

    atol_de@m_RegID_x	PTR unsigned char  size(1) Largest target is 9
		 -> m_RegID(BANK1[9]), 

    dd_write_7021_reg@reg_bytes	PTR unsigned char  size(1) Largest target is 16
		 -> dd_set_TX_mode@register_value(BANK0[4]), ROM_adf7012_value(BANK1[16]), dd_set_ADF7021_Power_on_Init@register_value(BANK0[4]), 


Critical Paths under _main in COMMON

    _main->_eeprom_sys_load
    _main->_test_mode_control
    _key_check->__DupliFuncSetMode
    _atol_de->___lmul
    _dd_set_ADF7021_Power_on_Init->_dd_write_7021_reg
    __FuncReg->__SetRegistrationMode
    __SetRegistrationMode->__ReqBuzzer
    _dd_set_TX_mode->_dd_write_7021_reg
    _SetTxData->_SetFixedLengthCode
    __DupliFuncSetMode->_KeyOpt_EEPROM_write
    _KeyOpt_EEPROM_write->_WriteByteToFLASH

Critical Paths under _ISR in COMMON

    _ISR->_EXTI_PORTA1

Critical Paths under _main in BANK0

    _main->_key_check
    _test_mode_control->_dd_set_TX_mode
    _key_check->__KeyInTx
    __RegistrationMode->__ReqTxdEdit
    __RegistrationMode->_atol_de
    _atol_de->___lmul
    __KeyInTx->__FuncCloseReg
    __KeyInTx->__FuncOpenReg
    __KeyInTx->__FuncStop
    __KeyInTx->__FuncStopReg
    __KeyInTx->__FuncVentReg
    __FuncVentReg->__Pass3secKey
    __FuncStopReg->__Pass3secKey
    __FuncStop->__ReqTxdEdit
    __FuncOpenStop->__ReqTxdEdit
    __FuncOpenReg->__Pass3secKey
    __FuncCloseReg->__Pass3secKey
    __Pass3secKey->__ReqTxdEdit
    __ReqTxdEdit->_SendTxData
    _SendTxData->_SetTxData

Critical Paths under _ISR in BANK0

    None.

Critical Paths under _main in BANK1

    None.

Critical Paths under _ISR in BANK1

    None.

Critical Paths under _main in BANK2

    None.

Critical Paths under _ISR in BANK2

    None.

Critical Paths under _main in BANK3

    None.

Critical Paths under _ISR in BANK3

    None.

Critical Paths under _main in BANK4

    None.

Critical Paths under _ISR in BANK4

    None.

Critical Paths under _main in BANK5

    None.

Critical Paths under _ISR in BANK5

    None.

Critical Paths under _main in BANK6

    None.

Critical Paths under _ISR in BANK6

    None.

Critical Paths under _main in BANK7

    None.

Critical Paths under _ISR in BANK7

    None.

Critical Paths under _main in BANK8

    None.

Critical Paths under _ISR in BANK8

    None.

Critical Paths under _main in BANK9

    None.

Critical Paths under _ISR in BANK9

    None.

Critical Paths under _main in BANK10

    None.

Critical Paths under _ISR in BANK10

    None.

Critical Paths under _main in BANK11

    None.

Critical Paths under _ISR in BANK11

    None.

Critical Paths under _main in BANK12

    None.

Critical Paths under _ISR in BANK12

    None.

Call Graph Tables:

 ---------------------------------------------------------------------------------
 (Depth) Function   	        Calls       Base Space   Used Autos Params    Refs
 ---------------------------------------------------------------------------------
 (0) _main                                                 0     0      0   77022
                         _AD_control
                           _ClearWDT
                          _EXIT_init
                    _InitialFlashReg
                   _START_AD_SAMPLER
                      _SysClock_Init
                          _TIM4_Init
                         _UART1_INIT
                      _VHF_GPIO_INIT
                           _WDT_init
                          __Init_RAM
                    _eeprom_sys_load
                          _key_check
                  _test_mode_control
                       _time_control
 ---------------------------------------------------------------------------------
 (1) _time_control                                         0     0      0       0
 ---------------------------------------------------------------------------------
 (1) _test_mode_control                                    1     1      0    1057
                                              9 COMMON     1     1      0
                           _ClearWDT
                            _Delayus
                          _UART1_end
            _dd_set_ADF7021_Power_on
                     _dd_set_TX_mode
 ---------------------------------------------------------------------------------
 (2) _UART1_end                                            0     0      0       0
 ---------------------------------------------------------------------------------
 (1) _key_check                                            1     1      0   75835
                                             28 BANK0      1     1      0
                           _ClearWDT
                  __DupliFuncSetMode
                           __KeyInTx
                  __RegistrationMode
 ---------------------------------------------------------------------------------
 (2) __RegistrationMode                                    2     2      0   12698
                                             23 BANK0      2     2      0
                        __GetRegMode
                           __IdClear
                         __ReqBuzzer
                        __ReqTxdEdit
                            _atol_de
 ---------------------------------------------------------------------------------
 (3) _atol_de                                             15    11      4     634
                                              8 BANK0     15    11      4
                             ___lmul
 ---------------------------------------------------------------------------------
 (4) ___lmul                                              12     4      8     316
                                              3 COMMON     4     4      0
                                              0 BANK0      8     0      8
 ---------------------------------------------------------------------------------
 (2) __KeyInTx                                             3     3      0   57641
                                             25 BANK0      3     3      0
         __ClearSpecialMultiKeyState
                    __DupliFuncClear
                   __FuncAutoTxStart
                    __FuncAutoTxStop
                      __FuncCloseReg
                        __FuncNoPush
                       __FuncOpenReg
                      __FuncOpenStop
                           __FuncReg
                          __FuncStop
                       __FuncStopReg
                       __FuncVentReg
                __SetKeyChatterCount
                              __SwIn
       _dd_set_ADF7021_Power_on_Init
 ---------------------------------------------------------------------------------
 (3) _dd_set_ADF7021_Power_on_Init                         4     4      0     819
                                              0 BANK0      4     4      0
                  _dd_write_7021_reg
 ---------------------------------------------------------------------------------
 (3) __SwIn                                                1     1      0      22
                                              3 COMMON     1     1      0
 ---------------------------------------------------------------------------------
 (3) __FuncVentReg                                         1     1      0    8085
                                             24 BANK0      1     1      0
                    __DupliFuncClear
                       __Pass3secKey
 ---------------------------------------------------------------------------------
 (3) __FuncStopReg                                         1     1      0    8085
                                             24 BANK0      1     1      0
                    __DupliFuncClear
                       __Pass3secKey
 ---------------------------------------------------------------------------------
 (3) __FuncStop                                            2     2      0   11996
                                             23 BANK0      2     2      0
                    __DupliFuncClear
                    __GetNoPushState
                         __ReqBuzzer
                        __ReqTxdEdit
 ---------------------------------------------------------------------------------
 (4) __GetNoPushState                                      0     0      0       0
         __ClearSpecialMultiKeyState
 ---------------------------------------------------------------------------------
 (3) __FuncReg                                             1     1      0    4032
                                              0 BANK0      1     1      0
         __ClearSpecialMultiKeyState
                    __DupliFuncClear
               __SetRegistrationMode
 ---------------------------------------------------------------------------------
 (4) __SetRegistrationMode                                 2     2      0    4032
                                              8 COMMON     2     2      0
                        __GetRegMode
                           __IdClear
                         __ReqBuzzer
 ---------------------------------------------------------------------------------
 (3) __IdClear                                             2     2      0      68
                                              3 COMMON     2     2      0
 ---------------------------------------------------------------------------------
 (3) __GetRegMode                                          0     0      0       0
 ---------------------------------------------------------------------------------
 (3) __FuncOpenStop                                        1     1      0    8054
                                             23 BANK0      1     1      0
         __ClearSpecialMultiKeyState
                    __DupliFuncClear
                        __ReqTxdEdit
 ---------------------------------------------------------------------------------
 (3) __FuncOpenReg                                         1     1      0    8085
                                             24 BANK0      1     1      0
                    __DupliFuncClear
                       __Pass3secKey
 ---------------------------------------------------------------------------------
 (3) __FuncNoPush                                          1     1      0       0
                                              3 COMMON     1     1      0
         __ClearSpecialMultiKeyState
 ---------------------------------------------------------------------------------
 (3) __FuncCloseReg                                        1     1      0    8085
                                             24 BANK0      1     1      0
                    __DupliFuncClear
                       __Pass3secKey
 ---------------------------------------------------------------------------------
 (4) __Pass3secKey                                         1     1      0    8085
                                             23 BANK0      1     1      0
                        __ReqTxdEdit
 ---------------------------------------------------------------------------------
 (3) __ReqTxdEdit                                          6     5      1    8054
                                             17 BANK0      6     5      1
                         _SendTxData
                         __ReqBuzzer
            _dd_set_ADF7021_Power_on
                     _dd_set_TX_mode
 ---------------------------------------------------------------------------------
 (2) _dd_set_TX_mode                                       4     4      0     989
                                              0 BANK0      4     4      0
                            _Delayus
                  _dd_write_7021_reg
 ---------------------------------------------------------------------------------
 (3) _dd_write_7021_reg                                    6     6      0     782
                                              3 COMMON     6     6      0
 ---------------------------------------------------------------------------------
 (3) _Delayus                                              3     3      0      68
                                              3 COMMON     3     3      0
 ---------------------------------------------------------------------------------
 (2) _dd_set_ADF7021_Power_on                              0     0      0       0
 ---------------------------------------------------------------------------------
 (4) _SendTxData                                           4     4      0    2487
                                             13 BANK0      4     4      0
                          _SetTxData
 ---------------------------------------------------------------------------------
 (5) _SetTxData                                           13     8      5    2106
                                              0 BANK0     13     8      5
                 _SetFixedLengthCode
 ---------------------------------------------------------------------------------
 (6) _SetFixedLengthCode                                   7     5      2      94
                                              3 COMMON     7     5      2
 ---------------------------------------------------------------------------------
 (3) __FuncAutoTxStop                                      0     0      0       0
 ---------------------------------------------------------------------------------
 (3) __FuncAutoTxStart                                     0     0      0       0
 ---------------------------------------------------------------------------------
 (2) __DupliFuncSetMode                                    3     3      0    5496
                                              9 COMMON     1     1      0
                                              0 BANK0      2     2      0
                _KeyOpt_EEPROM_write
                    __DupliFuncClear
                         __ReqBuzzer
 ---------------------------------------------------------------------------------
 (4) __ReqBuzzer                                           5     1      4    3942
                                              3 COMMON     5     1      4
 ---------------------------------------------------------------------------------
 (4) __DupliFuncClear                                      1     1      0       0
                                              3 COMMON     1     1      0
 ---------------------------------------------------------------------------------
 (3) _KeyOpt_EEPROM_write                                  1     1      0    1412
                                              8 COMMON     1     1      0
                          _LockFlash
                        _UnlockFlash
                   _WriteByteToFLASH
 ---------------------------------------------------------------------------------
 (4) _WriteByteToFLASH                                     5     0      5    1412
                                              3 COMMON     5     0      5
 ---------------------------------------------------------------------------------
 (4) _UnlockFlash                                          1     1      0       0
 ---------------------------------------------------------------------------------
 (4) _LockFlash                                            1     1      0       0
 ---------------------------------------------------------------------------------
 (2) _ClearWDT                                             0     0      0       0
 ---------------------------------------------------------------------------------
 (1) _eeprom_sys_load                                      9     9      0     130
                                              3 COMMON     7     7      0
                                              0 BANK0      1     1      0
 ---------------------------------------------------------------------------------
 (1) __Init_RAM                                            1     1      0       0
                                              3 COMMON     1     1      0
         __ClearSpecialMultiKeyState
                __SetKeyChatterCount
 ---------------------------------------------------------------------------------
 (3) __SetKeyChatterCount                                  0     0      0       0
 ---------------------------------------------------------------------------------
 (5) __ClearSpecialMultiKeyState                           0     0      0       0
 ---------------------------------------------------------------------------------
 (1) _WDT_init                                             0     0      0       0
 ---------------------------------------------------------------------------------
 (1) _VHF_GPIO_INIT                                        0     0      0       0
 ---------------------------------------------------------------------------------
 (1) _UART1_INIT                                           0     0      0       0
 ---------------------------------------------------------------------------------
 (1) _TIM4_Init                                            0     0      0       0
 ---------------------------------------------------------------------------------
 (1) _SysClock_Init                                        0     0      0       0
 ---------------------------------------------------------------------------------
 (1) _START_AD_SAMPLER                                     0     0      0       0
 ---------------------------------------------------------------------------------
 (1) _InitialFlashReg                                      0     0      0       0
 ---------------------------------------------------------------------------------
 (1) _EXIT_init                                            0     0      0       0
 ---------------------------------------------------------------------------------
 (1) _AD_control                                           1     1      0       0
                                              3 COMMON     1     1      0
 ---------------------------------------------------------------------------------
 Estimated maximum stack depth 6
 ---------------------------------------------------------------------------------
 (Depth) Function   	        Calls       Base Space   Used Autos Params    Refs
 ---------------------------------------------------------------------------------
 (9) _ISR                                                  0     0      0       0
                        _EXTI_PORTA1
 ---------------------------------------------------------------------------------
 (10) _EXTI_PORTA1                                         3     3      0       0
                                              0 COMMON     3     3      0
 ---------------------------------------------------------------------------------
 Estimated maximum stack depth 10
 ---------------------------------------------------------------------------------

 Call Graph Graphs:

 _main (ROOT)
   _AD_control
   _ClearWDT
   _EXIT_init
   _InitialFlashReg
   _START_AD_SAMPLER
   _SysClock_Init
   _TIM4_Init
   _UART1_INIT
   _VHF_GPIO_INIT
   _WDT_init
   __Init_RAM
     __ClearSpecialMultiKeyState
     __SetKeyChatterCount
   _eeprom_sys_load
   _key_check
     _ClearWDT
     __DupliFuncSetMode
       _KeyOpt_EEPROM_write
         _LockFlash
         _UnlockFlash
         _WriteByteToFLASH
       __DupliFuncClear
       __ReqBuzzer
     __KeyInTx
       __ClearSpecialMultiKeyState
       __DupliFuncClear
       __FuncAutoTxStart
       __FuncAutoTxStop
       __FuncCloseReg
         __DupliFuncClear
         __Pass3secKey
           __ReqTxdEdit
             _SendTxData
               _SetTxData
                 _SetFixedLengthCode
             __ReqBuzzer
             _dd_set_ADF7021_Power_on
             _dd_set_TX_mode
               _Delayus
               _dd_write_7021_reg
       __FuncNoPush
         __ClearSpecialMultiKeyState
       __FuncOpenReg
         __DupliFuncClear
         __Pass3secKey
           __ReqTxdEdit
             _SendTxData
               _SetTxData
                 _SetFixedLengthCode
             __ReqBuzzer
             _dd_set_ADF7021_Power_on
             _dd_set_TX_mode
               _Delayus
               _dd_write_7021_reg
       __FuncOpenStop
         __ClearSpecialMultiKeyState
         __DupliFuncClear
         __ReqTxdEdit
           _SendTxData
             _SetTxData
               _SetFixedLengthCode
           __ReqBuzzer
           _dd_set_ADF7021_Power_on
           _dd_set_TX_mode
             _Delayus
             _dd_write_7021_reg
       __FuncReg
         __ClearSpecialMultiKeyState
         __DupliFuncClear
         __SetRegistrationMode
           __GetRegMode
           __IdClear
           __ReqBuzzer
       __FuncStop
         __DupliFuncClear
         __GetNoPushState
           __ClearSpecialMultiKeyState
         __ReqBuzzer
         __ReqTxdEdit
           _SendTxData
             _SetTxData
               _SetFixedLengthCode
           __ReqBuzzer
           _dd_set_ADF7021_Power_on
           _dd_set_TX_mode
             _Delayus
             _dd_write_7021_reg
       __FuncStopReg
         __DupliFuncClear
         __Pass3secKey
           __ReqTxdEdit
             _SendTxData
               _SetTxData
                 _SetFixedLengthCode
             __ReqBuzzer
             _dd_set_ADF7021_Power_on
             _dd_set_TX_mode
               _Delayus
               _dd_write_7021_reg
       __FuncVentReg
         __DupliFuncClear
         __Pass3secKey
           __ReqTxdEdit
             _SendTxData
               _SetTxData
                 _SetFixedLengthCode
             __ReqBuzzer
             _dd_set_ADF7021_Power_on
             _dd_set_TX_mode
               _Delayus
               _dd_write_7021_reg
       __SetKeyChatterCount
       __SwIn
       _dd_set_ADF7021_Power_on_Init
         _dd_write_7021_reg
     __RegistrationMode
       __GetRegMode
       __IdClear
       __ReqBuzzer
       __ReqTxdEdit
         _SendTxData
           _SetTxData
             _SetFixedLengthCode
         __ReqBuzzer
         _dd_set_ADF7021_Power_on
         _dd_set_TX_mode
           _Delayus
           _dd_write_7021_reg
       _atol_de
         ___lmul
   _test_mode_control
     _ClearWDT
     _Delayus
     _UART1_end
     _dd_set_ADF7021_Power_on
     _dd_set_TX_mode
       _Delayus
       _dd_write_7021_reg
   _time_control

 _ISR (ROOT)
   _EXTI_PORTA1

 Address spaces:
Name               Size   Autos  Total    Cost      Usage
BIGRAM             3F0      0       0       0        0.0%
EEDATA             100      0       0       0        0.0%
NULL                 0      0       0       0        0.0%
CODE                 0      0       0       0        0.0%
BITCOMMON            E      0       0       1        0.0%
BITSFR0              0      0       0       1        0.0%
SFR0                 0      0       0       1        0.0%
COMMON               E      A       B       2       78.6%
BITSFR1              0      0       0       2        0.0%
SFR1                 0      0       0       2        0.0%
BITSFR2              0      0       0       3        0.0%
SFR2                 0      0       0       3        0.0%
STACK                0      0       0       3        0.0%
BITBANK0            50      0       0       4        0.0%
BITSFR3              0      0       0       4        0.0%
SFR3                 0      0       0       4        0.0%
BANK0               50     1D      50       5      100.0%
BITSFR4              0      0       0       5        0.0%
SFR4                 0      0       0       5        0.0%
BITBANK1            50      0       0       6        0.0%
BITSFR5              0      0       0       6        0.0%
SFR5                 0      0       0       6        0.0%
BANK1               50      0      47       7       88.8%
BITSFR6              0      0       0       7        0.0%
SFR6                 0      0       0       7        0.0%
BITBANK2            50      0       0       8        0.0%
BITSFR7              0      0       0       8        0.0%
SFR7                 0      0       0       8        0.0%
BANK2               50      0      38       9       70.0%
BITSFR8              0      0       0       9        0.0%
SFR8                 0      0       0       9        0.0%
BITBANK3            50      0       0      10        0.0%
BITSFR9              0      0       0      10        0.0%
SFR9                 0      0       0      10        0.0%
BANK3               50      0       0      11        0.0%
BITSFR10             0      0       0      11        0.0%
SFR10                0      0       0      11        0.0%
BITBANK4            50      0       0      12        0.0%
BITSFR11             0      0       0      12        0.0%
SFR11                0      0       0      12        0.0%
BANK4               50      0       0      13        0.0%
BITSFR12             0      0       0      13        0.0%
SFR12                0      0       0      13        0.0%
BITBANK5            50      0       0      14        0.0%
BITSFR13             0      0       0      14        0.0%
SFR13                0      0       0      14        0.0%
BANK5               50      0       0      15        0.0%
BITSFR14             0      0       0      15        0.0%
SFR14                0      0       0      15        0.0%
BITBANK6            50      0       0      16        0.0%
BITSFR15             0      0       0      16        0.0%
SFR15                0      0       0      16        0.0%
BANK6               50      0       0      17        0.0%
BITSFR16             0      0       0      17        0.0%
SFR16                0      0       0      17        0.0%
BITBANK7            50      0       0      18        0.0%
BITSFR17             0      0       0      18        0.0%
SFR17                0      0       0      18        0.0%
BANK7               50      0       0      19        0.0%
BITSFR18             0      0       0      19        0.0%
SFR18                0      0       0      19        0.0%
BITSFR19             0      0       0      20        0.0%
SFR19                0      0       0      20        0.0%
ABS                  0      0      DA      20        0.0%
BITBANK8            50      0       0      21        0.0%
BITSFR20             0      0       0      21        0.0%
SFR20                0      0       0      21        0.0%
BANK8               50      0       0      22        0.0%
BITSFR21             0      0       0      22        0.0%
SFR21                0      0       0      22        0.0%
BITBANK9            50      0       0      23        0.0%
BITSFR22             0      0       0      23        0.0%
SFR22                0      0       0      23        0.0%
BANK9               50      0       0      24        0.0%
BITSFR23             0      0       0      24        0.0%
SFR23                0      0       0      24        0.0%
BITBANK10           50      0       0      25        0.0%
BITSFR24             0      0       0      25        0.0%
SFR24                0      0       0      25        0.0%
BANK10              50      0       0      26        0.0%
BITSFR25             0      0       0      26        0.0%
SFR25                0      0       0      26        0.0%
BITBANK11           50      0       0      27        0.0%
BITSFR26             0      0       0      27        0.0%
SFR26                0      0       0      27        0.0%
BANK11              50      0       0      28        0.0%
BITSFR27             0      0       0      28        0.0%
SFR27                0      0       0      28        0.0%
BITBANK12           30      0       0      29        0.0%
BITSFR28             0      0       0      29        0.0%
SFR28                0      0       0      29        0.0%
BANK12              30      0       0      30        0.0%
BITSFR29             0      0       0      30        0.0%
SFR29                0      0       0      30        0.0%
BITSFR30             0      0       0      31        0.0%
SFR30                0      0       0      31        0.0%
DATA                 0      0      DA      31        0.0%
BITSFR31             0      0       0      32        0.0%
SFR31                0      0       0      32        0.0%


Microchip Technology PIC Macro Assembler V2.20 build 20200408173844 
Symbol Table                                                                                   Mon May 25 16:12:24 2020

                          __FuncAutoTxStart 09CC                                 ?_AD_control 0070  
                                        l43 0A01                                          l46 0A06  
                                        l73 0B80                                          l65 0FFF  
                                        l75 0B91                                          l68 0764  
                                        l98 0A11                   ??_dd_set_ADF7021_Power_on 0073  
                                       l201 0A8A                                         l130 0CDD  
                                       l118 09C6                                         l150 0C45  
                                       l151 0C60                                         l146 0C5C  
                                       l162 0DDE                                         l147 0C3D  
                                       l155 0BB0                                         l148 0C51  
                                       l173 09C5                                         l149 0C44  
                                       l501 0296                                         l270 09C9  
                                       l159 09EA                                         l176 09CB  
                                       l273 09EE                                         l185 09E3  
                                       l521 031D                                         l513 0314  
                                       l282 0AC1                                         l267 09C8  
                                       l179 09CA                                         l611 0002  
                                       l291 0A2B                                         l603 055F  
                                       l276 09F2                                         l620 09DC  
                                       l508 02ED                                         l285 0BF5  
                                       l198 0C9E                                         l614 0A4A  
                                       l542 0B54                                         l526 0325  
                                       l631 03B8                                         l471 0EF1  
                                       l624 0A5D                                         l608 09CC  
                                       l552 0B18                                         l472 0EF2  
                                       l617 09FB                                         l721 019B  
                                       l289 0A20                                         l633 0490  
                                       l537 0A71                                         l642 03DE  
                                       l562 0AA4                                         l490 0382  
                                       l715 0164                                         l635 03C4  
                                       l547 0ADE                                         l627 0A33  
                                       l724 01B8                                         l628 0A3A  
                                       l580 04C6                                         l484 0B72  
                                       l709 0149                                         l661 003B  
                                       l565 0E1C                                         l557 0AFB  
                                       l477 0F29                                         l590 04FF  
                                       l750 0D2F                                         l671 008F  
                                       l663 01E6                                         l567 0E05  
                                       l583 058B                                         l568 0E37  
                                       l592 0505                                         l584 04E1  
                                       l496 02B0                                         l728 0595  
                                       l657 0491                                         l593 0507  
                                       l729 0679                                         l770 0B36  
                                       l762 07FF                                         l754 0BD2  
                                       l498 0276                                         l684 00CE  
                                       l860 0E96                                         l757 09CF  
                                       l773 07D9                                         l766 0A1C  
                                       l775 0790                                         l855 0E56  
                                       l697 0119                                         l785 07E7  
                                       l859 0E8D                                         _GIE 005F  
                                       _RA2 0062                                         _RA3 0063  
                                       _RC0 0070                                         _RA4 0064  
                                       _RA5 0065                                         _RC2 0072  
                                       _RB4 006C                                         _RB5 006D  
                                       _RC3 0073                                         _RB6 006E  
                                       _RC4 0074                                         _RB7 006F  
                                       _RC5 0075                                         _RC6 0076  
                                       _RC7 0077                                         _PR2 001B  
                                       _ISR 0004                                         u560 0B7E  
                                       u561 0B7D                                         u570 0B8D  
                                       u650 09E9                                         u571 0B8C  
                                       u555 0B76                                         u651 09E8  
                                       u660 0B1E                                         u740 07FD  
                                       u661 0B1D                                         u741 07FC  
                                       u750 0A5B                                         u751 0A5A  
                                       u850 0A1B                                         u851 0A1A  
                                       u780 0BBA                                         u781 0BB9  
                                       u790 0A31                                         u791 0A30  
                 SetTxData@Control_code_set 0057                                         wreg 0009  
                                      ?_ISR 0070                                        l1023 09C7  
                                      l1026 0003                                        l1231 0C29  
                                      l3101 0B74                                        l3111 0B7E  
                                      l3113 0B81                                        l3115 0B83  
                                      l3107 0B75                                        l3117 0B87  
                                      l3109 0B7A                                        l3119 0B8D  
                                      l5001 0C2B                                        l3401 0BB2  
                                      l4211 0A09                                        l5011 0C39  
                                      l5003 0C2E                                        l3411 0BCD  
                                      l4221 0CA6                                        l4213 0A0B  
                                      l3261 09E9                                        l5021 0C52  
                                      l5101 038B                                        l3405 0BBB  
                                      l3421 0A36                                        l3413 0A2C  
                                      l4231 0CD8                                        l4223 0CB5  
                                      l4215 0A0C                                        l5031 0F2A  
                                      l5023 0C56                                        l5111 03C8  
                                      l5103 038F                                        l3407 0BC0  
                                      l3423 0A39                                        l3415 0A31  
                                      l4225 0CB8                                        l4217 0A0E  
                                      l4209 0A07                                        l5041 0F4B  
                                      l5033 0F34                                        l5025 0A1E  
                                      l5017 0C42                                        l5009 0C2F  
                                      l5121 03E1                                        l5113 03CA  
                                      l5105 0395                                        l3361 09CD  
                                      l3409 0BC3                                        l5201 0DE2  
                                      l6001 07A4                                        l4227 0CC6  
                                      l4219 0C9F                                        l4251 0AA9  
                                      l3291 09D6                                        l3451 0A76  
                                      l5051 0F84                                        l5043 0F54  
                                      l5035 0F38                                        l3259 09E4  
                                      l5027 0A21                                        l5019 0C46  
                                      l5131 03FA                                        l5123 03E6  
                                      l5115 03CF                                        l5107 03B3  
                                      l3371 07EB                                        l5211 0DF1  
                                      l5203 0DE7                                        l3419 0A34  
                                      l6011 07BC                                        l6003 07AA  
                                      l4229 0CD4                                        l4261 0AB9  
                                      l4253 0AAB                                        l3453 0A86  
                                      l3381 0A4B                                        l5061 0FD9  
                                      l5053 0F8F                                        l5045 0F55  
                                      l5037 0F41                                        l5029 0A25  
                                      l5141 0442                                        l5125 03EB  
                                      l5117 03D4                                        l5109 03BF  
                                      l3373 07F3                                        l3365 07E8  
                                      l5213 0DF5                                        l5205 0DE8  
                                      l3461 0A16                                        l6021 07C9  
                                      l6013 07BD                                        l6005 07AE  
                                      l6101 0E79                                        l4183 09FC  
                                      l4247 09EB                                        l4271 0ABF  
                                      l4263 0ABB                                        l4255 0AAD  
                                      l3455 09F3                                        l3383 0A4D  
                                      l3287 0B19                                        l5071 0FFD  
                                      l5063 0FEF                                        l5055 0FA1  
                                      l5047 0F5A                                        l5039 0F45  
                                      l5143 0452                                        l5151 0481  
                                      l5127 03F0                                        l5119 03D9  
                                      l5135 03FF                                        l3375 07F7  
                                      l5215 0DFB                                        l5223 0E0E  
                                      l5207 0DEC                                        l5311 0521  
                                      l3463 0A1B                                        l6031 07D8  
                                      l6023 07CD                                        l6015 07C0  
                                      l6007 07B2                                        l4351 0B5A  
                                      l6111 0E9A                                        l6103 0E7D  
                                      l4185 09FE                                        l4273 0AC0  
                                      l4265 0ABC                                        l4257 0AB2  
                                      l4249 0AA5                                        l3457 09F8  
                                      l4281 0BE4                                        l3449 0A72  
                                      l3385 0A51                                        l3289 0B1E  
                                      l5073 0FFE                                        l5057 0FB9  
                                      l5065 0FF9                                        l5049 0F6C  
                                      l5081 0D9F                                        l5153 0484  
                                      l5145 045D                                        l5137 0427  
                                      l5129 03F5                                        l3721 0A40  
                                      l3377 07FD                                        l5241 0E36  
                                      l5233 0E20                                        l5225 0E14  
                                      l5217 0DFF                                        l5209 0DEF  
                                      l5321 0537                                        l5313 0527  
                                      l5401 0AE2                                        l6041 07E5  
                                      l6033 07DE                                        l6025 07D1  
                                      l6017 07C3                                        l6009 07B8  
                                      l4361 0B6B                                        l4353 0B5B  
                                      l6113 0E9F                                        l6105 0E85  
                                      l4187 0A00                                        l4267 0ABD  
                                      l4259 0AB4                                        l4291 0BF0  
                                      l4283 0BEA                                        l4275 0BD3  
                                      l3379 09DD                                        l3387 0A55  
                                      l5067 0FFB                                        l5059 0FBF  
                                      l5091 0DC5                                        l5083 0DAC  
                                      l5075 0D87                                        l5155 0487  
                                      l5139 0434                                        l5171 0A9D  
                                      l3723 0A43                                        l5235 0E26  
                                      l5227 0E18                                        l5219 0E01  
                                      l5331 0554                                        l5323 053C  
                                      l5315 052A                                        l5307 0509  
                                      l5251 04A3                                        l5411 0AF2  
                                      l5403 0AE7                                        l3459 0A13  
                                      l6043 07E6                                        l6035 07E1  
                                      l6027 07D3                                        l6019 07C4  
                                      l4363 0B70                                        l4355 0B60  
                                      l6115 0EA5                                        l6107 0E8A  
                                      l4269 0ABE                                        l4293 0BF3  
                                      l4285 0BEB                                        l4277 0BDC  
                                      l3389 0A5B                                        l5069 0FFC  
                                      l5093 0DC9                                        l5085 0DB0  
                                      l5077 0D97                                        l5157 048A  
                                      l5149 0468                                        l5173 0AA2  
                                      l5421 0ACA                                        l3725 0A45  
                                      l5237 0E30                                        l5229 0E1A  
                                      l5341 0563                                        l5333 0557  
                                      l5325 0542                                        l5317 0533  
                                      l5309 051C                                        l5261 04BB  
                                      l5253 04A7                                        l5245 0492  
                                      l5405 0AE8                                        l5501 0249  
                                      l5181 0C03                                        l6037 07E3  
                                      l6029 07D4                                        l4357 0B62  
                                      l4349 0B55                                        l6109 0E92  
                                      l6061 0E38                                        l4287 0BEC  
                                      l4279 0BE1                                        l5095 0DD6  
                                      l5087 0DB4                                        l5079 0D9B  
                                      l5167 0A8D                                        l5423 0ACB  
                                      l3727 0A46                                        l3719 0A3B  
                                      l5239 0E34                                        l5351 0577  
                                      l5343 0569                                        l5335 0558  
                                      l5327 0548                                        l5271 04C8  
                                      l5263 04BF                                        l5255 04AD  
                                      l5247 049A                                        l5407 0AEC  
                                      l5415 0AF7                                        l5191 0B92  
                                      l5511 0263                                        l5503 024F  
                                      l5183 0C0B                                        l6039 07E4  
                                      l4359 0B66                                        l6071 0E47  
                                      l6063 0E3B                                        l4289 0BED  
                                      l5097 0DDA                                        l5089 0DC1  
                                      l5169 0A93                                        l5425 0ACF  
                                      l5433 0ADA                                        l5417 0AC2  
                                      l5345 056A                                        l5337 055C  
                                      l5329 054B                                        l5281 04E5  
                                      l5273 04D5                                        l5265 04C3  
                                      l5257 04B1                                        l5249 049F  
                                      l5409 0AF0                                        l5441 0B05  
                                      l5193 0B97                                        l5521 027B  
                                      l5513 0266                                        l5505 0255  
                                      l5185 0C12                                        l5177 0BF6  
                                      l6081 0E54                                        l6073 0E4A  
                                      l6065 0E3E                                        l5099 0385  
                                      l5427 0AD3                                        l5419 0AC5  
                                      l5371 0A63                                        l5347 056C  
                                      l5291 04ED                                        l5283 04E6  
                                      l5275 04D6                                        l5267 04C4  
                                      l5259 04B7                                        l5443 0B09  
                                      l5451 0B14                                        l5435 0AFC  
                                      l5195 0B98                                        l5523 0281  
                                      l5515 026C                                        l5507 0259  
                                      l5531 02B0                                        l5187 0C21  
                                      l5179 0BFE                                        l5611 059A  
                                      l6091 0E65                                        l6083 0E58  
                                      l6075 0E4D                                        l6067 0E41  
                                      l6501 01C6                                        l5429 0AD5  
                                      l5381 0B3A                                        l5373 0A6B  
                                      l5349 0574                                        l5357 057B  
                                      l5285 04E7                                        l5277 04DB  
                                      l5293 04EF                                        l5445 0B0D  
                                      l5437 0AFF                                        l5197 0BAC  
                                      l5541 02C3                                        l5525 028C  
                                      l5517 0270                                        l5509 025F  
                                      l5461 0CE9                                        l5453 0CE0  
                                      l5621 05B8                                        l5613 059C  
                                      l6093 0E68                                        l6085 0E5B  
                                      l6077 0E50                                        l6069 0E44  
                                      l5391 0B49                                        l5383 0B3C  
                                      l5375 0A6E                                        l5367 0A5E  
                                      l5199 0DDF                                        l5295 04F4  
                                      l5287 04E8                                        l5279 04DD  
                                      l5447 0B0F                                        l5439 0B04  
                                      l5551 02DD                                        l5543 02C7  
                                      l5519 027A                                        l5527 02A5  
                                      l5463 0CF4                                        l5455 0CE8  
                                      l5631 05E1                                        l5623 05C7  
                                      l5615 05A2                                        l5607 058C  
                                      l6095 0E6B                                        l6087 0E5E  
                                      l6079 0E53                                        l5705 0084  
                                      l5393 0B4B                                        l5385 0B40  
                                      l5377 0A70                                        l5369 0A61  
                                      l5297 04F9                                        l5289 04E9  
                                      l5553 02E3                                        l5545 02CD  
                                      l5537 02B1                                        l5529 02AB  
                                      l5481 01F4                                        l5473 01E7  
                                      l5465 0D1D                                        l5633 05ED  
                                      l5625 05C9                                        l5617 05B3  
                                      l6097 0E6E                                        l6089 0E63  
                                      l5803 012D                                        l5731 00A6  
                                      l5707 0089                                        l5387 0B41  
                                      l5379 0B37                                        l5299 0500  
                                      l5571 0308                                        l5563 02F1  
                                      l5555 02E4                                        l5547 02D7  
                                      l5539 02BE                                        l5491 0234  
                                      l5483 021E                                        l5475 01E9  
                                      l5467 0D21                                        l5643 0610  
                                      l5635 05F3                                        l5627 05CB  
                                      l5619 05B5                                        l6099 0E74  
                                      l5821 0143                                        l5813 0137  
                                      l5805 0132                                        l5733 00AA  
                                      l5709 0093                                        l4941 0685  
                                      l5389 0B45                                        l5397 0B50  
                                      l5581 0325                                        l5573 030E  
                                      l5565 02F6                                        l5557 02E7  
                                      l5485 0225                                        l5477 01ED  
                                      l5469 0D27                                        l5661 0660  
                                      l5653 0625                                        l5645 0613  
                                      l5637 05FD                                        l5629 05D9  
                                      l5831 0162                                        l5823 014D  
                                      l5751 00D8                                        l5735 00AE  
                                      l5719 009A                                        l5671 003A  
                                      l4951 06B1                                        l4943 068E  
                                      l5399 0ADF                                        l5591 0339  
                                      l5583 0329                                        l5567 02FC  
                                      l5559 02E9                                        l5487 0229  
                                      l5495 0239                                        l5655 0639  
                                      l5639 0602                                        l5911 0EAB  
                                      l5905 0C6C                                        l5841 017E  
                                      l5833 0166                                        l5825 0153  
                                      l5753 00DC                                        l5761 00E2  
                                      l5745 00C3                                        l5737 00BA  
                                      l5729 00A0                                        l5681 004E  
                                      l5673 003F                                        l4961 06D8  
                                      l4953 06B5                                        l4945 0692  
                                      l5593 033D                                        l5585 032D  
                                      l5577 0319                                        l5569 0302  
                                      l5489 022F                                        l5657 0646  
                                      l5649 061E                                        l5665 0663  
                                      l5921 0EBD                                        l5913 0EB0  
                                      l5907 0C94                                        l5843 0180  
                                      l5835 016A                                        l5827 0159  
                                      l5819 013E                                        l5771 00E8  
                                      l5755 00E0                                        l5747 00C8  
                                      l5739 00BC                                        l5691 006D  
                                      l5683 0053                                        l5675 0043  
                                      l4971 0704                                        l4963 06E1  
                                      l4955 06BE                                        l4947 069B  
                                      l4939 067C                                        l6491 034D  
                                      l5595 0341                                        l5587 0331  
                                      l5579 0321                                        l5499 0245  
                                      l5659 0657                                        l5931 0ED2  
                                      l5923 0EBE                                        l5915 0EB1  
                                      l5909 0C98                                        l5861 0194  
                                      l5837 016D                                        l5829 015D  
                                      l5781 0107                                        l5773 00EE  
                                      l5749 00D2                                        l5685 0059  
                                      l5693 006E                                        l4981 0718  
                                      l4973 0708                                        l4965 06EE  
                                      l4957 06CB                                        l4949 06A8  
                                      l6493 0511                                        l5589 0335  
                                      l5941 0EEC                                        l5933 0ED8  
                                      l5925 0EC4                                        l5917 0EB6  
                                      l5871 01B4                                        l5863 0199  
                                      l5839 017D                                        l5855 0185  
                                      l5791 011D                                        l5775 00F2  
                                      l5695 0074                                        l5687 005D  
                                      l5679 0048                                        l4991 0741  
                                      l4983 071E                                        l4975 070C  
                                      l4967 06F7                                        l4959 06D4  
                                      l6495 0583                                        l5599 0345  
                                      l5943 0EF6                                        l5951 0F0D  
                                      l5935 0EDC                                        l5927 0EC8  
                                      l5919 0EB9                                        l5873 01B5  
                                      l5865 019D                                        l5857 018A  
                                      l5793 0123                                        l5777 00F6  
                                      l5697 0079                                        l5689 0061  
                                      l4993 074A                                        l4985 0727  
                                      l4977 0710                                        l4969 06FB  
                                      l6497 0407                                        l6489 066B  
                                      l5961 0F20                                        l5953 0F13  
                                      l5945 0EFC                                        l5937 0EE2  
                                      l5929 0ECE                                        l5867 01A1  
                                      l5859 0190                                        l5795 0127  
                                      l5787 010E                                        l5779 0105  
                                      l5699 007D                                        l5891 01BD  
                                      l4995 0753                                        l4987 0730  
                                      l4979 0714                                        l6499 0470  
                                      l5963 0F26                                        l5955 0F17  
                                      l5947 0F09                                        l5939 0EE6  
                                      l5971 076E                                        l5869 01A4  
                                      l5797 012B                                        l5789 0113  
                                      l4997 0757                                        l4989 073D  
                                      l5957 0F1A                                        l5949 0F0B  
                                      l5981 0783                                        l5973 0772  
                                      l5965 0765                                        l4999 0760  
                                      l5991 079A                                        l5983 0787  
                                      l5975 0776                                        l5967 0766  
                                      l5897 0C61                                        l5993 079B  
                                      l5985 078D                                        l5977 077B  
                                      l5969 0769                                        l5899 0C6A  
                                      l5995 079E                                        l5979 077F  
                                      l5987 0791                                        l5997 07A1  
                                      l5989 0796                                        l5999 07A2  
                                      u2000 0CA6                                        u2001 0CA5  
                                      u2010 0CB5                                        u2011 0CB4  
                                      u2020 0CC6                                        u2021 0CC5  
                                      u2030 0CD4                                        u2031 0CD3  
                                      u3000 0C03                                        u2200 0B60  
                                      u3001 0C02                                        u2201 0B5F  
                                      u2210 0B66                                        u2211 0B65  
                                      u2060 09F2                                        u3100 0E26  
                                      u2220 0B6B                                        u2061 09F1  
                                      u3101 0E25                                        u2221 0B6A  
                                      u3110 0E30                                        u3030 0C21  
                                      u2230 0B70                                        u3111 0E2F  
                                      u3031 0C20                                        u3015 0C0C  
                                      u2231 0B6F                                        u4000 0143  
                                      u3200 04BF                                        u3120 049A  
                                      u3040 0B97                                        u4001 0142  
                                      u3201 04BE                                        u3121 0499  
                                      u3041 0B96                                        u3025 0C13  
                                      u4010 0148                                        u3050 0DE7  
                                      u3210 04DB                                        u3130 049F  
                                      u4011 0147                                        u3051 0DE6  
                                      u3211 04DA                                        u3131 049E  
                                      u4020 014D                                        u3060 0DFB  
                                      u3300 0563                                        u3220 04ED  
                                      u3140 04A3                                        u4021 014C  
                                      u3061 0DFA                                        u3301 0562  
                                      u3221 04EC                                        u3141 04A2  
                                      u4110 0C9E                                        u4030 0153  
                                      u3070 0DFF                                        u3310 0569  
                                      u3230 04F9                                        u3150 04A7  
                                      u2190 0B5A                                        u4111 0C9D  
                                      u4031 0152                                        u3071 0DFE  
                                      u3311 0568                                        u3231 04F8  
                                      u3151 04A6                                        u2191 0B59  
                                      u4040 0159                                        u3320 0B40  
                                      u3080 0E14                                        u3240 04FE  
                                      u3160 04AD                                        u3400 0D27  
                                      u4200 0EFC                                        u4120 0EB0  
                                      u4105 0C84                                        u4041 0158  
                                      u3321 0B3F                                        u3081 0E13  
                                      u3241 04FD                                        u3161 04AC  
                                      u3401 0D26                                        u4201 0EFB  
                                      u4121 0EAF                                        u4050 0162  
                                      u3330 0B49                                        u3090 0E20  
                                      u3250 0521                                        u3170 04B1  
                                      u3410 01F3                                        u4210 0F09  
                                      u4130 0EB6                                        u4051 0161  
                                      u3331 0B48                                        u3091 0E1F  
                                      u3251 0520                                        u3171 04B0  
                                      u3411 01F2                                        u4211 0F08  
                                      u4131 0EB5                                        u4060 018A  
                                      u3260 0527                                        u3180 04B7  
                                      u3340 0AE7                                        u3500 027A  
                                      u3420 0225                                        u4220 0F13  
                                      u4140 0EC4                                        u4300 079A  
                                      u4061 0189                                        u3261 0526  
                                      u3181 04B6                                        u3341 0AE6  
                                      u3501 0279                                        u3421 0224  
                                      u4221 0F12                                        u4141 0EC3  
                                      u4301 0799                                        u4070 0190  
                                      u3270 053C                                        u3190 04BB  
                                      u3350 0AF0                                        u3510 0281  
                                      u3430 0244                                        u4230 0F1F  
                                      u4150 0ECE                                        u4310 07AA  
                                      u4071 018F                                        u3271 053B  
                                      u3191 04BA                                        u3351 0AEF  
                                      u3511 0280                                        u3431 0243  
                                      u4231 0F1E                                        u4151 0ECD  
                                      u4311 07A9                                        u1920 0A06  
                                      u4080 0199                                        u3360 0ACA  
                                      u3280 0541                                        u3600 0302  
                                      u3520 02AB                                        u3440 024F  
                                      u4160 0ED8                                        u4320 07AE  
                                      u4240 076E                                        u1921 0A05  
                                      u4081 0198                                        u3361 0AC9  
                                      u3281 0540                                        u3601 0301  
                                      u3521 02AA                                        u3441 024E  
                                      u4161 0ED7                                        u4321 07AD  
                                      u4241 076D                                        u4090 01BC  
                                      u3370 0AD3                                        u3290 0548  
                                      u3610 0308                                        u3530 02BE  
                                      u3450 0255                                        u4170 0EE2  
                                      u4330 07B8                                        u4250 0772  
                                      u4410 0E63                                        u4091 01BB  
                                      u3371 0AD2                                        u3291 0547  
                                      u3611 0307                                        u3531 02BD  
                                      u3451 0254                                        u4171 0EE1  
                                      u4331 07B7                                        u4251 0771  
                                      u4411 0E62                                        u2900 0FBF  
                                      u3380 0B04                                        u3620 030E  
                                      u3540 02CD                                        u3460 025F  
                                      u3700 05D9                                        u4180 0EEC  
                                      u4340 07BC                                        u4260 077B  
                                      u4500 0EA5                                        u4420 0E74  
                                      u2901 0FBE                                        u3381 0B03  
                                      u3621 030D                                        u3541 02CC  
                                      u3461 025E                                        u3701 05D8  
                                      u4181 0EEB                                        u4341 07BB  
                                      u4261 077A                                        u4501 0EA4  
                                      u4421 0E73                                        u2910 038B  
                                      u3390 0B0D                                        u3630 0314  
                                      u3550 02DC                                        u3470 026C  
                                      u3710 05FD                                        u4190 0EF6  
                                      u4350 07C9                                        u4270 077F  
                                      u4430 0E79                                        u2911 038A  
                                      u3391 0B0C                                        u3631 0313  
                                      u3551 02DB                                        u3471 026B  
                                      u3711 05FC                                        u4191 0EF5  
                                      u4351 07C8                                        u4271 077E  
                                      u4431 0E78                                        u3800 0089  
                                      u2840 0C42                                        u2920 038F  
                                      u3640 0318                                        u3560 02E3  
                                      u3480 0270                                        u3720 0624  
                                      u4360 07CD                                        u4280 078D  
                                      u4440 0E7D                                        u3801 0088  
                                      u2841 0C41                                        u2921 038E  
                                      u3641 0317                                        u3561 02E2  
                                      u3481 026F                                        u3721 0623  
                                      u4361 07CC                                        u4281 078C  
                                      u4441 0E7C                                        u3810 008E  
                                      u2850 0C51                                        u2930 0395  
                                      u3650 0321                                        u3570 02F1  
                                      u3490 0276                                        u3730 0646  
                                      u4370 07D1                                        u4290 0796  
                                      u4450 0E85                                        u3811 008D  
                                      u2851 0C50                                        u2931 0394  
                                      u3651 0320                                        u3571 02F0  
                                      u3491 0275                                        u3731 0645  
                                      u4371 07D0                                        u4291 0795  
                                      u4451 0E84                                        _PEIE 005E  
                                      u3900 00D8                                        u3820 0093  
                                      u3740 003F                                        u2860 0C5C  
                                      u2940 03B3                                        u3580 02F6  
                                      u3660 0594                                        u4380 07D8  
                                      u4460 0E8A                                        u3901 00D7  
                                      u3821 0092                                        u3741 003E  
                                      u2861 0C5B                                        u2941 03B2  
                                      u3581 02F5                                        u3661 0593  
                                      u4381 07D7                                        u4461 0E89  
                                      u3910 00E7                                        u3830 0099  
                                      u3750 004E                                        u2870 0A2B  
                                      u2950 03BF                                        u3590 02FC  
                                      u3670 059A                                        u4390 07DE  
                                      u4470 0E92                                        u3911 00E6  
                                      u3831 0098                                        u3751 004D  
                                      u2871 0A2A                                        u2951 03BE  
                                      u3591 02FB                                        u3671 0599  
                                      u4391 07DD                                        u4471 0E91  
                                      u3920 00EE                                        u3840 009F  
                                      u3760 0059                                        u2880 0F4B  
                                      u2960 03C4                                        u3680 05A2  
                                      u4480 0E9A                                        u3921 00ED  
                                      u3841 009E                                        u3761 0058  
                                      u2881 0F4A                                        u2961 03C3  
                                      u2945 03AF                                        u3681 05A1  
                                      u4481 0E99                                        u3930 010D  
                                      u3850 00A6                                        u3770 0074  
                                      u2890 0F5A                                        u2970 03C8  
                                      u3690 05B3                                        u4490 0E9F  
                                      i1l51 0D62                                        u3931 010C  
                                      u3851 00A5                                        u3771 0073  
                                      u2891 0F59                                        u2971 03C7  
                                      u3691 05B2                                        u4491 0E9E  
                                      u3940 0113                                        u3860 00C2  
                                      u3780 0079                                        u2980 0A93  
                                      u3941 0112                                        u3861 00C1  
                                      u3781 0078                                        u2981 0A92  
                                      u3950 0118                                        u3870 00C8  
                                      u3790 0083                                        u2990 0A9D  
                                      i1l55 0D86                                        u3951 0117  
                                      u3871 00C7                                        u3791 0082  
                                      u2991 0A9C                                        u3960 011D  
                                      u3880 00CD                                        u3961 011C  
                                      u3881 00CC                                        u3970 0123  
                                      u3890 00D2                                        u3971 0122  
                                      u3891 00D1                                        u3980 0132  
                                      u3981 0131                                        u3990 013D  
                                      u3991 013C                                        _TMR2 001A  
                               atol_de@m_ID 0065                                        _WPUA 020C  
                                      _WPUB 020D                                        _WPUC 020E  
                    SetFixedLengthCode@data 0076                      SetFixedLengthCode@code 0077  
                                      _main 0E38                     __ReqBuzzer@BEEP_off_SET 0075  
                                      fsr0h 0005                                        fsr1h 0007  
                                      indf0 0000                                        fsr0l 0004  
                                      indf1 0001                                        fsr1l 0006  
                                      btemp 007E                                        start 001B  
                            ?_SysClock_Init 0070                             __end_of_Delayus 0A2C  
                           ?_dd_set_TX_mode 0070                                 ?_UART1_INIT 0070  
                                     ??_ISR 0073                          __size_of_EXIT_init 000B  
                          nosup@@$_$_CONFIG 0000                                       ?_main 0070  
                             ??__GetRegMode 0073                                       _T2CON 001C  
                                     _IOCAF 0393                                ?_EXTI_PORTA1 0070  
                                     _IOCAN 0392                                       _IOCAP 0391  
                                     _IOCIE 005B                                       _IOCIF 0058  
                        __size_of_UART1_end 0001                                       i1l873 0018  
                                     i1l874 0019                          __size_of_TIM4_Init 000B  
                                     _TB_5s 0047                                       _TRISA 008C  
                                     _TRISB 008D                                       _TRISC 008E  
               __size_of_SetFixedLengthCode 001F                         ___lmul@multiplicand 0057  
                                     __SwIn 0A12                             __end_of_atol_de 0D30  
                               _txphase_end 00CA                    __ReqBuzzer@BEEP_freq_SET 0076  
                  __size_of__FuncAutoTxStop 0001                         __size_of_AD_control 003F  
                __size_of_dd_write_7021_reg 0037                                  __IdClear@i 0074  
                       __SetKeyChatterCount 09F3                            __end_of_WDT_init 09C9  
           __end_of_dd_set_ADF7021_Power_on 09EB                                       status 0003  
                                     wtemp0 007E                            __end_of_ClearWDT 09CA  
                       SetFixedLengthCode@i 0079                             __initialization 001D  
                              __end_of_main 0EAB                            __end_of__IdClear 0800  
                             ??__FuncNoPush 0073                           ?_START_AD_SAMPLER 0070  
                      ?__SetKeyChatterCount 0070                          ??_START_AD_SAMPLER 0073  
                          __end_of__KeyInTx 0383  dd_set_ADF7021_Power_on_Init@register_value 0053  
                                    ??_main 007A                            __end_of__FuncReg 0E38  
                             SetTxData@unii 005E                               SetTxData@unij 005B  
                             SetTxData@unik 0059                                  __KeyInTx@i 006E  
                                    ?__SwIn 0070                         __end_of__GetRegMode 09D0  
                       __size_of_UART1_INIT 0001                                  _SendTxData 0F2A  
                                    _ANSELA 018C                                      _ANSELB 018D  
                                    _ANSELC 018E                                      _HFIOFR 04D4  
                         __end_of_EXIT_init 0A07                                      i1l4201 0D77  
                                    i1l4203 0D79                                      i1l4205 0D7D  
                                    i1l4207 0D82                           _BASE_TIME_BEEP_on 00C4  
                                    i1l4191 0D3D                                      i1l4193 0D49  
                                    i1l4195 0D5C                                      i1l4197 0D60  
                                    i1l4189 0D30                                      i1l4199 0D63  
                                    i1l4561 0010                                      i1l4563 0011  
                                    i1l4555 0006                                      i1l4565 0016  
                                    i1l4557 000B                                      i1l4559 000E  
                              _AD_DATA_BUFF 00C8                                      u254_20 000B  
                                    u254_21 000A                                      u255_20 0016  
                                    u255_21 0015                                      u193_20 0D37  
                                    u193_21 0D34                                      _FVRRDY 08BE  
                                    u194_24 0D39                                      u195_20 0D3D  
                                    u195_21 0D3C                                      u196_20 0D49  
                                    u196_21 0D48                                      u197_20 0D60  
                                    u197_21 0D5F                                      u198_20 0D77  
                                    u198_21 0D76                                      u198_25 0D73  
                                    u199_20 0D82                                      u199_21 0D81  
                                 ??_Delayus 0073                                      _OSCCON 0099  
                                    _RAM_SW 0042                                      _TB_51s 0048  
                             ??__ReqTxdEdit 0065                                      _TMR2IE 0489  
                                    _TMR2IF 0089                             ??_SysClock_Init 0073  
                        __size_of_LockFlash 0001                                  __ReqBuzzer 0B19  
        __end_of__ClearSpecialMultiKeyState 09DD                  __ClearSpecialMultiKeyState 09D6  
                         __end_of_UART1_end 0004                    __size_of__DupliFuncClear 0013  
                         __end_of_TIM4_Init 0A12                    __size_of_InitialFlashReg 0001  
                                    _nWPUEN 04AF                                      ___lmul 0BF6  
                        __size_of__Init_RAM 0023                          __size_of__FuncStop 00FA  
                        __size_of_SetTxData 00EB                       ??__SetKeyChatterCount 0073  
              __size_of_KeyOpt_EEPROM_write 0019                              _TIME_BEEP_freq 003D  
                                 ??_atol_de 005F                               ?__FuncOpenReg 0070  
                       __end_of__FuncNoPush 0A4B                    __size_of_eeprom_sys_load 003E  
                             ?__FuncVentReg 0070                               ?__FuncStopReg 0070  
                  __end_of__FuncAutoTxStart 09CD                               _m_RFNormalBuf 0120  
                 __size_of_WriteByteToFLASH 0007                    __size_of__GetNoPushState 000F  
                   __end_of__initialization 0036                               ?__Pass3secKey 0070  
                         ??__FuncAutoTxStop 0073                                 SendTxData@i 0062  
                              ??_AD_control 0073                         __end_of__ReqTxdEdit 0492  
                            __pcstackCOMMON 0070                      __size_of__FuncCloseReg 001D  
                             __end_of__SwIn 0A1D                       __end_of_VHF_GPIO_INIT 0AC2  
                            _TIME_2s_RestTX 0041                               ??_UnlockFlash 0073  
                          _TIME_power_on_AD 0030                           __end_of_LockFlash 09CB  
                                 ?_WDT_init 0070                              ??__FuncOpenReg 006B  
                               __GetRegMode 09CD                           __RegistrationMode 058C  
                    __size_of__FuncOpenStop 0014                      _TIME_Once_twice_switch 0022  
                            ??__FuncVentReg 006B                          _m_KeyDupli1stTimer 0026  
                                 ?_ClearWDT 0070                          ?__RegistrationMode 0070  
                            ??__FuncStopReg 006B                        __size_of_EXTI_PORTA1 0057  
                                   ??__SwIn 0073                           __end_of__Init_RAM 0BF6  
                               ?_SendTxData 0070                          dd_write_7021_reg@i 0077  
                        dd_write_7021_reg@j 0075                           __end_of__FuncStop 058C  
                                _m_KeyCount 003B                          __end_of_AD_control 0CDE  
                         __end_of_SetTxData 0765                                   ?__IdClear 0070  
                                __pbssBANK0 0020                                  __pbssBANK1 00A0  
                                __pbssBANK2 0120                                  _m_RegDigit 0037  
                       ??__RegistrationMode 006A                              ??__Pass3secKey 007A  
                          ??_dd_set_TX_mode 0079                          __size_of_key_check 007F  
                               ?__ReqBuzzer 0073               __size_of__SetRegistrationMode 0022  
                                 ?__KeyInTx 0070                                   ?__FuncReg 0070  
                            _m_TimerRegMode 002A                                  _m_TimerKey 002E  
                                __pmaintext 0E38                                ??_UART1_INIT 0073  
                                   ?___lmul 0053                                  __pintentry 0004  
                         ??__DupliFuncClear 0073                                 __FuncNoPush 0A3B  
                         ??_InitialFlashReg 0073                              ___lmul@product 0073  
                 __end_of__RegistrationMode 067A                                     _BAT_out 004B  
                                ??_WDT_init 0073                          _BASE_TIME_BEEP_off 003F  
                         __DupliFuncSetMode 003A                                  ??_ClearWDT 0073  
                                   _RAM_OP1 0051                                     _RAM_OP2 007A  
                                   _RAM_OP3 0052                                     _ID_data 00BC  
                       __end_of_UnlockFlash 09CC                               __FuncCloseReg 0AC2  
                        ?__DupliFuncSetMode 0070                                     _TEST_No 0036  
                                   _SIO_cnt 0034                          __end_of_UART1_INIT 09C8  
                                ??__IdClear 0073                           ??_eeprom_sys_load 0073  
                                   _Delayus 0A1D                                 __ReqTxdEdit 0383  
                       ??__DupliFuncSetMode 0053                                  ??__KeyInTx 006C  
                             __FuncOpenStop 0A5E                                  ??__FuncReg 0053  
            ??_dd_set_ADF7021_Power_on_Init 0079                           ??__GetNoPushState 0073  
                         _BAT_Voltage_value 00B0                             _ct_KeyDataTable 1000  
                           __size_of___lmul 0034                    ?_dd_set_ADF7021_Power_on 0070  
                      _m_KeyDupliSetTimeout 0028                         __size_of_SendTxData 00D6  
                                   _m_RegID 00DC                                     _m_KeyNo 003C  
                                   __ptext1 0B55                                     __ptext2 0765  
                __end_of_SetFixedLengthCode 0B92                                     __ptext3 0003  
                                   __ptext4 0EAB                                     __ptext5 058C  
                                   __ptext6 0CDE                                     __ptext7 0BF6  
                                   __ptext8 01E7                                     __ptext9 0B92  
                 __end_of__DupliFuncSetMode 01E7                                     _atol_de 0CDE  
                         __end_of_key_check 0F2A                                __size_of_ISR 0017  
                       __size_of__ReqBuzzer 001E                         WriteByteToFLASH@Dat 0077  
                            ?__FuncCloseReg 0070                   __size_of_START_AD_SAMPLER 0001  
                        __ReqTxdEdit@buzreq 0064                                     clrloop0 09D1  
                             ?_time_control 0070                        end_of_initialization 0036  
                                   _txphase 0032                               LockFlash@Type 0070  
                          _WriteByteToFLASH 09DD                         _KeyOpt_EEPROM_write 0A72  
                            ?__FuncOpenStop 0070                                   _EXIT_init 09FC  
               ?__ClearSpecialMultiKeyState 0070                        __end_of__FuncOpenReg 0B55  
                      __end_of__FuncVentReg 0B19                       dd_write_7021_reg@byte 0076  
                                 _RAM_RegSW 0043                                  _rom_KeyOpt 004A  
                      __end_of__FuncStopReg 0AFC                                _Control_code 004D  
                                 _UART1_end 0003                                   _TIM4_Init 0A07  
                      ?_KeyOpt_EEPROM_write 0070                  __size_of__RegistrationMode 00EE  
              dd_set_TX_mode@register_value 0053               __end_of_Default_adf7012_value 1021  
                      __end_of__Pass3secKey 0AA5                                 _UnlockFlash 09CB  
                           __FuncAutoTxStop 0002                              ??_time_control 0073  
                         ?__FuncAutoTxStart 0070                          ??__FuncAutoTxStart 0073  
                                 _TB_sum_5s 0038                     __end_of_ct_KeyDataTable 1011  
                                ?_EXIT_init 0070                            __Pass3secKey@req 006A  
                     __end_of_SysClock_Init 09F3                      __ReqBuzzer@BEEP_on_SET 0073  
               __end_of__SetKeyChatterCount 09FC                            atol_de@m_RegID_x 0064  
                                ?_UART1_end 0070                                  ?_TIM4_Init 0070  
                            __end_of___lmul 0C2A                       ??_KeyOpt_EEPROM_write 0078  
                __size_of__DupliFuncSetMode 01AD                                ?__GetRegMode 0070  
                           ??__FuncCloseReg 006B                         start_initialization 001D  
                         __size_of_WDT_init 0001                                 __end_of_ISR 001B  
                                 _LockFlash 09CA                           __size_of_ClearWDT 0001  
                              ??_SendTxData 0060                             ??__FuncOpenStop 006A  
                                 __Init_RAM 0BD3                             __DupliFuncClear 0A4B  
                         __size_of__IdClear 0018                                ??__ReqBuzzer 0077  
                                 __FuncStop 0492                             _InitialFlashReg 09C5  
                                 _SetTxData 067A                           __size_of__KeyInTx 019C  
                         _m_TimerKeyMonitor 002C                           __size_of__FuncReg 0059  
                                  ??___lmul 0073                               _TIME_BEEP_off 003E  
                              ?__FuncNoPush 0070                             UnlockFlash@Type 0070  
                        __end_of_SendTxData 1000                     __end_of__FuncAutoTxStop 0003  
              __end_of__SetRegistrationMode 0BD3                                 _m_KindOfKey 0044  
                             ??_EXTI_PORTA1 0070                             _eeprom_sys_load 0C61  
                    SendTxData@def_preamble 0063                                 __pbssCOMMON 007A  
                        __end_of__ReqBuzzer 0B37                                   ___latbits 0002  
                             __pcstackBANK0 0053         __size_of__ClearSpecialMultiKeyState 0007  
                                ?_LockFlash 0070                            _START_AD_SAMPLER 09C6  
                           __GetNoPushState 0A2C                       __size_of__FuncOpenReg 001E  
                              Delayus@timer 0074                                    ?_Delayus 0070  
                    __size_of_VHF_GPIO_INIT 001D                       __size_of__FuncVentReg 001D  
                              ?__ReqTxdEdit 0064                                  ?__Init_RAM 0070  
                                ?__FuncStop 0070                       __size_of__FuncStopReg 001D  
                               ??_EXIT_init 0073                            eeprom_sys_load@i 0053  
                                ?_SetTxData 0053                                   _m_RegMode 004E  
                               ??_UART1_end 0073                       __size_of__Pass3secKey 001A  
                               ??_TIM4_Init 0073                        __end_of_time_control 0B73  
                  __end_of_WriteByteToFLASH 09E4                                    ?_atol_de 005B  
                              __FuncOpenReg 0B37                                   _key_Value 00C0  
                              __FuncVentReg 0AFC                              __size_of__SwIn 000B  
          __size_of_dd_set_ADF7021_Power_on 0007                                   _key_check 0EAB  
                   __end_of__DupliFuncClear 0A5E                                __FuncStopReg 0ADF  
                       __end_of_EXTI_PORTA1 0D87                     __end_of_InitialFlashReg 09C6  
                        _SetFixedLengthCode 0B73                  dd_write_7021_reg@reg_bytes 0078  
                              __Pass3secKey 0A8B                              _m_ChatterCount 00C6  
                                 clear_ram0 09D0                           __ReqTxdEdit@txreq 0068  
                       ?_SetFixedLengthCode 0073                                    Delayus@x 0075  
                                  _TB_100ms 0049                                    _TB_976us 0035  
                                  _TIME_10s 0020                                    _SIO_DATA 0148  
                   __end_of_eeprom_sys_load 0C9F                     __size_of_dd_set_TX_mode 0058  
                             _VHF_GPIO_INIT 0AA5                                    _SIO_buff 00A0  
                              ?_UnlockFlash 0070                  __DupliFuncSetMode@m_KeyOpt 0079  
                          ?__FuncAutoTxStop 0070                                 _ID_INT_CODE 0050  
                                  _WDT_init 09C8                        ??_SetFixedLengthCode 0075  
                   __end_of__GetNoPushState 0A3B        __end_of_dd_set_ADF7021_Power_on_Init 0BB1  
     __size_of_dd_set_ADF7021_Power_on_Init 001F                _dd_set_ADF7021_Power_on_Init 0B92  
                                  _ClearWDT 09C9                        __size_of__GetRegMode 0003  
                               ??_LockFlash 0073                                  ?_key_check 0070  
                         _test_mode_control 0765                           ___lmul@multiplier 0053  
                      __ReqTxdEdit@time_key 0069                                    __IdClear 07E8  
                        ?_test_mode_control 0070                                 ??__Init_RAM 0073  
                               ??__FuncStop 006A                            __size_of_Delayus 000F  
                               ??_SetTxData 0058                        __SetRegistrationMode 0BB1  
                                  __KeyInTx 01E7                                    __FuncReg 0DDF  
                       ??_test_mode_control 0079                                    __SwIn@sw 0073  
                         _ROM_adf7012_value 00CC                   __size_of__FuncAutoTxStart 0001  
                              _TIME_BEEP_on 00C2                              ?_VHF_GPIO_INIT 0070  
                      __size_of__FuncNoPush 0010                                 _EXTI_PORTA1 0D30  
                          __size_of_atol_de 0052                       _Default_adf7012_value 1011  
                                  _m_KeyOld 0045                                    _m_KeyNew 0046  
                               _RAM_BAT_AVG 00E5                                 _RAM_BAT_CNT 004C  
                               _RAM_BAT_SUM 00B4                   __end_of_test_mode_control 07E8  
                            _txphase_Repeat 004F               ?_dd_set_ADF7021_Power_on_Init 0070  
                                  __ptext10 0A12                                    __ptext11 0AFC  
                                  __ptext20 0B37                                    __ptext12 0ADF  
                                  __ptext21 0A3B                                    __ptext13 0492  
                                  __ptext30 067A                                    __ptext22 0AC2  
                                  __ptext14 0A2C                                    __ptext31 0B73  
                                  __ptext23 0A8B                                    __ptext15 0DDF  
                                  __ptext40 09CA                                    __ptext32 0002  
                                  __ptext24 0383                                    __ptext16 0BB1  
                                  __ptext41 09C9                                    __ptext33 09CC  
                                  __ptext25 0D87                                    __ptext17 07E8  
                                  __ptext50 09EB                                    __ptext42 0C61  
                                  __ptext34 003A                                    __ptext26 0C2A  
                                  __ptext18 09CD                                    __ptext51 09C6  
                                  __ptext43 0BD3                                    __ptext35 0B19  
                                  __ptext27 0A1D                                    __ptext19 0A5E  
                                  __ptext52 09C5                                    __ptext44 09F3  
                                  __ptext36 0A4B                                    __ptext28 09E4  
                                  __ptext53 09FC                                    __ptext45 09D6  
                                  __ptext37 0A72                                    __ptext29 0F2A  
                                  __ptext54 0C9F                                    __ptext46 09C8  
                                  __ptext38 09DD                                    __ptext47 0AA5  
                                  __ptext39 09CB                                    __ptext56 0D30  
                                  __ptext48 09C7                                    __ptext49 0A07  
                          ?__DupliFuncClear 0070                            ?_InitialFlashReg 0070  
                             __size_of_main 0073                       ?__SetRegistrationMode 0070  
                               _ID_data_add 00B8                        WriteByteToFLASH@Addr 0073  
                     __size_of_time_control 001E                        __size_of__ReqTxdEdit 010F  
               __end_of_KeyOpt_EEPROM_write 0A8B                                    _time_led 0024  
                                _AD_control 0C9F                    __end_of_START_AD_SAMPLER 09C7  
                                  int$flags 007E                             _m_KeyCloseCount 0039  
                          ?_eeprom_sys_load 0070                __size_of__SetKeyChatterCount 0009  
                                  atol_de@i 0069                                    atol_de@j 0063  
                                _INTCONbits 000B                            ?__GetNoPushState 0070  
                   _dd_set_ADF7021_Power_on 09E4                       __end_of__FuncCloseReg 0ADF  
                    __size_of_SysClock_Init 0008                   __SetRegistrationMode@mode 0079  
                               ??_key_check 006F                                _time_control 0B55  
                                  intlevel1 0000                           _dd_write_7021_reg 0C2A  
                     __end_of__FuncOpenStop 0A72                          ?_dd_write_7021_reg 0071  
                                _UART1_INIT 09C7                             ??_VHF_GPIO_INIT 0073  
                       ??_dd_write_7021_reg 0073                              _dd_set_TX_mode 0D87  
                      SetTxData@ID_data_set 0053                           ?_WriteByteToFLASH 0073  
                             __pstringtext1 1000                               __pstringtext2 1011  
                        ??_WriteByteToFLASH 0078                        __size_of_UnlockFlash 0001  
                __size_of_test_mode_control 0083                          SetTxData@count_set 005D  
                 __end_of_dd_write_7021_reg 0C61                             _m_KeyOptSetMode 0040  
                            _m_KeyOpenCount 003A                      ??__SetRegistrationMode 0078  
              ??__ClearSpecialMultiKeyState 0073                               _SysClock_Init 09EB  
                    __end_of_dd_set_TX_mode 0DDF  
